ARM GAS  /var/folders/_8/_cw6l3nd335f_j6cn6z79m4m0000gn/T//ccdKuXwe.s 			page 1


   1              		.syntax unified
   2              		.cpu cortex-m4
   3              		.eabi_attribute 27, 1
   4              		.eabi_attribute 28, 1
   5              		.fpu fpv4-sp-d16
   6              		.eabi_attribute 20, 1
   7              		.eabi_attribute 21, 1
   8              		.eabi_attribute 23, 3
   9              		.eabi_attribute 24, 1
  10              		.eabi_attribute 25, 1
  11              		.eabi_attribute 26, 1
  12              		.eabi_attribute 30, 6
  13              		.eabi_attribute 34, 1
  14              		.eabi_attribute 18, 4
  15              		.thumb
  16              		.file	"heap_4.c"
  17              		.text
  18              	.Ltext0:
  19              		.cfi_sections	.debug_frame
  20              		.section	.bss.ucHeap,"aw",%nobits
  21              		.align	2
  24              	ucHeap:
  25 0000 00000000 		.space	8192
  25      00000000 
  25      00000000 
  25      00000000 
  25      00000000 
  26              		.section	.rodata.xHeapStructSize,"a",%progbits
  27              		.align	2
  30              	xHeapStructSize:
  31 0000 08000000 		.word	8
  32              		.section	.bss.xStart,"aw",%nobits
  33              		.align	2
  36              	xStart:
  37 0000 00000000 		.space	8
  37      00000000 
  38              		.section	.bss.pxEnd,"aw",%nobits
  39              		.align	2
  42              	pxEnd:
  43 0000 00000000 		.space	4
  44              		.section	.bss.xFreeBytesRemaining,"aw",%nobits
  45              		.align	2
  48              	xFreeBytesRemaining:
  49 0000 00000000 		.space	4
  50              		.section	.bss.xMinimumEverFreeBytesRemaining,"aw",%nobits
  51              		.align	2
  54              	xMinimumEverFreeBytesRemaining:
  55 0000 00000000 		.space	4
  56              		.section	.bss.xNumberOfSuccessfulAllocations,"aw",%nobits
  57              		.align	2
  60              	xNumberOfSuccessfulAllocations:
  61 0000 00000000 		.space	4
  62              		.section	.bss.xNumberOfSuccessfulFrees,"aw",%nobits
  63              		.align	2
  66              	xNumberOfSuccessfulFrees:
  67 0000 00000000 		.space	4
  68              		.section	.bss.xBlockAllocatedBit,"aw",%nobits
ARM GAS  /var/folders/_8/_cw6l3nd335f_j6cn6z79m4m0000gn/T//ccdKuXwe.s 			page 2


  69              		.align	2
  72              	xBlockAllocatedBit:
  73 0000 00000000 		.space	4
  74              		.section	.text.pvPortMalloc,"ax",%progbits
  75              		.align	2
  76              		.global	pvPortMalloc
  77              		.thumb
  78              		.thumb_func
  80              	pvPortMalloc:
  81              	.LFB5:
  82              		.file 1 "../../../../dependencies/freertos/FreeRTOSv10.4.1/FreeRTOS/Source/portable/MemMang/heap_4
   1:../../../../dependencies/freertos/FreeRTOSv10.4.1/FreeRTOS/Source/portable/MemMang/heap_4.c **** /*
   2:../../../../dependencies/freertos/FreeRTOSv10.4.1/FreeRTOS/Source/portable/MemMang/heap_4.c ****  * FreeRTOS Kernel V10.4.1
   3:../../../../dependencies/freertos/FreeRTOSv10.4.1/FreeRTOS/Source/portable/MemMang/heap_4.c ****  * Copyright (C) 2020 Amazon.com, Inc. or its affiliates.  All Rights Reserved.
   4:../../../../dependencies/freertos/FreeRTOSv10.4.1/FreeRTOS/Source/portable/MemMang/heap_4.c ****  *
   5:../../../../dependencies/freertos/FreeRTOSv10.4.1/FreeRTOS/Source/portable/MemMang/heap_4.c ****  * Permission is hereby granted, free of charge, to any person obtaining a copy of
   6:../../../../dependencies/freertos/FreeRTOSv10.4.1/FreeRTOS/Source/portable/MemMang/heap_4.c ****  * this software and associated documentation files (the "Software"), to deal in
   7:../../../../dependencies/freertos/FreeRTOSv10.4.1/FreeRTOS/Source/portable/MemMang/heap_4.c ****  * the Software without restriction, including without limitation the rights to
   8:../../../../dependencies/freertos/FreeRTOSv10.4.1/FreeRTOS/Source/portable/MemMang/heap_4.c ****  * use, copy, modify, merge, publish, distribute, sublicense, and/or sell copies of
   9:../../../../dependencies/freertos/FreeRTOSv10.4.1/FreeRTOS/Source/portable/MemMang/heap_4.c ****  * the Software, and to permit persons to whom the Software is furnished to do so,
  10:../../../../dependencies/freertos/FreeRTOSv10.4.1/FreeRTOS/Source/portable/MemMang/heap_4.c ****  * subject to the following conditions:
  11:../../../../dependencies/freertos/FreeRTOSv10.4.1/FreeRTOS/Source/portable/MemMang/heap_4.c ****  *
  12:../../../../dependencies/freertos/FreeRTOSv10.4.1/FreeRTOS/Source/portable/MemMang/heap_4.c ****  * The above copyright notice and this permission notice shall be included in all
  13:../../../../dependencies/freertos/FreeRTOSv10.4.1/FreeRTOS/Source/portable/MemMang/heap_4.c ****  * copies or substantial portions of the Software.
  14:../../../../dependencies/freertos/FreeRTOSv10.4.1/FreeRTOS/Source/portable/MemMang/heap_4.c ****  *
  15:../../../../dependencies/freertos/FreeRTOSv10.4.1/FreeRTOS/Source/portable/MemMang/heap_4.c ****  * THE SOFTWARE IS PROVIDED "AS IS", WITHOUT WARRANTY OF ANY KIND, EXPRESS OR
  16:../../../../dependencies/freertos/FreeRTOSv10.4.1/FreeRTOS/Source/portable/MemMang/heap_4.c ****  * IMPLIED, INCLUDING BUT NOT LIMITED TO THE WARRANTIES OF MERCHANTABILITY, FITNESS
  17:../../../../dependencies/freertos/FreeRTOSv10.4.1/FreeRTOS/Source/portable/MemMang/heap_4.c ****  * FOR A PARTICULAR PURPOSE AND NONINFRINGEMENT. IN NO EVENT SHALL THE AUTHORS OR
  18:../../../../dependencies/freertos/FreeRTOSv10.4.1/FreeRTOS/Source/portable/MemMang/heap_4.c ****  * COPYRIGHT HOLDERS BE LIABLE FOR ANY CLAIM, DAMAGES OR OTHER LIABILITY, WHETHER
  19:../../../../dependencies/freertos/FreeRTOSv10.4.1/FreeRTOS/Source/portable/MemMang/heap_4.c ****  * IN AN ACTION OF CONTRACT, TORT OR OTHERWISE, ARISING FROM, OUT OF OR IN
  20:../../../../dependencies/freertos/FreeRTOSv10.4.1/FreeRTOS/Source/portable/MemMang/heap_4.c ****  * CONNECTION WITH THE SOFTWARE OR THE USE OR OTHER DEALINGS IN THE SOFTWARE.
  21:../../../../dependencies/freertos/FreeRTOSv10.4.1/FreeRTOS/Source/portable/MemMang/heap_4.c ****  *
  22:../../../../dependencies/freertos/FreeRTOSv10.4.1/FreeRTOS/Source/portable/MemMang/heap_4.c ****  * https://www.FreeRTOS.org
  23:../../../../dependencies/freertos/FreeRTOSv10.4.1/FreeRTOS/Source/portable/MemMang/heap_4.c ****  * https://github.com/FreeRTOS
  24:../../../../dependencies/freertos/FreeRTOSv10.4.1/FreeRTOS/Source/portable/MemMang/heap_4.c ****  *
  25:../../../../dependencies/freertos/FreeRTOSv10.4.1/FreeRTOS/Source/portable/MemMang/heap_4.c ****  */
  26:../../../../dependencies/freertos/FreeRTOSv10.4.1/FreeRTOS/Source/portable/MemMang/heap_4.c **** 
  27:../../../../dependencies/freertos/FreeRTOSv10.4.1/FreeRTOS/Source/portable/MemMang/heap_4.c **** /*
  28:../../../../dependencies/freertos/FreeRTOSv10.4.1/FreeRTOS/Source/portable/MemMang/heap_4.c ****  * A sample implementation of pvPortMalloc() and vPortFree() that combines
  29:../../../../dependencies/freertos/FreeRTOSv10.4.1/FreeRTOS/Source/portable/MemMang/heap_4.c ****  * (coalescences) adjacent memory blocks as they are freed, and in so doing
  30:../../../../dependencies/freertos/FreeRTOSv10.4.1/FreeRTOS/Source/portable/MemMang/heap_4.c ****  * limits memory fragmentation.
  31:../../../../dependencies/freertos/FreeRTOSv10.4.1/FreeRTOS/Source/portable/MemMang/heap_4.c ****  *
  32:../../../../dependencies/freertos/FreeRTOSv10.4.1/FreeRTOS/Source/portable/MemMang/heap_4.c ****  * See heap_1.c, heap_2.c and heap_3.c for alternative implementations, and the
  33:../../../../dependencies/freertos/FreeRTOSv10.4.1/FreeRTOS/Source/portable/MemMang/heap_4.c ****  * memory management pages of https://www.FreeRTOS.org for more information.
  34:../../../../dependencies/freertos/FreeRTOSv10.4.1/FreeRTOS/Source/portable/MemMang/heap_4.c ****  */
  35:../../../../dependencies/freertos/FreeRTOSv10.4.1/FreeRTOS/Source/portable/MemMang/heap_4.c **** #include <stdlib.h>
  36:../../../../dependencies/freertos/FreeRTOSv10.4.1/FreeRTOS/Source/portable/MemMang/heap_4.c **** 
  37:../../../../dependencies/freertos/FreeRTOSv10.4.1/FreeRTOS/Source/portable/MemMang/heap_4.c **** /* Defining MPU_WRAPPERS_INCLUDED_FROM_API_FILE prevents task.h from redefining
  38:../../../../dependencies/freertos/FreeRTOSv10.4.1/FreeRTOS/Source/portable/MemMang/heap_4.c ****  * all the API functions to use the MPU wrappers.  That should only be done when
  39:../../../../dependencies/freertos/FreeRTOSv10.4.1/FreeRTOS/Source/portable/MemMang/heap_4.c ****  * task.h is included from an application file. */
  40:../../../../dependencies/freertos/FreeRTOSv10.4.1/FreeRTOS/Source/portable/MemMang/heap_4.c **** #define MPU_WRAPPERS_INCLUDED_FROM_API_FILE
  41:../../../../dependencies/freertos/FreeRTOSv10.4.1/FreeRTOS/Source/portable/MemMang/heap_4.c **** 
  42:../../../../dependencies/freertos/FreeRTOSv10.4.1/FreeRTOS/Source/portable/MemMang/heap_4.c **** #include "FreeRTOS.h"
  43:../../../../dependencies/freertos/FreeRTOSv10.4.1/FreeRTOS/Source/portable/MemMang/heap_4.c **** #include "task.h"
  44:../../../../dependencies/freertos/FreeRTOSv10.4.1/FreeRTOS/Source/portable/MemMang/heap_4.c **** 
  45:../../../../dependencies/freertos/FreeRTOSv10.4.1/FreeRTOS/Source/portable/MemMang/heap_4.c **** #undef MPU_WRAPPERS_INCLUDED_FROM_API_FILE
  46:../../../../dependencies/freertos/FreeRTOSv10.4.1/FreeRTOS/Source/portable/MemMang/heap_4.c **** 
ARM GAS  /var/folders/_8/_cw6l3nd335f_j6cn6z79m4m0000gn/T//ccdKuXwe.s 			page 3


  47:../../../../dependencies/freertos/FreeRTOSv10.4.1/FreeRTOS/Source/portable/MemMang/heap_4.c **** #if ( configSUPPORT_DYNAMIC_ALLOCATION == 0 )
  48:../../../../dependencies/freertos/FreeRTOSv10.4.1/FreeRTOS/Source/portable/MemMang/heap_4.c ****     #error This file must not be used if configSUPPORT_DYNAMIC_ALLOCATION is 0
  49:../../../../dependencies/freertos/FreeRTOSv10.4.1/FreeRTOS/Source/portable/MemMang/heap_4.c **** #endif
  50:../../../../dependencies/freertos/FreeRTOSv10.4.1/FreeRTOS/Source/portable/MemMang/heap_4.c **** 
  51:../../../../dependencies/freertos/FreeRTOSv10.4.1/FreeRTOS/Source/portable/MemMang/heap_4.c **** /* Block sizes must not get too small. */
  52:../../../../dependencies/freertos/FreeRTOSv10.4.1/FreeRTOS/Source/portable/MemMang/heap_4.c **** #define heapMINIMUM_BLOCK_SIZE    ( ( size_t ) ( xHeapStructSize << 1 ) )
  53:../../../../dependencies/freertos/FreeRTOSv10.4.1/FreeRTOS/Source/portable/MemMang/heap_4.c **** 
  54:../../../../dependencies/freertos/FreeRTOSv10.4.1/FreeRTOS/Source/portable/MemMang/heap_4.c **** /* Assumes 8bit bytes! */
  55:../../../../dependencies/freertos/FreeRTOSv10.4.1/FreeRTOS/Source/portable/MemMang/heap_4.c **** #define heapBITS_PER_BYTE         ( ( size_t ) 8 )
  56:../../../../dependencies/freertos/FreeRTOSv10.4.1/FreeRTOS/Source/portable/MemMang/heap_4.c **** 
  57:../../../../dependencies/freertos/FreeRTOSv10.4.1/FreeRTOS/Source/portable/MemMang/heap_4.c **** /* Allocate the memory for the heap. */
  58:../../../../dependencies/freertos/FreeRTOSv10.4.1/FreeRTOS/Source/portable/MemMang/heap_4.c **** #if ( configAPPLICATION_ALLOCATED_HEAP == 1 )
  59:../../../../dependencies/freertos/FreeRTOSv10.4.1/FreeRTOS/Source/portable/MemMang/heap_4.c **** 
  60:../../../../dependencies/freertos/FreeRTOSv10.4.1/FreeRTOS/Source/portable/MemMang/heap_4.c **** /* The application writer has already defined the array used for the RTOS
  61:../../../../dependencies/freertos/FreeRTOSv10.4.1/FreeRTOS/Source/portable/MemMang/heap_4.c **** * heap - probably so it can be placed in a special segment or address. */
  62:../../../../dependencies/freertos/FreeRTOSv10.4.1/FreeRTOS/Source/portable/MemMang/heap_4.c ****     extern uint8_t ucHeap[ configTOTAL_HEAP_SIZE ];
  63:../../../../dependencies/freertos/FreeRTOSv10.4.1/FreeRTOS/Source/portable/MemMang/heap_4.c **** #else
  64:../../../../dependencies/freertos/FreeRTOSv10.4.1/FreeRTOS/Source/portable/MemMang/heap_4.c ****     PRIVILEGED_DATA static uint8_t ucHeap[ configTOTAL_HEAP_SIZE ];
  65:../../../../dependencies/freertos/FreeRTOSv10.4.1/FreeRTOS/Source/portable/MemMang/heap_4.c **** #endif /* configAPPLICATION_ALLOCATED_HEAP */
  66:../../../../dependencies/freertos/FreeRTOSv10.4.1/FreeRTOS/Source/portable/MemMang/heap_4.c **** 
  67:../../../../dependencies/freertos/FreeRTOSv10.4.1/FreeRTOS/Source/portable/MemMang/heap_4.c **** /* Define the linked list structure.  This is used to link free blocks in order
  68:../../../../dependencies/freertos/FreeRTOSv10.4.1/FreeRTOS/Source/portable/MemMang/heap_4.c ****  * of their memory address. */
  69:../../../../dependencies/freertos/FreeRTOSv10.4.1/FreeRTOS/Source/portable/MemMang/heap_4.c **** typedef struct A_BLOCK_LINK
  70:../../../../dependencies/freertos/FreeRTOSv10.4.1/FreeRTOS/Source/portable/MemMang/heap_4.c **** {
  71:../../../../dependencies/freertos/FreeRTOSv10.4.1/FreeRTOS/Source/portable/MemMang/heap_4.c ****     struct A_BLOCK_LINK * pxNextFreeBlock; /*<< The next free block in the list. */
  72:../../../../dependencies/freertos/FreeRTOSv10.4.1/FreeRTOS/Source/portable/MemMang/heap_4.c ****     size_t xBlockSize;                     /*<< The size of the free block. */
  73:../../../../dependencies/freertos/FreeRTOSv10.4.1/FreeRTOS/Source/portable/MemMang/heap_4.c **** } BlockLink_t;
  74:../../../../dependencies/freertos/FreeRTOSv10.4.1/FreeRTOS/Source/portable/MemMang/heap_4.c **** 
  75:../../../../dependencies/freertos/FreeRTOSv10.4.1/FreeRTOS/Source/portable/MemMang/heap_4.c **** /*-----------------------------------------------------------*/
  76:../../../../dependencies/freertos/FreeRTOSv10.4.1/FreeRTOS/Source/portable/MemMang/heap_4.c **** 
  77:../../../../dependencies/freertos/FreeRTOSv10.4.1/FreeRTOS/Source/portable/MemMang/heap_4.c **** /*
  78:../../../../dependencies/freertos/FreeRTOSv10.4.1/FreeRTOS/Source/portable/MemMang/heap_4.c ****  * Inserts a block of memory that is being freed into the correct position in
  79:../../../../dependencies/freertos/FreeRTOSv10.4.1/FreeRTOS/Source/portable/MemMang/heap_4.c ****  * the list of free memory blocks.  The block being freed will be merged with
  80:../../../../dependencies/freertos/FreeRTOSv10.4.1/FreeRTOS/Source/portable/MemMang/heap_4.c ****  * the block in front it and/or the block behind it if the memory blocks are
  81:../../../../dependencies/freertos/FreeRTOSv10.4.1/FreeRTOS/Source/portable/MemMang/heap_4.c ****  * adjacent to each other.
  82:../../../../dependencies/freertos/FreeRTOSv10.4.1/FreeRTOS/Source/portable/MemMang/heap_4.c ****  */
  83:../../../../dependencies/freertos/FreeRTOSv10.4.1/FreeRTOS/Source/portable/MemMang/heap_4.c **** static void prvInsertBlockIntoFreeList( BlockLink_t * pxBlockToInsert ) PRIVILEGED_FUNCTION;
  84:../../../../dependencies/freertos/FreeRTOSv10.4.1/FreeRTOS/Source/portable/MemMang/heap_4.c **** 
  85:../../../../dependencies/freertos/FreeRTOSv10.4.1/FreeRTOS/Source/portable/MemMang/heap_4.c **** /*
  86:../../../../dependencies/freertos/FreeRTOSv10.4.1/FreeRTOS/Source/portable/MemMang/heap_4.c ****  * Called automatically to setup the required heap structures the first time
  87:../../../../dependencies/freertos/FreeRTOSv10.4.1/FreeRTOS/Source/portable/MemMang/heap_4.c ****  * pvPortMalloc() is called.
  88:../../../../dependencies/freertos/FreeRTOSv10.4.1/FreeRTOS/Source/portable/MemMang/heap_4.c ****  */
  89:../../../../dependencies/freertos/FreeRTOSv10.4.1/FreeRTOS/Source/portable/MemMang/heap_4.c **** static void prvHeapInit( void ) PRIVILEGED_FUNCTION;
  90:../../../../dependencies/freertos/FreeRTOSv10.4.1/FreeRTOS/Source/portable/MemMang/heap_4.c **** 
  91:../../../../dependencies/freertos/FreeRTOSv10.4.1/FreeRTOS/Source/portable/MemMang/heap_4.c **** /*-----------------------------------------------------------*/
  92:../../../../dependencies/freertos/FreeRTOSv10.4.1/FreeRTOS/Source/portable/MemMang/heap_4.c **** 
  93:../../../../dependencies/freertos/FreeRTOSv10.4.1/FreeRTOS/Source/portable/MemMang/heap_4.c **** /* The size of the structure placed at the beginning of each allocated memory
  94:../../../../dependencies/freertos/FreeRTOSv10.4.1/FreeRTOS/Source/portable/MemMang/heap_4.c ****  * block must by correctly byte aligned. */
  95:../../../../dependencies/freertos/FreeRTOSv10.4.1/FreeRTOS/Source/portable/MemMang/heap_4.c **** static const size_t xHeapStructSize = ( sizeof( BlockLink_t ) + ( ( size_t ) ( portBYTE_ALIGNMENT -
  96:../../../../dependencies/freertos/FreeRTOSv10.4.1/FreeRTOS/Source/portable/MemMang/heap_4.c **** 
  97:../../../../dependencies/freertos/FreeRTOSv10.4.1/FreeRTOS/Source/portable/MemMang/heap_4.c **** /* Create a couple of list links to mark the start and end of the list. */
  98:../../../../dependencies/freertos/FreeRTOSv10.4.1/FreeRTOS/Source/portable/MemMang/heap_4.c **** PRIVILEGED_DATA static BlockLink_t xStart, * pxEnd = NULL;
  99:../../../../dependencies/freertos/FreeRTOSv10.4.1/FreeRTOS/Source/portable/MemMang/heap_4.c **** 
 100:../../../../dependencies/freertos/FreeRTOSv10.4.1/FreeRTOS/Source/portable/MemMang/heap_4.c **** /* Keeps track of the number of calls to allocate and free memory as well as the
 101:../../../../dependencies/freertos/FreeRTOSv10.4.1/FreeRTOS/Source/portable/MemMang/heap_4.c ****  * number of free bytes remaining, but says nothing about fragmentation. */
 102:../../../../dependencies/freertos/FreeRTOSv10.4.1/FreeRTOS/Source/portable/MemMang/heap_4.c **** PRIVILEGED_DATA static size_t xFreeBytesRemaining = 0U;
 103:../../../../dependencies/freertos/FreeRTOSv10.4.1/FreeRTOS/Source/portable/MemMang/heap_4.c **** PRIVILEGED_DATA static size_t xMinimumEverFreeBytesRemaining = 0U;
ARM GAS  /var/folders/_8/_cw6l3nd335f_j6cn6z79m4m0000gn/T//ccdKuXwe.s 			page 4


 104:../../../../dependencies/freertos/FreeRTOSv10.4.1/FreeRTOS/Source/portable/MemMang/heap_4.c **** PRIVILEGED_DATA static size_t xNumberOfSuccessfulAllocations = 0;
 105:../../../../dependencies/freertos/FreeRTOSv10.4.1/FreeRTOS/Source/portable/MemMang/heap_4.c **** PRIVILEGED_DATA static size_t xNumberOfSuccessfulFrees = 0;
 106:../../../../dependencies/freertos/FreeRTOSv10.4.1/FreeRTOS/Source/portable/MemMang/heap_4.c **** 
 107:../../../../dependencies/freertos/FreeRTOSv10.4.1/FreeRTOS/Source/portable/MemMang/heap_4.c **** /* Gets set to the top bit of an size_t type.  When this bit in the xBlockSize
 108:../../../../dependencies/freertos/FreeRTOSv10.4.1/FreeRTOS/Source/portable/MemMang/heap_4.c ****  * member of an BlockLink_t structure is set then the block belongs to the
 109:../../../../dependencies/freertos/FreeRTOSv10.4.1/FreeRTOS/Source/portable/MemMang/heap_4.c ****  * application.  When the bit is free the block is still part of the free heap
 110:../../../../dependencies/freertos/FreeRTOSv10.4.1/FreeRTOS/Source/portable/MemMang/heap_4.c ****  * space. */
 111:../../../../dependencies/freertos/FreeRTOSv10.4.1/FreeRTOS/Source/portable/MemMang/heap_4.c **** PRIVILEGED_DATA static size_t xBlockAllocatedBit = 0;
 112:../../../../dependencies/freertos/FreeRTOSv10.4.1/FreeRTOS/Source/portable/MemMang/heap_4.c **** 
 113:../../../../dependencies/freertos/FreeRTOSv10.4.1/FreeRTOS/Source/portable/MemMang/heap_4.c **** /*-----------------------------------------------------------*/
 114:../../../../dependencies/freertos/FreeRTOSv10.4.1/FreeRTOS/Source/portable/MemMang/heap_4.c **** 
 115:../../../../dependencies/freertos/FreeRTOSv10.4.1/FreeRTOS/Source/portable/MemMang/heap_4.c **** void * pvPortMalloc( size_t xWantedSize )
 116:../../../../dependencies/freertos/FreeRTOSv10.4.1/FreeRTOS/Source/portable/MemMang/heap_4.c **** {
  83              		.loc 1 116 0
  84              		.cfi_startproc
  85              		@ args = 0, pretend = 0, frame = 40
  86              		@ frame_needed = 1, uses_anonymous_args = 0
  87 0000 80B5     		push	{r7, lr}
  88              	.LCFI0:
  89              		.cfi_def_cfa_offset 8
  90              		.cfi_offset 7, -8
  91              		.cfi_offset 14, -4
  92 0002 8AB0     		sub	sp, sp, #40
  93              	.LCFI1:
  94              		.cfi_def_cfa_offset 48
  95 0004 00AF     		add	r7, sp, #0
  96              	.LCFI2:
  97              		.cfi_def_cfa_register 7
  98 0006 7860     		str	r0, [r7, #4]
 117:../../../../dependencies/freertos/FreeRTOSv10.4.1/FreeRTOS/Source/portable/MemMang/heap_4.c ****     BlockLink_t * pxBlock, * pxPreviousBlock, * pxNewBlockLink;
 118:../../../../dependencies/freertos/FreeRTOSv10.4.1/FreeRTOS/Source/portable/MemMang/heap_4.c ****     void * pvReturn = NULL;
  99              		.loc 1 118 0
 100 0008 0023     		movs	r3, #0
 101 000a FB61     		str	r3, [r7, #28]
 119:../../../../dependencies/freertos/FreeRTOSv10.4.1/FreeRTOS/Source/portable/MemMang/heap_4.c **** 
 120:../../../../dependencies/freertos/FreeRTOSv10.4.1/FreeRTOS/Source/portable/MemMang/heap_4.c ****     vTaskSuspendAll();
 102              		.loc 1 120 0
 103 000c FFF7FEFF 		bl	vTaskSuspendAll
 121:../../../../dependencies/freertos/FreeRTOSv10.4.1/FreeRTOS/Source/portable/MemMang/heap_4.c ****     {
 122:../../../../dependencies/freertos/FreeRTOSv10.4.1/FreeRTOS/Source/portable/MemMang/heap_4.c ****         /* If this is the first call to malloc then the heap will require
 123:../../../../dependencies/freertos/FreeRTOSv10.4.1/FreeRTOS/Source/portable/MemMang/heap_4.c ****          * initialisation to setup the list of free blocks. */
 124:../../../../dependencies/freertos/FreeRTOSv10.4.1/FreeRTOS/Source/portable/MemMang/heap_4.c ****         if( pxEnd == NULL )
 104              		.loc 1 124 0
 105 0010 594B     		ldr	r3, .L16
 106 0012 1B68     		ldr	r3, [r3]
 107 0014 002B     		cmp	r3, #0
 108 0016 01D1     		bne	.L2
 125:../../../../dependencies/freertos/FreeRTOSv10.4.1/FreeRTOS/Source/portable/MemMang/heap_4.c ****         {
 126:../../../../dependencies/freertos/FreeRTOSv10.4.1/FreeRTOS/Source/portable/MemMang/heap_4.c ****             prvHeapInit();
 109              		.loc 1 126 0
 110 0018 FFF7FEFF 		bl	prvHeapInit
 111              	.L2:
 127:../../../../dependencies/freertos/FreeRTOSv10.4.1/FreeRTOS/Source/portable/MemMang/heap_4.c ****         }
 128:../../../../dependencies/freertos/FreeRTOSv10.4.1/FreeRTOS/Source/portable/MemMang/heap_4.c ****         else
 129:../../../../dependencies/freertos/FreeRTOSv10.4.1/FreeRTOS/Source/portable/MemMang/heap_4.c ****         {
 130:../../../../dependencies/freertos/FreeRTOSv10.4.1/FreeRTOS/Source/portable/MemMang/heap_4.c ****             mtCOVERAGE_TEST_MARKER();
 131:../../../../dependencies/freertos/FreeRTOSv10.4.1/FreeRTOS/Source/portable/MemMang/heap_4.c ****         }
ARM GAS  /var/folders/_8/_cw6l3nd335f_j6cn6z79m4m0000gn/T//ccdKuXwe.s 			page 5


 132:../../../../dependencies/freertos/FreeRTOSv10.4.1/FreeRTOS/Source/portable/MemMang/heap_4.c **** 
 133:../../../../dependencies/freertos/FreeRTOSv10.4.1/FreeRTOS/Source/portable/MemMang/heap_4.c ****         /* Check the requested block size is not so large that the top bit is
 134:../../../../dependencies/freertos/FreeRTOSv10.4.1/FreeRTOS/Source/portable/MemMang/heap_4.c ****          * set.  The top bit of the block size member of the BlockLink_t structure
 135:../../../../dependencies/freertos/FreeRTOSv10.4.1/FreeRTOS/Source/portable/MemMang/heap_4.c ****          * is used to determine who owns the block - the application or the
 136:../../../../dependencies/freertos/FreeRTOSv10.4.1/FreeRTOS/Source/portable/MemMang/heap_4.c ****          * kernel, so it must be free. */
 137:../../../../dependencies/freertos/FreeRTOSv10.4.1/FreeRTOS/Source/portable/MemMang/heap_4.c ****         if( ( xWantedSize & xBlockAllocatedBit ) == 0 )
 112              		.loc 1 137 0
 113 001c 574B     		ldr	r3, .L16+4
 114 001e 1A68     		ldr	r2, [r3]
 115 0020 7B68     		ldr	r3, [r7, #4]
 116 0022 1340     		ands	r3, r3, r2
 117 0024 002B     		cmp	r3, #0
 118 0026 40F09180 		bne	.L3
 138:../../../../dependencies/freertos/FreeRTOSv10.4.1/FreeRTOS/Source/portable/MemMang/heap_4.c ****         {
 139:../../../../dependencies/freertos/FreeRTOSv10.4.1/FreeRTOS/Source/portable/MemMang/heap_4.c ****             /* The wanted size is increased so it can contain a BlockLink_t
 140:../../../../dependencies/freertos/FreeRTOSv10.4.1/FreeRTOS/Source/portable/MemMang/heap_4.c ****              * structure in addition to the requested amount of bytes. */
 141:../../../../dependencies/freertos/FreeRTOSv10.4.1/FreeRTOS/Source/portable/MemMang/heap_4.c ****             if( xWantedSize > 0 )
 119              		.loc 1 141 0
 120 002a 7B68     		ldr	r3, [r7, #4]
 121 002c 002B     		cmp	r3, #0
 122 002e 1CD0     		beq	.L4
 142:../../../../dependencies/freertos/FreeRTOSv10.4.1/FreeRTOS/Source/portable/MemMang/heap_4.c ****             {
 143:../../../../dependencies/freertos/FreeRTOSv10.4.1/FreeRTOS/Source/portable/MemMang/heap_4.c ****                 xWantedSize += xHeapStructSize;
 123              		.loc 1 143 0
 124 0030 0822     		movs	r2, #8
 125 0032 7B68     		ldr	r3, [r7, #4]
 126 0034 1344     		add	r3, r3, r2
 127 0036 7B60     		str	r3, [r7, #4]
 144:../../../../dependencies/freertos/FreeRTOSv10.4.1/FreeRTOS/Source/portable/MemMang/heap_4.c **** 
 145:../../../../dependencies/freertos/FreeRTOSv10.4.1/FreeRTOS/Source/portable/MemMang/heap_4.c ****                 /* Ensure that blocks are always aligned to the required number
 146:../../../../dependencies/freertos/FreeRTOSv10.4.1/FreeRTOS/Source/portable/MemMang/heap_4.c ****                  * of bytes. */
 147:../../../../dependencies/freertos/FreeRTOSv10.4.1/FreeRTOS/Source/portable/MemMang/heap_4.c ****                 if( ( xWantedSize & portBYTE_ALIGNMENT_MASK ) != 0x00 )
 128              		.loc 1 147 0
 129 0038 7B68     		ldr	r3, [r7, #4]
 130 003a 03F00703 		and	r3, r3, #7
 131 003e 002B     		cmp	r3, #0
 132 0040 13D0     		beq	.L4
 148:../../../../dependencies/freertos/FreeRTOSv10.4.1/FreeRTOS/Source/portable/MemMang/heap_4.c ****                 {
 149:../../../../dependencies/freertos/FreeRTOSv10.4.1/FreeRTOS/Source/portable/MemMang/heap_4.c ****                     /* Byte alignment required. */
 150:../../../../dependencies/freertos/FreeRTOSv10.4.1/FreeRTOS/Source/portable/MemMang/heap_4.c ****                     xWantedSize += ( portBYTE_ALIGNMENT - ( xWantedSize & portBYTE_ALIGNMENT_MASK )
 133              		.loc 1 150 0
 134 0042 7B68     		ldr	r3, [r7, #4]
 135 0044 23F00703 		bic	r3, r3, #7
 136 0048 0833     		adds	r3, r3, #8
 137 004a 7B60     		str	r3, [r7, #4]
 151:../../../../dependencies/freertos/FreeRTOSv10.4.1/FreeRTOS/Source/portable/MemMang/heap_4.c ****                     configASSERT( ( xWantedSize & portBYTE_ALIGNMENT_MASK ) == 0 );
 138              		.loc 1 151 0
 139 004c 7B68     		ldr	r3, [r7, #4]
 140 004e 03F00703 		and	r3, r3, #7
 141 0052 002B     		cmp	r3, #0
 142 0054 09D0     		beq	.L4
 143              	.LBB12:
 144              	.LBB13:
 145              		.file 2 "../../../../dependencies/freertos/FreeRTOSv10.4.1/FreeRTOS/Source/portable/GCC/ARM_CM4F/p
   1:../../../../dependencies/freertos/FreeRTOSv10.4.1/FreeRTOS/Source/portable/GCC/ARM_CM4F/portmacro.h **** /*
   2:../../../../dependencies/freertos/FreeRTOSv10.4.1/FreeRTOS/Source/portable/GCC/ARM_CM4F/portmacro.h ****  * FreeRTOS Kernel V10.4.1
   3:../../../../dependencies/freertos/FreeRTOSv10.4.1/FreeRTOS/Source/portable/GCC/ARM_CM4F/portmacro.h ****  * Copyright (C) 2020 Amazon.com, Inc. or its affiliates.  All Rights Reserved.
ARM GAS  /var/folders/_8/_cw6l3nd335f_j6cn6z79m4m0000gn/T//ccdKuXwe.s 			page 6


   4:../../../../dependencies/freertos/FreeRTOSv10.4.1/FreeRTOS/Source/portable/GCC/ARM_CM4F/portmacro.h ****  *
   5:../../../../dependencies/freertos/FreeRTOSv10.4.1/FreeRTOS/Source/portable/GCC/ARM_CM4F/portmacro.h ****  * Permission is hereby granted, free of charge, to any person obtaining a copy of
   6:../../../../dependencies/freertos/FreeRTOSv10.4.1/FreeRTOS/Source/portable/GCC/ARM_CM4F/portmacro.h ****  * this software and associated documentation files (the "Software"), to deal in
   7:../../../../dependencies/freertos/FreeRTOSv10.4.1/FreeRTOS/Source/portable/GCC/ARM_CM4F/portmacro.h ****  * the Software without restriction, including without limitation the rights to
   8:../../../../dependencies/freertos/FreeRTOSv10.4.1/FreeRTOS/Source/portable/GCC/ARM_CM4F/portmacro.h ****  * use, copy, modify, merge, publish, distribute, sublicense, and/or sell copies of
   9:../../../../dependencies/freertos/FreeRTOSv10.4.1/FreeRTOS/Source/portable/GCC/ARM_CM4F/portmacro.h ****  * the Software, and to permit persons to whom the Software is furnished to do so,
  10:../../../../dependencies/freertos/FreeRTOSv10.4.1/FreeRTOS/Source/portable/GCC/ARM_CM4F/portmacro.h ****  * subject to the following conditions:
  11:../../../../dependencies/freertos/FreeRTOSv10.4.1/FreeRTOS/Source/portable/GCC/ARM_CM4F/portmacro.h ****  *
  12:../../../../dependencies/freertos/FreeRTOSv10.4.1/FreeRTOS/Source/portable/GCC/ARM_CM4F/portmacro.h ****  * The above copyright notice and this permission notice shall be included in all
  13:../../../../dependencies/freertos/FreeRTOSv10.4.1/FreeRTOS/Source/portable/GCC/ARM_CM4F/portmacro.h ****  * copies or substantial portions of the Software.
  14:../../../../dependencies/freertos/FreeRTOSv10.4.1/FreeRTOS/Source/portable/GCC/ARM_CM4F/portmacro.h ****  *
  15:../../../../dependencies/freertos/FreeRTOSv10.4.1/FreeRTOS/Source/portable/GCC/ARM_CM4F/portmacro.h ****  * THE SOFTWARE IS PROVIDED "AS IS", WITHOUT WARRANTY OF ANY KIND, EXPRESS OR
  16:../../../../dependencies/freertos/FreeRTOSv10.4.1/FreeRTOS/Source/portable/GCC/ARM_CM4F/portmacro.h ****  * IMPLIED, INCLUDING BUT NOT LIMITED TO THE WARRANTIES OF MERCHANTABILITY, FITNESS
  17:../../../../dependencies/freertos/FreeRTOSv10.4.1/FreeRTOS/Source/portable/GCC/ARM_CM4F/portmacro.h ****  * FOR A PARTICULAR PURPOSE AND NONINFRINGEMENT. IN NO EVENT SHALL THE AUTHORS OR
  18:../../../../dependencies/freertos/FreeRTOSv10.4.1/FreeRTOS/Source/portable/GCC/ARM_CM4F/portmacro.h ****  * COPYRIGHT HOLDERS BE LIABLE FOR ANY CLAIM, DAMAGES OR OTHER LIABILITY, WHETHER
  19:../../../../dependencies/freertos/FreeRTOSv10.4.1/FreeRTOS/Source/portable/GCC/ARM_CM4F/portmacro.h ****  * IN AN ACTION OF CONTRACT, TORT OR OTHERWISE, ARISING FROM, OUT OF OR IN
  20:../../../../dependencies/freertos/FreeRTOSv10.4.1/FreeRTOS/Source/portable/GCC/ARM_CM4F/portmacro.h ****  * CONNECTION WITH THE SOFTWARE OR THE USE OR OTHER DEALINGS IN THE SOFTWARE.
  21:../../../../dependencies/freertos/FreeRTOSv10.4.1/FreeRTOS/Source/portable/GCC/ARM_CM4F/portmacro.h ****  *
  22:../../../../dependencies/freertos/FreeRTOSv10.4.1/FreeRTOS/Source/portable/GCC/ARM_CM4F/portmacro.h ****  * https://www.FreeRTOS.org
  23:../../../../dependencies/freertos/FreeRTOSv10.4.1/FreeRTOS/Source/portable/GCC/ARM_CM4F/portmacro.h ****  * https://github.com/FreeRTOS
  24:../../../../dependencies/freertos/FreeRTOSv10.4.1/FreeRTOS/Source/portable/GCC/ARM_CM4F/portmacro.h ****  *
  25:../../../../dependencies/freertos/FreeRTOSv10.4.1/FreeRTOS/Source/portable/GCC/ARM_CM4F/portmacro.h ****  * 1 tab == 4 spaces!
  26:../../../../dependencies/freertos/FreeRTOSv10.4.1/FreeRTOS/Source/portable/GCC/ARM_CM4F/portmacro.h ****  */
  27:../../../../dependencies/freertos/FreeRTOSv10.4.1/FreeRTOS/Source/portable/GCC/ARM_CM4F/portmacro.h **** 
  28:../../../../dependencies/freertos/FreeRTOSv10.4.1/FreeRTOS/Source/portable/GCC/ARM_CM4F/portmacro.h **** 
  29:../../../../dependencies/freertos/FreeRTOSv10.4.1/FreeRTOS/Source/portable/GCC/ARM_CM4F/portmacro.h **** #ifndef PORTMACRO_H
  30:../../../../dependencies/freertos/FreeRTOSv10.4.1/FreeRTOS/Source/portable/GCC/ARM_CM4F/portmacro.h ****     #define PORTMACRO_H
  31:../../../../dependencies/freertos/FreeRTOSv10.4.1/FreeRTOS/Source/portable/GCC/ARM_CM4F/portmacro.h **** 
  32:../../../../dependencies/freertos/FreeRTOSv10.4.1/FreeRTOS/Source/portable/GCC/ARM_CM4F/portmacro.h ****     #ifdef __cplusplus
  33:../../../../dependencies/freertos/FreeRTOSv10.4.1/FreeRTOS/Source/portable/GCC/ARM_CM4F/portmacro.h ****         extern "C" {
  34:../../../../dependencies/freertos/FreeRTOSv10.4.1/FreeRTOS/Source/portable/GCC/ARM_CM4F/portmacro.h ****     #endif
  35:../../../../dependencies/freertos/FreeRTOSv10.4.1/FreeRTOS/Source/portable/GCC/ARM_CM4F/portmacro.h **** 
  36:../../../../dependencies/freertos/FreeRTOSv10.4.1/FreeRTOS/Source/portable/GCC/ARM_CM4F/portmacro.h **** /*-----------------------------------------------------------
  37:../../../../dependencies/freertos/FreeRTOSv10.4.1/FreeRTOS/Source/portable/GCC/ARM_CM4F/portmacro.h ****  * Port specific definitions.
  38:../../../../dependencies/freertos/FreeRTOSv10.4.1/FreeRTOS/Source/portable/GCC/ARM_CM4F/portmacro.h ****  *
  39:../../../../dependencies/freertos/FreeRTOSv10.4.1/FreeRTOS/Source/portable/GCC/ARM_CM4F/portmacro.h ****  * The settings in this file configure FreeRTOS correctly for the
  40:../../../../dependencies/freertos/FreeRTOSv10.4.1/FreeRTOS/Source/portable/GCC/ARM_CM4F/portmacro.h ****  * given hardware and compiler.
  41:../../../../dependencies/freertos/FreeRTOSv10.4.1/FreeRTOS/Source/portable/GCC/ARM_CM4F/portmacro.h ****  *
  42:../../../../dependencies/freertos/FreeRTOSv10.4.1/FreeRTOS/Source/portable/GCC/ARM_CM4F/portmacro.h ****  * These settings should not be altered.
  43:../../../../dependencies/freertos/FreeRTOSv10.4.1/FreeRTOS/Source/portable/GCC/ARM_CM4F/portmacro.h ****  *-----------------------------------------------------------
  44:../../../../dependencies/freertos/FreeRTOSv10.4.1/FreeRTOS/Source/portable/GCC/ARM_CM4F/portmacro.h ****  */
  45:../../../../dependencies/freertos/FreeRTOSv10.4.1/FreeRTOS/Source/portable/GCC/ARM_CM4F/portmacro.h **** 
  46:../../../../dependencies/freertos/FreeRTOSv10.4.1/FreeRTOS/Source/portable/GCC/ARM_CM4F/portmacro.h **** /* Type definitions. */
  47:../../../../dependencies/freertos/FreeRTOSv10.4.1/FreeRTOS/Source/portable/GCC/ARM_CM4F/portmacro.h ****     #define portCHAR          char
  48:../../../../dependencies/freertos/FreeRTOSv10.4.1/FreeRTOS/Source/portable/GCC/ARM_CM4F/portmacro.h ****     #define portFLOAT         float
  49:../../../../dependencies/freertos/FreeRTOSv10.4.1/FreeRTOS/Source/portable/GCC/ARM_CM4F/portmacro.h ****     #define portDOUBLE        double
  50:../../../../dependencies/freertos/FreeRTOSv10.4.1/FreeRTOS/Source/portable/GCC/ARM_CM4F/portmacro.h ****     #define portLONG          long
  51:../../../../dependencies/freertos/FreeRTOSv10.4.1/FreeRTOS/Source/portable/GCC/ARM_CM4F/portmacro.h ****     #define portSHORT         short
  52:../../../../dependencies/freertos/FreeRTOSv10.4.1/FreeRTOS/Source/portable/GCC/ARM_CM4F/portmacro.h ****     #define portSTACK_TYPE    uint32_t
  53:../../../../dependencies/freertos/FreeRTOSv10.4.1/FreeRTOS/Source/portable/GCC/ARM_CM4F/portmacro.h ****     #define portBASE_TYPE     long
  54:../../../../dependencies/freertos/FreeRTOSv10.4.1/FreeRTOS/Source/portable/GCC/ARM_CM4F/portmacro.h **** 
  55:../../../../dependencies/freertos/FreeRTOSv10.4.1/FreeRTOS/Source/portable/GCC/ARM_CM4F/portmacro.h ****     typedef portSTACK_TYPE   StackType_t;
  56:../../../../dependencies/freertos/FreeRTOSv10.4.1/FreeRTOS/Source/portable/GCC/ARM_CM4F/portmacro.h ****     typedef long             BaseType_t;
  57:../../../../dependencies/freertos/FreeRTOSv10.4.1/FreeRTOS/Source/portable/GCC/ARM_CM4F/portmacro.h ****     typedef unsigned long    UBaseType_t;
  58:../../../../dependencies/freertos/FreeRTOSv10.4.1/FreeRTOS/Source/portable/GCC/ARM_CM4F/portmacro.h **** 
  59:../../../../dependencies/freertos/FreeRTOSv10.4.1/FreeRTOS/Source/portable/GCC/ARM_CM4F/portmacro.h ****     #if ( configUSE_16_BIT_TICKS == 1 )
  60:../../../../dependencies/freertos/FreeRTOSv10.4.1/FreeRTOS/Source/portable/GCC/ARM_CM4F/portmacro.h ****         typedef uint16_t     TickType_t;
ARM GAS  /var/folders/_8/_cw6l3nd335f_j6cn6z79m4m0000gn/T//ccdKuXwe.s 			page 7


  61:../../../../dependencies/freertos/FreeRTOSv10.4.1/FreeRTOS/Source/portable/GCC/ARM_CM4F/portmacro.h ****         #define portMAX_DELAY              ( TickType_t ) 0xffff
  62:../../../../dependencies/freertos/FreeRTOSv10.4.1/FreeRTOS/Source/portable/GCC/ARM_CM4F/portmacro.h ****     #else
  63:../../../../dependencies/freertos/FreeRTOSv10.4.1/FreeRTOS/Source/portable/GCC/ARM_CM4F/portmacro.h ****         typedef uint32_t     TickType_t;
  64:../../../../dependencies/freertos/FreeRTOSv10.4.1/FreeRTOS/Source/portable/GCC/ARM_CM4F/portmacro.h ****         #define portMAX_DELAY              ( TickType_t ) 0xffffffffUL
  65:../../../../dependencies/freertos/FreeRTOSv10.4.1/FreeRTOS/Source/portable/GCC/ARM_CM4F/portmacro.h **** 
  66:../../../../dependencies/freertos/FreeRTOSv10.4.1/FreeRTOS/Source/portable/GCC/ARM_CM4F/portmacro.h **** /* 32-bit tick type on a 32-bit architecture, so reads of the tick count do
  67:../../../../dependencies/freertos/FreeRTOSv10.4.1/FreeRTOS/Source/portable/GCC/ARM_CM4F/portmacro.h ****  * not need to be guarded with a critical section. */
  68:../../../../dependencies/freertos/FreeRTOSv10.4.1/FreeRTOS/Source/portable/GCC/ARM_CM4F/portmacro.h ****         #define portTICK_TYPE_IS_ATOMIC    1
  69:../../../../dependencies/freertos/FreeRTOSv10.4.1/FreeRTOS/Source/portable/GCC/ARM_CM4F/portmacro.h ****     #endif
  70:../../../../dependencies/freertos/FreeRTOSv10.4.1/FreeRTOS/Source/portable/GCC/ARM_CM4F/portmacro.h **** /*-----------------------------------------------------------*/
  71:../../../../dependencies/freertos/FreeRTOSv10.4.1/FreeRTOS/Source/portable/GCC/ARM_CM4F/portmacro.h **** 
  72:../../../../dependencies/freertos/FreeRTOSv10.4.1/FreeRTOS/Source/portable/GCC/ARM_CM4F/portmacro.h **** /* Architecture specifics. */
  73:../../../../dependencies/freertos/FreeRTOSv10.4.1/FreeRTOS/Source/portable/GCC/ARM_CM4F/portmacro.h ****     #define portSTACK_GROWTH      ( -1 )
  74:../../../../dependencies/freertos/FreeRTOSv10.4.1/FreeRTOS/Source/portable/GCC/ARM_CM4F/portmacro.h ****     #define portTICK_PERIOD_MS    ( ( TickType_t ) 1000 / configTICK_RATE_HZ )
  75:../../../../dependencies/freertos/FreeRTOSv10.4.1/FreeRTOS/Source/portable/GCC/ARM_CM4F/portmacro.h ****     #define portBYTE_ALIGNMENT    8
  76:../../../../dependencies/freertos/FreeRTOSv10.4.1/FreeRTOS/Source/portable/GCC/ARM_CM4F/portmacro.h ****     #define portDONT_DISCARD      __attribute__( ( used ) )
  77:../../../../dependencies/freertos/FreeRTOSv10.4.1/FreeRTOS/Source/portable/GCC/ARM_CM4F/portmacro.h **** /*-----------------------------------------------------------*/
  78:../../../../dependencies/freertos/FreeRTOSv10.4.1/FreeRTOS/Source/portable/GCC/ARM_CM4F/portmacro.h **** 
  79:../../../../dependencies/freertos/FreeRTOSv10.4.1/FreeRTOS/Source/portable/GCC/ARM_CM4F/portmacro.h **** /* Scheduler utilities. */
  80:../../../../dependencies/freertos/FreeRTOSv10.4.1/FreeRTOS/Source/portable/GCC/ARM_CM4F/portmacro.h ****     #define portYIELD()                                 \
  81:../../../../dependencies/freertos/FreeRTOSv10.4.1/FreeRTOS/Source/portable/GCC/ARM_CM4F/portmacro.h ****     {                                                   \
  82:../../../../dependencies/freertos/FreeRTOSv10.4.1/FreeRTOS/Source/portable/GCC/ARM_CM4F/portmacro.h ****         /* Set a PendSV to request a context switch. */ \
  83:../../../../dependencies/freertos/FreeRTOSv10.4.1/FreeRTOS/Source/portable/GCC/ARM_CM4F/portmacro.h ****         portNVIC_INT_CTRL_REG = portNVIC_PENDSVSET_BIT; \
  84:../../../../dependencies/freertos/FreeRTOSv10.4.1/FreeRTOS/Source/portable/GCC/ARM_CM4F/portmacro.h ****                                                         \
  85:../../../../dependencies/freertos/FreeRTOSv10.4.1/FreeRTOS/Source/portable/GCC/ARM_CM4F/portmacro.h ****         /* Barriers are normally not required but do ensure the code is completely \
  86:../../../../dependencies/freertos/FreeRTOSv10.4.1/FreeRTOS/Source/portable/GCC/ARM_CM4F/portmacro.h ****          * within the specified behaviour for the architecture. */ \
  87:../../../../dependencies/freertos/FreeRTOSv10.4.1/FreeRTOS/Source/portable/GCC/ARM_CM4F/portmacro.h ****         __asm volatile ( "dsb" ::: "memory" );                     \
  88:../../../../dependencies/freertos/FreeRTOSv10.4.1/FreeRTOS/Source/portable/GCC/ARM_CM4F/portmacro.h ****         __asm volatile ( "isb" );                                  \
  89:../../../../dependencies/freertos/FreeRTOSv10.4.1/FreeRTOS/Source/portable/GCC/ARM_CM4F/portmacro.h ****     }
  90:../../../../dependencies/freertos/FreeRTOSv10.4.1/FreeRTOS/Source/portable/GCC/ARM_CM4F/portmacro.h **** 
  91:../../../../dependencies/freertos/FreeRTOSv10.4.1/FreeRTOS/Source/portable/GCC/ARM_CM4F/portmacro.h ****     #define portNVIC_INT_CTRL_REG     ( *( ( volatile uint32_t * ) 0xe000ed04 ) )
  92:../../../../dependencies/freertos/FreeRTOSv10.4.1/FreeRTOS/Source/portable/GCC/ARM_CM4F/portmacro.h ****     #define portNVIC_PENDSVSET_BIT    ( 1UL << 28UL )
  93:../../../../dependencies/freertos/FreeRTOSv10.4.1/FreeRTOS/Source/portable/GCC/ARM_CM4F/portmacro.h ****     #define portEND_SWITCHING_ISR( xSwitchRequired )    if( xSwitchRequired != pdFALSE ) portYIELD(
  94:../../../../dependencies/freertos/FreeRTOSv10.4.1/FreeRTOS/Source/portable/GCC/ARM_CM4F/portmacro.h ****     #define portYIELD_FROM_ISR( x )                     portEND_SWITCHING_ISR( x )
  95:../../../../dependencies/freertos/FreeRTOSv10.4.1/FreeRTOS/Source/portable/GCC/ARM_CM4F/portmacro.h **** /*-----------------------------------------------------------*/
  96:../../../../dependencies/freertos/FreeRTOSv10.4.1/FreeRTOS/Source/portable/GCC/ARM_CM4F/portmacro.h **** 
  97:../../../../dependencies/freertos/FreeRTOSv10.4.1/FreeRTOS/Source/portable/GCC/ARM_CM4F/portmacro.h **** /* Critical section management. */
  98:../../../../dependencies/freertos/FreeRTOSv10.4.1/FreeRTOS/Source/portable/GCC/ARM_CM4F/portmacro.h ****     extern void vPortEnterCritical( void );
  99:../../../../dependencies/freertos/FreeRTOSv10.4.1/FreeRTOS/Source/portable/GCC/ARM_CM4F/portmacro.h ****     extern void vPortExitCritical( void );
 100:../../../../dependencies/freertos/FreeRTOSv10.4.1/FreeRTOS/Source/portable/GCC/ARM_CM4F/portmacro.h ****     #define portSET_INTERRUPT_MASK_FROM_ISR()         ulPortRaiseBASEPRI()
 101:../../../../dependencies/freertos/FreeRTOSv10.4.1/FreeRTOS/Source/portable/GCC/ARM_CM4F/portmacro.h ****     #define portCLEAR_INTERRUPT_MASK_FROM_ISR( x )    vPortSetBASEPRI( x )
 102:../../../../dependencies/freertos/FreeRTOSv10.4.1/FreeRTOS/Source/portable/GCC/ARM_CM4F/portmacro.h ****     #define portDISABLE_INTERRUPTS()                  vPortRaiseBASEPRI()
 103:../../../../dependencies/freertos/FreeRTOSv10.4.1/FreeRTOS/Source/portable/GCC/ARM_CM4F/portmacro.h ****     #define portENABLE_INTERRUPTS()                   vPortSetBASEPRI( 0 )
 104:../../../../dependencies/freertos/FreeRTOSv10.4.1/FreeRTOS/Source/portable/GCC/ARM_CM4F/portmacro.h ****     #define portENTER_CRITICAL()                      vPortEnterCritical()
 105:../../../../dependencies/freertos/FreeRTOSv10.4.1/FreeRTOS/Source/portable/GCC/ARM_CM4F/portmacro.h ****     #define portEXIT_CRITICAL()                       vPortExitCritical()
 106:../../../../dependencies/freertos/FreeRTOSv10.4.1/FreeRTOS/Source/portable/GCC/ARM_CM4F/portmacro.h **** 
 107:../../../../dependencies/freertos/FreeRTOSv10.4.1/FreeRTOS/Source/portable/GCC/ARM_CM4F/portmacro.h **** /*-----------------------------------------------------------*/
 108:../../../../dependencies/freertos/FreeRTOSv10.4.1/FreeRTOS/Source/portable/GCC/ARM_CM4F/portmacro.h **** 
 109:../../../../dependencies/freertos/FreeRTOSv10.4.1/FreeRTOS/Source/portable/GCC/ARM_CM4F/portmacro.h **** /* Task function macros as described on the FreeRTOS.org WEB site.  These are
 110:../../../../dependencies/freertos/FreeRTOSv10.4.1/FreeRTOS/Source/portable/GCC/ARM_CM4F/portmacro.h ****  * not necessary for to use this port.  They are defined so the common demo files
 111:../../../../dependencies/freertos/FreeRTOSv10.4.1/FreeRTOS/Source/portable/GCC/ARM_CM4F/portmacro.h ****  * (which build with all the ports) will build. */
 112:../../../../dependencies/freertos/FreeRTOSv10.4.1/FreeRTOS/Source/portable/GCC/ARM_CM4F/portmacro.h ****     #define portTASK_FUNCTION_PROTO( vFunction, pvParameters )    void vFunction( void * pvParamete
 113:../../../../dependencies/freertos/FreeRTOSv10.4.1/FreeRTOS/Source/portable/GCC/ARM_CM4F/portmacro.h ****     #define portTASK_FUNCTION( vFunction, pvParameters )          void vFunction( void * pvParamete
 114:../../../../dependencies/freertos/FreeRTOSv10.4.1/FreeRTOS/Source/portable/GCC/ARM_CM4F/portmacro.h **** /*-----------------------------------------------------------*/
 115:../../../../dependencies/freertos/FreeRTOSv10.4.1/FreeRTOS/Source/portable/GCC/ARM_CM4F/portmacro.h **** 
 116:../../../../dependencies/freertos/FreeRTOSv10.4.1/FreeRTOS/Source/portable/GCC/ARM_CM4F/portmacro.h **** /* Tickless idle/low power functionality. */
 117:../../../../dependencies/freertos/FreeRTOSv10.4.1/FreeRTOS/Source/portable/GCC/ARM_CM4F/portmacro.h ****     #ifndef portSUPPRESS_TICKS_AND_SLEEP
ARM GAS  /var/folders/_8/_cw6l3nd335f_j6cn6z79m4m0000gn/T//ccdKuXwe.s 			page 8


 118:../../../../dependencies/freertos/FreeRTOSv10.4.1/FreeRTOS/Source/portable/GCC/ARM_CM4F/portmacro.h ****         extern void vPortSuppressTicksAndSleep( TickType_t xExpectedIdleTime );
 119:../../../../dependencies/freertos/FreeRTOSv10.4.1/FreeRTOS/Source/portable/GCC/ARM_CM4F/portmacro.h ****         #define portSUPPRESS_TICKS_AND_SLEEP( xExpectedIdleTime )    vPortSuppressTicksAndSleep( xE
 120:../../../../dependencies/freertos/FreeRTOSv10.4.1/FreeRTOS/Source/portable/GCC/ARM_CM4F/portmacro.h ****     #endif
 121:../../../../dependencies/freertos/FreeRTOSv10.4.1/FreeRTOS/Source/portable/GCC/ARM_CM4F/portmacro.h **** /*-----------------------------------------------------------*/
 122:../../../../dependencies/freertos/FreeRTOSv10.4.1/FreeRTOS/Source/portable/GCC/ARM_CM4F/portmacro.h **** 
 123:../../../../dependencies/freertos/FreeRTOSv10.4.1/FreeRTOS/Source/portable/GCC/ARM_CM4F/portmacro.h **** /* Architecture specific optimisations. */
 124:../../../../dependencies/freertos/FreeRTOSv10.4.1/FreeRTOS/Source/portable/GCC/ARM_CM4F/portmacro.h ****     #ifndef configUSE_PORT_OPTIMISED_TASK_SELECTION
 125:../../../../dependencies/freertos/FreeRTOSv10.4.1/FreeRTOS/Source/portable/GCC/ARM_CM4F/portmacro.h ****         #define configUSE_PORT_OPTIMISED_TASK_SELECTION    1
 126:../../../../dependencies/freertos/FreeRTOSv10.4.1/FreeRTOS/Source/portable/GCC/ARM_CM4F/portmacro.h ****     #endif
 127:../../../../dependencies/freertos/FreeRTOSv10.4.1/FreeRTOS/Source/portable/GCC/ARM_CM4F/portmacro.h **** 
 128:../../../../dependencies/freertos/FreeRTOSv10.4.1/FreeRTOS/Source/portable/GCC/ARM_CM4F/portmacro.h ****     #if configUSE_PORT_OPTIMISED_TASK_SELECTION == 1
 129:../../../../dependencies/freertos/FreeRTOSv10.4.1/FreeRTOS/Source/portable/GCC/ARM_CM4F/portmacro.h **** 
 130:../../../../dependencies/freertos/FreeRTOSv10.4.1/FreeRTOS/Source/portable/GCC/ARM_CM4F/portmacro.h **** /* Generic helper function. */
 131:../../../../dependencies/freertos/FreeRTOSv10.4.1/FreeRTOS/Source/portable/GCC/ARM_CM4F/portmacro.h ****         __attribute__( ( always_inline ) ) static inline uint8_t ucPortCountLeadingZeros( uint32_t 
 132:../../../../dependencies/freertos/FreeRTOSv10.4.1/FreeRTOS/Source/portable/GCC/ARM_CM4F/portmacro.h ****         {
 133:../../../../dependencies/freertos/FreeRTOSv10.4.1/FreeRTOS/Source/portable/GCC/ARM_CM4F/portmacro.h ****             uint8_t ucReturn;
 134:../../../../dependencies/freertos/FreeRTOSv10.4.1/FreeRTOS/Source/portable/GCC/ARM_CM4F/portmacro.h **** 
 135:../../../../dependencies/freertos/FreeRTOSv10.4.1/FreeRTOS/Source/portable/GCC/ARM_CM4F/portmacro.h ****             __asm volatile ( "clz %0, %1" : "=r" ( ucReturn ) : "r" ( ulBitmap ) : "memory" );
 136:../../../../dependencies/freertos/FreeRTOSv10.4.1/FreeRTOS/Source/portable/GCC/ARM_CM4F/portmacro.h **** 
 137:../../../../dependencies/freertos/FreeRTOSv10.4.1/FreeRTOS/Source/portable/GCC/ARM_CM4F/portmacro.h ****             return ucReturn;
 138:../../../../dependencies/freertos/FreeRTOSv10.4.1/FreeRTOS/Source/portable/GCC/ARM_CM4F/portmacro.h ****         }
 139:../../../../dependencies/freertos/FreeRTOSv10.4.1/FreeRTOS/Source/portable/GCC/ARM_CM4F/portmacro.h **** 
 140:../../../../dependencies/freertos/FreeRTOSv10.4.1/FreeRTOS/Source/portable/GCC/ARM_CM4F/portmacro.h **** /* Check the configuration. */
 141:../../../../dependencies/freertos/FreeRTOSv10.4.1/FreeRTOS/Source/portable/GCC/ARM_CM4F/portmacro.h ****         #if ( configMAX_PRIORITIES > 32 )
 142:../../../../dependencies/freertos/FreeRTOSv10.4.1/FreeRTOS/Source/portable/GCC/ARM_CM4F/portmacro.h ****             #error configUSE_PORT_OPTIMISED_TASK_SELECTION can only be set to 1 when configMAX_PRIO
 143:../../../../dependencies/freertos/FreeRTOSv10.4.1/FreeRTOS/Source/portable/GCC/ARM_CM4F/portmacro.h ****         #endif
 144:../../../../dependencies/freertos/FreeRTOSv10.4.1/FreeRTOS/Source/portable/GCC/ARM_CM4F/portmacro.h **** 
 145:../../../../dependencies/freertos/FreeRTOSv10.4.1/FreeRTOS/Source/portable/GCC/ARM_CM4F/portmacro.h **** /* Store/clear the ready priorities in a bit map. */
 146:../../../../dependencies/freertos/FreeRTOSv10.4.1/FreeRTOS/Source/portable/GCC/ARM_CM4F/portmacro.h ****         #define portRECORD_READY_PRIORITY( uxPriority, uxReadyPriorities )    ( uxReadyPriorities )
 147:../../../../dependencies/freertos/FreeRTOSv10.4.1/FreeRTOS/Source/portable/GCC/ARM_CM4F/portmacro.h ****         #define portRESET_READY_PRIORITY( uxPriority, uxReadyPriorities )     ( uxReadyPriorities )
 148:../../../../dependencies/freertos/FreeRTOSv10.4.1/FreeRTOS/Source/portable/GCC/ARM_CM4F/portmacro.h **** 
 149:../../../../dependencies/freertos/FreeRTOSv10.4.1/FreeRTOS/Source/portable/GCC/ARM_CM4F/portmacro.h **** /*-----------------------------------------------------------*/
 150:../../../../dependencies/freertos/FreeRTOSv10.4.1/FreeRTOS/Source/portable/GCC/ARM_CM4F/portmacro.h **** 
 151:../../../../dependencies/freertos/FreeRTOSv10.4.1/FreeRTOS/Source/portable/GCC/ARM_CM4F/portmacro.h ****         #define portGET_HIGHEST_PRIORITY( uxTopPriority, uxReadyPriorities )    uxTopPriority = ( 3
 152:../../../../dependencies/freertos/FreeRTOSv10.4.1/FreeRTOS/Source/portable/GCC/ARM_CM4F/portmacro.h **** 
 153:../../../../dependencies/freertos/FreeRTOSv10.4.1/FreeRTOS/Source/portable/GCC/ARM_CM4F/portmacro.h ****     #endif /* configUSE_PORT_OPTIMISED_TASK_SELECTION */
 154:../../../../dependencies/freertos/FreeRTOSv10.4.1/FreeRTOS/Source/portable/GCC/ARM_CM4F/portmacro.h **** 
 155:../../../../dependencies/freertos/FreeRTOSv10.4.1/FreeRTOS/Source/portable/GCC/ARM_CM4F/portmacro.h **** /*-----------------------------------------------------------*/
 156:../../../../dependencies/freertos/FreeRTOSv10.4.1/FreeRTOS/Source/portable/GCC/ARM_CM4F/portmacro.h **** 
 157:../../../../dependencies/freertos/FreeRTOSv10.4.1/FreeRTOS/Source/portable/GCC/ARM_CM4F/portmacro.h ****     #ifdef configASSERT
 158:../../../../dependencies/freertos/FreeRTOSv10.4.1/FreeRTOS/Source/portable/GCC/ARM_CM4F/portmacro.h ****         void vPortValidateInterruptPriority( void );
 159:../../../../dependencies/freertos/FreeRTOSv10.4.1/FreeRTOS/Source/portable/GCC/ARM_CM4F/portmacro.h ****         #define portASSERT_IF_INTERRUPT_PRIORITY_INVALID()    vPortValidateInterruptPriority()
 160:../../../../dependencies/freertos/FreeRTOSv10.4.1/FreeRTOS/Source/portable/GCC/ARM_CM4F/portmacro.h ****     #endif
 161:../../../../dependencies/freertos/FreeRTOSv10.4.1/FreeRTOS/Source/portable/GCC/ARM_CM4F/portmacro.h **** 
 162:../../../../dependencies/freertos/FreeRTOSv10.4.1/FreeRTOS/Source/portable/GCC/ARM_CM4F/portmacro.h **** /* portNOP() is not required by this port. */
 163:../../../../dependencies/freertos/FreeRTOSv10.4.1/FreeRTOS/Source/portable/GCC/ARM_CM4F/portmacro.h ****     #define portNOP()
 164:../../../../dependencies/freertos/FreeRTOSv10.4.1/FreeRTOS/Source/portable/GCC/ARM_CM4F/portmacro.h **** 
 165:../../../../dependencies/freertos/FreeRTOSv10.4.1/FreeRTOS/Source/portable/GCC/ARM_CM4F/portmacro.h ****     #define portINLINE              __inline
 166:../../../../dependencies/freertos/FreeRTOSv10.4.1/FreeRTOS/Source/portable/GCC/ARM_CM4F/portmacro.h **** 
 167:../../../../dependencies/freertos/FreeRTOSv10.4.1/FreeRTOS/Source/portable/GCC/ARM_CM4F/portmacro.h ****     #ifndef portFORCE_INLINE
 168:../../../../dependencies/freertos/FreeRTOSv10.4.1/FreeRTOS/Source/portable/GCC/ARM_CM4F/portmacro.h ****         #define portFORCE_INLINE    inline __attribute__( ( always_inline ) )
 169:../../../../dependencies/freertos/FreeRTOSv10.4.1/FreeRTOS/Source/portable/GCC/ARM_CM4F/portmacro.h ****     #endif
 170:../../../../dependencies/freertos/FreeRTOSv10.4.1/FreeRTOS/Source/portable/GCC/ARM_CM4F/portmacro.h **** 
 171:../../../../dependencies/freertos/FreeRTOSv10.4.1/FreeRTOS/Source/portable/GCC/ARM_CM4F/portmacro.h ****     portFORCE_INLINE static BaseType_t xPortIsInsideInterrupt( void )
 172:../../../../dependencies/freertos/FreeRTOSv10.4.1/FreeRTOS/Source/portable/GCC/ARM_CM4F/portmacro.h ****     {
 173:../../../../dependencies/freertos/FreeRTOSv10.4.1/FreeRTOS/Source/portable/GCC/ARM_CM4F/portmacro.h ****         uint32_t ulCurrentInterrupt;
 174:../../../../dependencies/freertos/FreeRTOSv10.4.1/FreeRTOS/Source/portable/GCC/ARM_CM4F/portmacro.h ****         BaseType_t xReturn;
ARM GAS  /var/folders/_8/_cw6l3nd335f_j6cn6z79m4m0000gn/T//ccdKuXwe.s 			page 9


 175:../../../../dependencies/freertos/FreeRTOSv10.4.1/FreeRTOS/Source/portable/GCC/ARM_CM4F/portmacro.h **** 
 176:../../../../dependencies/freertos/FreeRTOSv10.4.1/FreeRTOS/Source/portable/GCC/ARM_CM4F/portmacro.h ****         /* Obtain the number of the currently executing interrupt. */
 177:../../../../dependencies/freertos/FreeRTOSv10.4.1/FreeRTOS/Source/portable/GCC/ARM_CM4F/portmacro.h ****         __asm volatile ( "mrs %0, ipsr" : "=r" ( ulCurrentInterrupt )::"memory" );
 178:../../../../dependencies/freertos/FreeRTOSv10.4.1/FreeRTOS/Source/portable/GCC/ARM_CM4F/portmacro.h **** 
 179:../../../../dependencies/freertos/FreeRTOSv10.4.1/FreeRTOS/Source/portable/GCC/ARM_CM4F/portmacro.h ****         if( ulCurrentInterrupt == 0 )
 180:../../../../dependencies/freertos/FreeRTOSv10.4.1/FreeRTOS/Source/portable/GCC/ARM_CM4F/portmacro.h ****         {
 181:../../../../dependencies/freertos/FreeRTOSv10.4.1/FreeRTOS/Source/portable/GCC/ARM_CM4F/portmacro.h ****             xReturn = pdFALSE;
 182:../../../../dependencies/freertos/FreeRTOSv10.4.1/FreeRTOS/Source/portable/GCC/ARM_CM4F/portmacro.h ****         }
 183:../../../../dependencies/freertos/FreeRTOSv10.4.1/FreeRTOS/Source/portable/GCC/ARM_CM4F/portmacro.h ****         else
 184:../../../../dependencies/freertos/FreeRTOSv10.4.1/FreeRTOS/Source/portable/GCC/ARM_CM4F/portmacro.h ****         {
 185:../../../../dependencies/freertos/FreeRTOSv10.4.1/FreeRTOS/Source/portable/GCC/ARM_CM4F/portmacro.h ****             xReturn = pdTRUE;
 186:../../../../dependencies/freertos/FreeRTOSv10.4.1/FreeRTOS/Source/portable/GCC/ARM_CM4F/portmacro.h ****         }
 187:../../../../dependencies/freertos/FreeRTOSv10.4.1/FreeRTOS/Source/portable/GCC/ARM_CM4F/portmacro.h **** 
 188:../../../../dependencies/freertos/FreeRTOSv10.4.1/FreeRTOS/Source/portable/GCC/ARM_CM4F/portmacro.h ****         return xReturn;
 189:../../../../dependencies/freertos/FreeRTOSv10.4.1/FreeRTOS/Source/portable/GCC/ARM_CM4F/portmacro.h ****     }
 190:../../../../dependencies/freertos/FreeRTOSv10.4.1/FreeRTOS/Source/portable/GCC/ARM_CM4F/portmacro.h **** 
 191:../../../../dependencies/freertos/FreeRTOSv10.4.1/FreeRTOS/Source/portable/GCC/ARM_CM4F/portmacro.h **** /*-----------------------------------------------------------*/
 192:../../../../dependencies/freertos/FreeRTOSv10.4.1/FreeRTOS/Source/portable/GCC/ARM_CM4F/portmacro.h **** 
 193:../../../../dependencies/freertos/FreeRTOSv10.4.1/FreeRTOS/Source/portable/GCC/ARM_CM4F/portmacro.h ****     portFORCE_INLINE static void vPortRaiseBASEPRI( void )
 194:../../../../dependencies/freertos/FreeRTOSv10.4.1/FreeRTOS/Source/portable/GCC/ARM_CM4F/portmacro.h ****     {
 195:../../../../dependencies/freertos/FreeRTOSv10.4.1/FreeRTOS/Source/portable/GCC/ARM_CM4F/portmacro.h ****         uint32_t ulNewBASEPRI;
 196:../../../../dependencies/freertos/FreeRTOSv10.4.1/FreeRTOS/Source/portable/GCC/ARM_CM4F/portmacro.h **** 
 197:../../../../dependencies/freertos/FreeRTOSv10.4.1/FreeRTOS/Source/portable/GCC/ARM_CM4F/portmacro.h ****         __asm volatile
 146              		.loc 2 197 0 discriminator 1
 147              	@ 197 "../../../../dependencies/freertos/FreeRTOSv10.4.1/FreeRTOS/Source/portable/GCC/ARM_CM4F/port
 148 0056 4FF05003 			mov r3, #80												
 149 005a 83F31188 		msr basepri, r3											
 150 005e BFF36F8F 		isb														
 151 0062 BFF34F8F 		dsb														
 152              	
 153              	@ 0 "" 2
 154              		.thumb
 155 0066 7B61     		str	r3, [r7, #20]
 156              	.L5:
 157              	.LBE13:
 158              	.LBE12:
 159              		.loc 1 151 0 discriminator 1
 160 0068 FEE7     		b	.L5
 161              	.L4:
 152:../../../../dependencies/freertos/FreeRTOSv10.4.1/FreeRTOS/Source/portable/MemMang/heap_4.c ****                 }
 153:../../../../dependencies/freertos/FreeRTOSv10.4.1/FreeRTOS/Source/portable/MemMang/heap_4.c ****                 else
 154:../../../../dependencies/freertos/FreeRTOSv10.4.1/FreeRTOS/Source/portable/MemMang/heap_4.c ****                 {
 155:../../../../dependencies/freertos/FreeRTOSv10.4.1/FreeRTOS/Source/portable/MemMang/heap_4.c ****                     mtCOVERAGE_TEST_MARKER();
 156:../../../../dependencies/freertos/FreeRTOSv10.4.1/FreeRTOS/Source/portable/MemMang/heap_4.c ****                 }
 157:../../../../dependencies/freertos/FreeRTOSv10.4.1/FreeRTOS/Source/portable/MemMang/heap_4.c ****             }
 158:../../../../dependencies/freertos/FreeRTOSv10.4.1/FreeRTOS/Source/portable/MemMang/heap_4.c ****             else
 159:../../../../dependencies/freertos/FreeRTOSv10.4.1/FreeRTOS/Source/portable/MemMang/heap_4.c ****             {
 160:../../../../dependencies/freertos/FreeRTOSv10.4.1/FreeRTOS/Source/portable/MemMang/heap_4.c ****                 mtCOVERAGE_TEST_MARKER();
 161:../../../../dependencies/freertos/FreeRTOSv10.4.1/FreeRTOS/Source/portable/MemMang/heap_4.c ****             }
 162:../../../../dependencies/freertos/FreeRTOSv10.4.1/FreeRTOS/Source/portable/MemMang/heap_4.c **** 
 163:../../../../dependencies/freertos/FreeRTOSv10.4.1/FreeRTOS/Source/portable/MemMang/heap_4.c ****             if( ( xWantedSize > 0 ) && ( xWantedSize <= xFreeBytesRemaining ) )
 162              		.loc 1 163 0
 163 006a 7B68     		ldr	r3, [r7, #4]
 164 006c 002B     		cmp	r3, #0
 165 006e 6DD0     		beq	.L3
 166              		.loc 1 163 0 is_stmt 0 discriminator 1
 167 0070 434B     		ldr	r3, .L16+8
ARM GAS  /var/folders/_8/_cw6l3nd335f_j6cn6z79m4m0000gn/T//ccdKuXwe.s 			page 10


 168 0072 1B68     		ldr	r3, [r3]
 169 0074 7A68     		ldr	r2, [r7, #4]
 170 0076 9A42     		cmp	r2, r3
 171 0078 68D8     		bhi	.L3
 164:../../../../dependencies/freertos/FreeRTOSv10.4.1/FreeRTOS/Source/portable/MemMang/heap_4.c ****             {
 165:../../../../dependencies/freertos/FreeRTOSv10.4.1/FreeRTOS/Source/portable/MemMang/heap_4.c ****                 /* Traverse the list from the start	(lowest address) block until
 166:../../../../dependencies/freertos/FreeRTOSv10.4.1/FreeRTOS/Source/portable/MemMang/heap_4.c ****                  * one	of adequate size is found. */
 167:../../../../dependencies/freertos/FreeRTOSv10.4.1/FreeRTOS/Source/portable/MemMang/heap_4.c ****                 pxPreviousBlock = &xStart;
 172              		.loc 1 167 0 is_stmt 1
 173 007a 424B     		ldr	r3, .L16+12
 174 007c 3B62     		str	r3, [r7, #32]
 168:../../../../dependencies/freertos/FreeRTOSv10.4.1/FreeRTOS/Source/portable/MemMang/heap_4.c ****                 pxBlock = xStart.pxNextFreeBlock;
 175              		.loc 1 168 0
 176 007e 414B     		ldr	r3, .L16+12
 177 0080 1B68     		ldr	r3, [r3]
 178 0082 7B62     		str	r3, [r7, #36]
 169:../../../../dependencies/freertos/FreeRTOSv10.4.1/FreeRTOS/Source/portable/MemMang/heap_4.c **** 
 170:../../../../dependencies/freertos/FreeRTOSv10.4.1/FreeRTOS/Source/portable/MemMang/heap_4.c ****                 while( ( pxBlock->xBlockSize < xWantedSize ) && ( pxBlock->pxNextFreeBlock != NULL 
 179              		.loc 1 170 0
 180 0084 04E0     		b	.L6
 181              	.L8:
 171:../../../../dependencies/freertos/FreeRTOSv10.4.1/FreeRTOS/Source/portable/MemMang/heap_4.c ****                 {
 172:../../../../dependencies/freertos/FreeRTOSv10.4.1/FreeRTOS/Source/portable/MemMang/heap_4.c ****                     pxPreviousBlock = pxBlock;
 182              		.loc 1 172 0
 183 0086 7B6A     		ldr	r3, [r7, #36]
 184 0088 3B62     		str	r3, [r7, #32]
 173:../../../../dependencies/freertos/FreeRTOSv10.4.1/FreeRTOS/Source/portable/MemMang/heap_4.c ****                     pxBlock = pxBlock->pxNextFreeBlock;
 185              		.loc 1 173 0
 186 008a 7B6A     		ldr	r3, [r7, #36]
 187 008c 1B68     		ldr	r3, [r3]
 188 008e 7B62     		str	r3, [r7, #36]
 189              	.L6:
 170:../../../../dependencies/freertos/FreeRTOSv10.4.1/FreeRTOS/Source/portable/MemMang/heap_4.c ****                 {
 190              		.loc 1 170 0
 191 0090 7B6A     		ldr	r3, [r7, #36]
 192 0092 5A68     		ldr	r2, [r3, #4]
 193 0094 7B68     		ldr	r3, [r7, #4]
 194 0096 9A42     		cmp	r2, r3
 195 0098 03D2     		bcs	.L7
 170:../../../../dependencies/freertos/FreeRTOSv10.4.1/FreeRTOS/Source/portable/MemMang/heap_4.c ****                 {
 196              		.loc 1 170 0 is_stmt 0 discriminator 1
 197 009a 7B6A     		ldr	r3, [r7, #36]
 198 009c 1B68     		ldr	r3, [r3]
 199 009e 002B     		cmp	r3, #0
 200 00a0 F1D1     		bne	.L8
 201              	.L7:
 174:../../../../dependencies/freertos/FreeRTOSv10.4.1/FreeRTOS/Source/portable/MemMang/heap_4.c ****                 }
 175:../../../../dependencies/freertos/FreeRTOSv10.4.1/FreeRTOS/Source/portable/MemMang/heap_4.c **** 
 176:../../../../dependencies/freertos/FreeRTOSv10.4.1/FreeRTOS/Source/portable/MemMang/heap_4.c ****                 /* If the end marker was reached then a block of adequate size
 177:../../../../dependencies/freertos/FreeRTOSv10.4.1/FreeRTOS/Source/portable/MemMang/heap_4.c ****                  * was	not found. */
 178:../../../../dependencies/freertos/FreeRTOSv10.4.1/FreeRTOS/Source/portable/MemMang/heap_4.c ****                 if( pxBlock != pxEnd )
 202              		.loc 1 178 0 is_stmt 1
 203 00a2 354B     		ldr	r3, .L16
 204 00a4 1B68     		ldr	r3, [r3]
 205 00a6 7A6A     		ldr	r2, [r7, #36]
 206 00a8 9A42     		cmp	r2, r3
 207 00aa 4FD0     		beq	.L3
ARM GAS  /var/folders/_8/_cw6l3nd335f_j6cn6z79m4m0000gn/T//ccdKuXwe.s 			page 11


 179:../../../../dependencies/freertos/FreeRTOSv10.4.1/FreeRTOS/Source/portable/MemMang/heap_4.c ****                 {
 180:../../../../dependencies/freertos/FreeRTOSv10.4.1/FreeRTOS/Source/portable/MemMang/heap_4.c ****                     /* Return the memory space pointed to - jumping over the
 181:../../../../dependencies/freertos/FreeRTOSv10.4.1/FreeRTOS/Source/portable/MemMang/heap_4.c ****                      * BlockLink_t structure at its start. */
 182:../../../../dependencies/freertos/FreeRTOSv10.4.1/FreeRTOS/Source/portable/MemMang/heap_4.c ****                     pvReturn = ( void * ) ( ( ( uint8_t * ) pxPreviousBlock->pxNextFreeBlock ) + xH
 208              		.loc 1 182 0
 209 00ac 3B6A     		ldr	r3, [r7, #32]
 210 00ae 1B68     		ldr	r3, [r3]
 211 00b0 0822     		movs	r2, #8
 212 00b2 1344     		add	r3, r3, r2
 213 00b4 FB61     		str	r3, [r7, #28]
 183:../../../../dependencies/freertos/FreeRTOSv10.4.1/FreeRTOS/Source/portable/MemMang/heap_4.c **** 
 184:../../../../dependencies/freertos/FreeRTOSv10.4.1/FreeRTOS/Source/portable/MemMang/heap_4.c ****                     /* This block is being returned for use so must be taken out
 185:../../../../dependencies/freertos/FreeRTOSv10.4.1/FreeRTOS/Source/portable/MemMang/heap_4.c ****                      * of the list of free blocks. */
 186:../../../../dependencies/freertos/FreeRTOSv10.4.1/FreeRTOS/Source/portable/MemMang/heap_4.c ****                     pxPreviousBlock->pxNextFreeBlock = pxBlock->pxNextFreeBlock;
 214              		.loc 1 186 0
 215 00b6 7B6A     		ldr	r3, [r7, #36]
 216 00b8 1A68     		ldr	r2, [r3]
 217 00ba 3B6A     		ldr	r3, [r7, #32]
 218 00bc 1A60     		str	r2, [r3]
 187:../../../../dependencies/freertos/FreeRTOSv10.4.1/FreeRTOS/Source/portable/MemMang/heap_4.c **** 
 188:../../../../dependencies/freertos/FreeRTOSv10.4.1/FreeRTOS/Source/portable/MemMang/heap_4.c ****                     /* If the block is larger than required it can be split into
 189:../../../../dependencies/freertos/FreeRTOSv10.4.1/FreeRTOS/Source/portable/MemMang/heap_4.c ****                      * two. */
 190:../../../../dependencies/freertos/FreeRTOSv10.4.1/FreeRTOS/Source/portable/MemMang/heap_4.c ****                     if( ( pxBlock->xBlockSize - xWantedSize ) > heapMINIMUM_BLOCK_SIZE )
 219              		.loc 1 190 0
 220 00be 7B6A     		ldr	r3, [r7, #36]
 221 00c0 5A68     		ldr	r2, [r3, #4]
 222 00c2 7B68     		ldr	r3, [r7, #4]
 223 00c4 D21A     		subs	r2, r2, r3
 224 00c6 0823     		movs	r3, #8
 225 00c8 5B00     		lsls	r3, r3, #1
 226 00ca 9A42     		cmp	r2, r3
 227 00cc 1ED9     		bls	.L9
 191:../../../../dependencies/freertos/FreeRTOSv10.4.1/FreeRTOS/Source/portable/MemMang/heap_4.c ****                     {
 192:../../../../dependencies/freertos/FreeRTOSv10.4.1/FreeRTOS/Source/portable/MemMang/heap_4.c ****                         /* This block is to be split into two.  Create a new
 193:../../../../dependencies/freertos/FreeRTOSv10.4.1/FreeRTOS/Source/portable/MemMang/heap_4.c ****                          * block following the number of bytes requested. The void
 194:../../../../dependencies/freertos/FreeRTOSv10.4.1/FreeRTOS/Source/portable/MemMang/heap_4.c ****                          * cast is used to prevent byte alignment warnings from the
 195:../../../../dependencies/freertos/FreeRTOSv10.4.1/FreeRTOS/Source/portable/MemMang/heap_4.c ****                          * compiler. */
 196:../../../../dependencies/freertos/FreeRTOSv10.4.1/FreeRTOS/Source/portable/MemMang/heap_4.c ****                         pxNewBlockLink = ( void * ) ( ( ( uint8_t * ) pxBlock ) + xWantedSize );
 228              		.loc 1 196 0
 229 00ce 7A6A     		ldr	r2, [r7, #36]
 230 00d0 7B68     		ldr	r3, [r7, #4]
 231 00d2 1344     		add	r3, r3, r2
 232 00d4 BB61     		str	r3, [r7, #24]
 197:../../../../dependencies/freertos/FreeRTOSv10.4.1/FreeRTOS/Source/portable/MemMang/heap_4.c ****                         configASSERT( ( ( ( size_t ) pxNewBlockLink ) & portBYTE_ALIGNMENT_MASK ) =
 233              		.loc 1 197 0
 234 00d6 BB69     		ldr	r3, [r7, #24]
 235 00d8 03F00703 		and	r3, r3, #7
 236 00dc 002B     		cmp	r3, #0
 237 00de 09D0     		beq	.L10
 238              	.LBB14:
 239              	.LBB15:
 240              		.loc 2 197 0 discriminator 1
 241              	@ 197 "../../../../dependencies/freertos/FreeRTOSv10.4.1/FreeRTOS/Source/portable/GCC/ARM_CM4F/port
 242 00e0 4FF05003 			mov r3, #80												
 243 00e4 83F31188 		msr basepri, r3											
 244 00e8 BFF36F8F 		isb														
 245 00ec BFF34F8F 		dsb														
ARM GAS  /var/folders/_8/_cw6l3nd335f_j6cn6z79m4m0000gn/T//ccdKuXwe.s 			page 12


 246              	
 247              	@ 0 "" 2
 248              		.thumb
 249 00f0 3B61     		str	r3, [r7, #16]
 250              	.L11:
 251              	.LBE15:
 252              	.LBE14:
 253              		.loc 1 197 0 discriminator 3
 254 00f2 FEE7     		b	.L11
 255              	.L10:
 198:../../../../dependencies/freertos/FreeRTOSv10.4.1/FreeRTOS/Source/portable/MemMang/heap_4.c **** 
 199:../../../../dependencies/freertos/FreeRTOSv10.4.1/FreeRTOS/Source/portable/MemMang/heap_4.c ****                         /* Calculate the sizes of two blocks split from the
 200:../../../../dependencies/freertos/FreeRTOSv10.4.1/FreeRTOS/Source/portable/MemMang/heap_4.c ****                          * single block. */
 201:../../../../dependencies/freertos/FreeRTOSv10.4.1/FreeRTOS/Source/portable/MemMang/heap_4.c ****                         pxNewBlockLink->xBlockSize = pxBlock->xBlockSize - xWantedSize;
 256              		.loc 1 201 0
 257 00f4 7B6A     		ldr	r3, [r7, #36]
 258 00f6 5A68     		ldr	r2, [r3, #4]
 259 00f8 7B68     		ldr	r3, [r7, #4]
 260 00fa D21A     		subs	r2, r2, r3
 261 00fc BB69     		ldr	r3, [r7, #24]
 262 00fe 5A60     		str	r2, [r3, #4]
 202:../../../../dependencies/freertos/FreeRTOSv10.4.1/FreeRTOS/Source/portable/MemMang/heap_4.c ****                         pxBlock->xBlockSize = xWantedSize;
 263              		.loc 1 202 0
 264 0100 7B6A     		ldr	r3, [r7, #36]
 265 0102 7A68     		ldr	r2, [r7, #4]
 266 0104 5A60     		str	r2, [r3, #4]
 203:../../../../dependencies/freertos/FreeRTOSv10.4.1/FreeRTOS/Source/portable/MemMang/heap_4.c **** 
 204:../../../../dependencies/freertos/FreeRTOSv10.4.1/FreeRTOS/Source/portable/MemMang/heap_4.c ****                         /* Insert the new block into the list of free blocks. */
 205:../../../../dependencies/freertos/FreeRTOSv10.4.1/FreeRTOS/Source/portable/MemMang/heap_4.c ****                         prvInsertBlockIntoFreeList( pxNewBlockLink );
 267              		.loc 1 205 0
 268 0106 B869     		ldr	r0, [r7, #24]
 269 0108 FFF7FEFF 		bl	prvInsertBlockIntoFreeList
 270              	.L9:
 206:../../../../dependencies/freertos/FreeRTOSv10.4.1/FreeRTOS/Source/portable/MemMang/heap_4.c ****                     }
 207:../../../../dependencies/freertos/FreeRTOSv10.4.1/FreeRTOS/Source/portable/MemMang/heap_4.c ****                     else
 208:../../../../dependencies/freertos/FreeRTOSv10.4.1/FreeRTOS/Source/portable/MemMang/heap_4.c ****                     {
 209:../../../../dependencies/freertos/FreeRTOSv10.4.1/FreeRTOS/Source/portable/MemMang/heap_4.c ****                         mtCOVERAGE_TEST_MARKER();
 210:../../../../dependencies/freertos/FreeRTOSv10.4.1/FreeRTOS/Source/portable/MemMang/heap_4.c ****                     }
 211:../../../../dependencies/freertos/FreeRTOSv10.4.1/FreeRTOS/Source/portable/MemMang/heap_4.c **** 
 212:../../../../dependencies/freertos/FreeRTOSv10.4.1/FreeRTOS/Source/portable/MemMang/heap_4.c ****                     xFreeBytesRemaining -= pxBlock->xBlockSize;
 271              		.loc 1 212 0
 272 010c 1C4B     		ldr	r3, .L16+8
 273 010e 1A68     		ldr	r2, [r3]
 274 0110 7B6A     		ldr	r3, [r7, #36]
 275 0112 5B68     		ldr	r3, [r3, #4]
 276 0114 D31A     		subs	r3, r2, r3
 277 0116 1A4A     		ldr	r2, .L16+8
 278 0118 1360     		str	r3, [r2]
 213:../../../../dependencies/freertos/FreeRTOSv10.4.1/FreeRTOS/Source/portable/MemMang/heap_4.c **** 
 214:../../../../dependencies/freertos/FreeRTOSv10.4.1/FreeRTOS/Source/portable/MemMang/heap_4.c ****                     if( xFreeBytesRemaining < xMinimumEverFreeBytesRemaining )
 279              		.loc 1 214 0
 280 011a 194B     		ldr	r3, .L16+8
 281 011c 1A68     		ldr	r2, [r3]
 282 011e 1A4B     		ldr	r3, .L16+16
 283 0120 1B68     		ldr	r3, [r3]
 284 0122 9A42     		cmp	r2, r3
 285 0124 03D2     		bcs	.L12
ARM GAS  /var/folders/_8/_cw6l3nd335f_j6cn6z79m4m0000gn/T//ccdKuXwe.s 			page 13


 215:../../../../dependencies/freertos/FreeRTOSv10.4.1/FreeRTOS/Source/portable/MemMang/heap_4.c ****                     {
 216:../../../../dependencies/freertos/FreeRTOSv10.4.1/FreeRTOS/Source/portable/MemMang/heap_4.c ****                         xMinimumEverFreeBytesRemaining = xFreeBytesRemaining;
 286              		.loc 1 216 0
 287 0126 164B     		ldr	r3, .L16+8
 288 0128 1B68     		ldr	r3, [r3]
 289 012a 174A     		ldr	r2, .L16+16
 290 012c 1360     		str	r3, [r2]
 291              	.L12:
 217:../../../../dependencies/freertos/FreeRTOSv10.4.1/FreeRTOS/Source/portable/MemMang/heap_4.c ****                     }
 218:../../../../dependencies/freertos/FreeRTOSv10.4.1/FreeRTOS/Source/portable/MemMang/heap_4.c ****                     else
 219:../../../../dependencies/freertos/FreeRTOSv10.4.1/FreeRTOS/Source/portable/MemMang/heap_4.c ****                     {
 220:../../../../dependencies/freertos/FreeRTOSv10.4.1/FreeRTOS/Source/portable/MemMang/heap_4.c ****                         mtCOVERAGE_TEST_MARKER();
 221:../../../../dependencies/freertos/FreeRTOSv10.4.1/FreeRTOS/Source/portable/MemMang/heap_4.c ****                     }
 222:../../../../dependencies/freertos/FreeRTOSv10.4.1/FreeRTOS/Source/portable/MemMang/heap_4.c **** 
 223:../../../../dependencies/freertos/FreeRTOSv10.4.1/FreeRTOS/Source/portable/MemMang/heap_4.c ****                     /* The block is being returned - it is allocated and owned
 224:../../../../dependencies/freertos/FreeRTOSv10.4.1/FreeRTOS/Source/portable/MemMang/heap_4.c ****                      * by the application and has no "next" block. */
 225:../../../../dependencies/freertos/FreeRTOSv10.4.1/FreeRTOS/Source/portable/MemMang/heap_4.c ****                     pxBlock->xBlockSize |= xBlockAllocatedBit;
 292              		.loc 1 225 0
 293 012e 7B6A     		ldr	r3, [r7, #36]
 294 0130 5A68     		ldr	r2, [r3, #4]
 295 0132 124B     		ldr	r3, .L16+4
 296 0134 1B68     		ldr	r3, [r3]
 297 0136 1A43     		orrs	r2, r2, r3
 298 0138 7B6A     		ldr	r3, [r7, #36]
 299 013a 5A60     		str	r2, [r3, #4]
 226:../../../../dependencies/freertos/FreeRTOSv10.4.1/FreeRTOS/Source/portable/MemMang/heap_4.c ****                     pxBlock->pxNextFreeBlock = NULL;
 300              		.loc 1 226 0
 301 013c 7B6A     		ldr	r3, [r7, #36]
 302 013e 0022     		movs	r2, #0
 303 0140 1A60     		str	r2, [r3]
 227:../../../../dependencies/freertos/FreeRTOSv10.4.1/FreeRTOS/Source/portable/MemMang/heap_4.c ****                     xNumberOfSuccessfulAllocations++;
 304              		.loc 1 227 0
 305 0142 124B     		ldr	r3, .L16+20
 306 0144 1B68     		ldr	r3, [r3]
 307 0146 0133     		adds	r3, r3, #1
 308 0148 104A     		ldr	r2, .L16+20
 309 014a 1360     		str	r3, [r2]
 310              	.L3:
 228:../../../../dependencies/freertos/FreeRTOSv10.4.1/FreeRTOS/Source/portable/MemMang/heap_4.c ****                 }
 229:../../../../dependencies/freertos/FreeRTOSv10.4.1/FreeRTOS/Source/portable/MemMang/heap_4.c ****                 else
 230:../../../../dependencies/freertos/FreeRTOSv10.4.1/FreeRTOS/Source/portable/MemMang/heap_4.c ****                 {
 231:../../../../dependencies/freertos/FreeRTOSv10.4.1/FreeRTOS/Source/portable/MemMang/heap_4.c ****                     mtCOVERAGE_TEST_MARKER();
 232:../../../../dependencies/freertos/FreeRTOSv10.4.1/FreeRTOS/Source/portable/MemMang/heap_4.c ****                 }
 233:../../../../dependencies/freertos/FreeRTOSv10.4.1/FreeRTOS/Source/portable/MemMang/heap_4.c ****             }
 234:../../../../dependencies/freertos/FreeRTOSv10.4.1/FreeRTOS/Source/portable/MemMang/heap_4.c ****             else
 235:../../../../dependencies/freertos/FreeRTOSv10.4.1/FreeRTOS/Source/portable/MemMang/heap_4.c ****             {
 236:../../../../dependencies/freertos/FreeRTOSv10.4.1/FreeRTOS/Source/portable/MemMang/heap_4.c ****                 mtCOVERAGE_TEST_MARKER();
 237:../../../../dependencies/freertos/FreeRTOSv10.4.1/FreeRTOS/Source/portable/MemMang/heap_4.c ****             }
 238:../../../../dependencies/freertos/FreeRTOSv10.4.1/FreeRTOS/Source/portable/MemMang/heap_4.c ****         }
 239:../../../../dependencies/freertos/FreeRTOSv10.4.1/FreeRTOS/Source/portable/MemMang/heap_4.c ****         else
 240:../../../../dependencies/freertos/FreeRTOSv10.4.1/FreeRTOS/Source/portable/MemMang/heap_4.c ****         {
 241:../../../../dependencies/freertos/FreeRTOSv10.4.1/FreeRTOS/Source/portable/MemMang/heap_4.c ****             mtCOVERAGE_TEST_MARKER();
 242:../../../../dependencies/freertos/FreeRTOSv10.4.1/FreeRTOS/Source/portable/MemMang/heap_4.c ****         }
 243:../../../../dependencies/freertos/FreeRTOSv10.4.1/FreeRTOS/Source/portable/MemMang/heap_4.c **** 
 244:../../../../dependencies/freertos/FreeRTOSv10.4.1/FreeRTOS/Source/portable/MemMang/heap_4.c ****         traceMALLOC( pvReturn, xWantedSize );
 245:../../../../dependencies/freertos/FreeRTOSv10.4.1/FreeRTOS/Source/portable/MemMang/heap_4.c ****     }
 246:../../../../dependencies/freertos/FreeRTOSv10.4.1/FreeRTOS/Source/portable/MemMang/heap_4.c ****     ( void ) xTaskResumeAll();
ARM GAS  /var/folders/_8/_cw6l3nd335f_j6cn6z79m4m0000gn/T//ccdKuXwe.s 			page 14


 311              		.loc 1 246 0
 312 014c FFF7FEFF 		bl	xTaskResumeAll
 247:../../../../dependencies/freertos/FreeRTOSv10.4.1/FreeRTOS/Source/portable/MemMang/heap_4.c **** 
 248:../../../../dependencies/freertos/FreeRTOSv10.4.1/FreeRTOS/Source/portable/MemMang/heap_4.c ****     #if ( configUSE_MALLOC_FAILED_HOOK == 1 )
 249:../../../../dependencies/freertos/FreeRTOSv10.4.1/FreeRTOS/Source/portable/MemMang/heap_4.c ****         {
 250:../../../../dependencies/freertos/FreeRTOSv10.4.1/FreeRTOS/Source/portable/MemMang/heap_4.c ****             if( pvReturn == NULL )
 251:../../../../dependencies/freertos/FreeRTOSv10.4.1/FreeRTOS/Source/portable/MemMang/heap_4.c ****             {
 252:../../../../dependencies/freertos/FreeRTOSv10.4.1/FreeRTOS/Source/portable/MemMang/heap_4.c ****                 extern void vApplicationMallocFailedHook( void );
 253:../../../../dependencies/freertos/FreeRTOSv10.4.1/FreeRTOS/Source/portable/MemMang/heap_4.c ****                 vApplicationMallocFailedHook();
 254:../../../../dependencies/freertos/FreeRTOSv10.4.1/FreeRTOS/Source/portable/MemMang/heap_4.c ****             }
 255:../../../../dependencies/freertos/FreeRTOSv10.4.1/FreeRTOS/Source/portable/MemMang/heap_4.c ****             else
 256:../../../../dependencies/freertos/FreeRTOSv10.4.1/FreeRTOS/Source/portable/MemMang/heap_4.c ****             {
 257:../../../../dependencies/freertos/FreeRTOSv10.4.1/FreeRTOS/Source/portable/MemMang/heap_4.c ****                 mtCOVERAGE_TEST_MARKER();
 258:../../../../dependencies/freertos/FreeRTOSv10.4.1/FreeRTOS/Source/portable/MemMang/heap_4.c ****             }
 259:../../../../dependencies/freertos/FreeRTOSv10.4.1/FreeRTOS/Source/portable/MemMang/heap_4.c ****         }
 260:../../../../dependencies/freertos/FreeRTOSv10.4.1/FreeRTOS/Source/portable/MemMang/heap_4.c ****     #endif /* if ( configUSE_MALLOC_FAILED_HOOK == 1 ) */
 261:../../../../dependencies/freertos/FreeRTOSv10.4.1/FreeRTOS/Source/portable/MemMang/heap_4.c **** 
 262:../../../../dependencies/freertos/FreeRTOSv10.4.1/FreeRTOS/Source/portable/MemMang/heap_4.c ****     configASSERT( ( ( ( size_t ) pvReturn ) & ( size_t ) portBYTE_ALIGNMENT_MASK ) == 0 );
 313              		.loc 1 262 0
 314 0150 FB69     		ldr	r3, [r7, #28]
 315 0152 03F00703 		and	r3, r3, #7
 316 0156 002B     		cmp	r3, #0
 317 0158 09D0     		beq	.L13
 318              	.LBB16:
 319              	.LBB17:
 320              		.loc 2 197 0 discriminator 1
 321              	@ 197 "../../../../dependencies/freertos/FreeRTOSv10.4.1/FreeRTOS/Source/portable/GCC/ARM_CM4F/port
 322 015a 4FF05003 			mov r3, #80												
 323 015e 83F31188 		msr basepri, r3											
 324 0162 BFF36F8F 		isb														
 325 0166 BFF34F8F 		dsb														
 326              	
 327              	@ 0 "" 2
 328              		.thumb
 329 016a FB60     		str	r3, [r7, #12]
 330              	.L14:
 331              	.LBE17:
 332              	.LBE16:
 333              		.loc 1 262 0 discriminator 5
 334 016c FEE7     		b	.L14
 335              	.L13:
 263:../../../../dependencies/freertos/FreeRTOSv10.4.1/FreeRTOS/Source/portable/MemMang/heap_4.c ****     return pvReturn;
 336              		.loc 1 263 0
 337 016e FB69     		ldr	r3, [r7, #28]
 264:../../../../dependencies/freertos/FreeRTOSv10.4.1/FreeRTOS/Source/portable/MemMang/heap_4.c **** }
 338              		.loc 1 264 0
 339 0170 1846     		mov	r0, r3
 340 0172 2837     		adds	r7, r7, #40
 341              	.LCFI3:
 342              		.cfi_def_cfa_offset 8
 343 0174 BD46     		mov	sp, r7
 344              	.LCFI4:
 345              		.cfi_def_cfa_register 13
 346              		@ sp needed
 347 0176 80BD     		pop	{r7, pc}
 348              	.L17:
 349              		.align	2
ARM GAS  /var/folders/_8/_cw6l3nd335f_j6cn6z79m4m0000gn/T//ccdKuXwe.s 			page 15


 350              	.L16:
 351 0178 00000000 		.word	pxEnd
 352 017c 00000000 		.word	xBlockAllocatedBit
 353 0180 00000000 		.word	xFreeBytesRemaining
 354 0184 00000000 		.word	xStart
 355 0188 00000000 		.word	xMinimumEverFreeBytesRemaining
 356 018c 00000000 		.word	xNumberOfSuccessfulAllocations
 357              		.cfi_endproc
 358              	.LFE5:
 360              		.section	.text.vPortFree,"ax",%progbits
 361              		.align	2
 362              		.global	vPortFree
 363              		.thumb
 364              		.thumb_func
 366              	vPortFree:
 367              	.LFB6:
 265:../../../../dependencies/freertos/FreeRTOSv10.4.1/FreeRTOS/Source/portable/MemMang/heap_4.c **** /*-----------------------------------------------------------*/
 266:../../../../dependencies/freertos/FreeRTOSv10.4.1/FreeRTOS/Source/portable/MemMang/heap_4.c **** 
 267:../../../../dependencies/freertos/FreeRTOSv10.4.1/FreeRTOS/Source/portable/MemMang/heap_4.c **** void vPortFree( void * pv )
 268:../../../../dependencies/freertos/FreeRTOSv10.4.1/FreeRTOS/Source/portable/MemMang/heap_4.c **** {
 368              		.loc 1 268 0
 369              		.cfi_startproc
 370              		@ args = 0, pretend = 0, frame = 24
 371              		@ frame_needed = 1, uses_anonymous_args = 0
 372 0000 80B5     		push	{r7, lr}
 373              	.LCFI5:
 374              		.cfi_def_cfa_offset 8
 375              		.cfi_offset 7, -8
 376              		.cfi_offset 14, -4
 377 0002 86B0     		sub	sp, sp, #24
 378              	.LCFI6:
 379              		.cfi_def_cfa_offset 32
 380 0004 00AF     		add	r7, sp, #0
 381              	.LCFI7:
 382              		.cfi_def_cfa_register 7
 383 0006 7860     		str	r0, [r7, #4]
 269:../../../../dependencies/freertos/FreeRTOSv10.4.1/FreeRTOS/Source/portable/MemMang/heap_4.c ****     uint8_t * puc = ( uint8_t * ) pv;
 384              		.loc 1 269 0
 385 0008 7B68     		ldr	r3, [r7, #4]
 386 000a 7B61     		str	r3, [r7, #20]
 270:../../../../dependencies/freertos/FreeRTOSv10.4.1/FreeRTOS/Source/portable/MemMang/heap_4.c ****     BlockLink_t * pxLink;
 271:../../../../dependencies/freertos/FreeRTOSv10.4.1/FreeRTOS/Source/portable/MemMang/heap_4.c **** 
 272:../../../../dependencies/freertos/FreeRTOSv10.4.1/FreeRTOS/Source/portable/MemMang/heap_4.c ****     if( pv != NULL )
 387              		.loc 1 272 0
 388 000c 7B68     		ldr	r3, [r7, #4]
 389 000e 002B     		cmp	r3, #0
 390 0010 4BD0     		beq	.L18
 273:../../../../dependencies/freertos/FreeRTOSv10.4.1/FreeRTOS/Source/portable/MemMang/heap_4.c ****     {
 274:../../../../dependencies/freertos/FreeRTOSv10.4.1/FreeRTOS/Source/portable/MemMang/heap_4.c ****         /* The memory being freed will have an BlockLink_t structure immediately
 275:../../../../dependencies/freertos/FreeRTOSv10.4.1/FreeRTOS/Source/portable/MemMang/heap_4.c ****          * before it. */
 276:../../../../dependencies/freertos/FreeRTOSv10.4.1/FreeRTOS/Source/portable/MemMang/heap_4.c ****         puc -= xHeapStructSize;
 391              		.loc 1 276 0
 392 0012 0823     		movs	r3, #8
 393 0014 5B42     		negs	r3, r3
 394 0016 7A69     		ldr	r2, [r7, #20]
 395 0018 1344     		add	r3, r3, r2
 396 001a 7B61     		str	r3, [r7, #20]
ARM GAS  /var/folders/_8/_cw6l3nd335f_j6cn6z79m4m0000gn/T//ccdKuXwe.s 			page 16


 277:../../../../dependencies/freertos/FreeRTOSv10.4.1/FreeRTOS/Source/portable/MemMang/heap_4.c **** 
 278:../../../../dependencies/freertos/FreeRTOSv10.4.1/FreeRTOS/Source/portable/MemMang/heap_4.c ****         /* This casting is to keep the compiler from issuing warnings. */
 279:../../../../dependencies/freertos/FreeRTOSv10.4.1/FreeRTOS/Source/portable/MemMang/heap_4.c ****         pxLink = ( void * ) puc;
 397              		.loc 1 279 0
 398 001c 7B69     		ldr	r3, [r7, #20]
 399 001e 3B61     		str	r3, [r7, #16]
 280:../../../../dependencies/freertos/FreeRTOSv10.4.1/FreeRTOS/Source/portable/MemMang/heap_4.c **** 
 281:../../../../dependencies/freertos/FreeRTOSv10.4.1/FreeRTOS/Source/portable/MemMang/heap_4.c ****         /* Check the block is actually allocated. */
 282:../../../../dependencies/freertos/FreeRTOSv10.4.1/FreeRTOS/Source/portable/MemMang/heap_4.c ****         configASSERT( ( pxLink->xBlockSize & xBlockAllocatedBit ) != 0 );
 400              		.loc 1 282 0
 401 0020 3B69     		ldr	r3, [r7, #16]
 402 0022 5A68     		ldr	r2, [r3, #4]
 403 0024 224B     		ldr	r3, .L24
 404 0026 1B68     		ldr	r3, [r3]
 405 0028 1340     		ands	r3, r3, r2
 406 002a 002B     		cmp	r3, #0
 407 002c 09D1     		bne	.L20
 408              	.LBB18:
 409              	.LBB19:
 410              		.loc 2 197 0 discriminator 1
 411              	@ 197 "../../../../dependencies/freertos/FreeRTOSv10.4.1/FreeRTOS/Source/portable/GCC/ARM_CM4F/port
 412 002e 4FF05003 			mov r3, #80												
 413 0032 83F31188 		msr basepri, r3											
 414 0036 BFF36F8F 		isb														
 415 003a BFF34F8F 		dsb														
 416              	
 417              	@ 0 "" 2
 418              		.thumb
 419 003e FB60     		str	r3, [r7, #12]
 420              	.L21:
 421              	.LBE19:
 422              	.LBE18:
 423              		.loc 1 282 0 discriminator 1
 424 0040 FEE7     		b	.L21
 425              	.L20:
 283:../../../../dependencies/freertos/FreeRTOSv10.4.1/FreeRTOS/Source/portable/MemMang/heap_4.c ****         configASSERT( pxLink->pxNextFreeBlock == NULL );
 426              		.loc 1 283 0
 427 0042 3B69     		ldr	r3, [r7, #16]
 428 0044 1B68     		ldr	r3, [r3]
 429 0046 002B     		cmp	r3, #0
 430 0048 09D0     		beq	.L22
 431              	.LBB20:
 432              	.LBB21:
 433              		.loc 2 197 0 discriminator 1
 434              	@ 197 "../../../../dependencies/freertos/FreeRTOSv10.4.1/FreeRTOS/Source/portable/GCC/ARM_CM4F/port
 435 004a 4FF05003 			mov r3, #80												
 436 004e 83F31188 		msr basepri, r3											
 437 0052 BFF36F8F 		isb														
 438 0056 BFF34F8F 		dsb														
 439              	
 440              	@ 0 "" 2
 441              		.thumb
 442 005a BB60     		str	r3, [r7, #8]
 443              	.L23:
 444              	.LBE21:
 445              	.LBE20:
 446              		.loc 1 283 0 discriminator 2
ARM GAS  /var/folders/_8/_cw6l3nd335f_j6cn6z79m4m0000gn/T//ccdKuXwe.s 			page 17


 447 005c FEE7     		b	.L23
 448              	.L22:
 284:../../../../dependencies/freertos/FreeRTOSv10.4.1/FreeRTOS/Source/portable/MemMang/heap_4.c **** 
 285:../../../../dependencies/freertos/FreeRTOSv10.4.1/FreeRTOS/Source/portable/MemMang/heap_4.c ****         if( ( pxLink->xBlockSize & xBlockAllocatedBit ) != 0 )
 449              		.loc 1 285 0
 450 005e 3B69     		ldr	r3, [r7, #16]
 451 0060 5A68     		ldr	r2, [r3, #4]
 452 0062 134B     		ldr	r3, .L24
 453 0064 1B68     		ldr	r3, [r3]
 454 0066 1340     		ands	r3, r3, r2
 455 0068 002B     		cmp	r3, #0
 456 006a 1ED0     		beq	.L18
 286:../../../../dependencies/freertos/FreeRTOSv10.4.1/FreeRTOS/Source/portable/MemMang/heap_4.c ****         {
 287:../../../../dependencies/freertos/FreeRTOSv10.4.1/FreeRTOS/Source/portable/MemMang/heap_4.c ****             if( pxLink->pxNextFreeBlock == NULL )
 457              		.loc 1 287 0
 458 006c 3B69     		ldr	r3, [r7, #16]
 459 006e 1B68     		ldr	r3, [r3]
 460 0070 002B     		cmp	r3, #0
 461 0072 1AD1     		bne	.L18
 288:../../../../dependencies/freertos/FreeRTOSv10.4.1/FreeRTOS/Source/portable/MemMang/heap_4.c ****             {
 289:../../../../dependencies/freertos/FreeRTOSv10.4.1/FreeRTOS/Source/portable/MemMang/heap_4.c ****                 /* The block is being returned to the heap - it is no longer
 290:../../../../dependencies/freertos/FreeRTOSv10.4.1/FreeRTOS/Source/portable/MemMang/heap_4.c ****                  * allocated. */
 291:../../../../dependencies/freertos/FreeRTOSv10.4.1/FreeRTOS/Source/portable/MemMang/heap_4.c ****                 pxLink->xBlockSize &= ~xBlockAllocatedBit;
 462              		.loc 1 291 0
 463 0074 3B69     		ldr	r3, [r7, #16]
 464 0076 5A68     		ldr	r2, [r3, #4]
 465 0078 0D4B     		ldr	r3, .L24
 466 007a 1B68     		ldr	r3, [r3]
 467 007c DB43     		mvns	r3, r3
 468 007e 1A40     		ands	r2, r2, r3
 469 0080 3B69     		ldr	r3, [r7, #16]
 470 0082 5A60     		str	r2, [r3, #4]
 292:../../../../dependencies/freertos/FreeRTOSv10.4.1/FreeRTOS/Source/portable/MemMang/heap_4.c **** 
 293:../../../../dependencies/freertos/FreeRTOSv10.4.1/FreeRTOS/Source/portable/MemMang/heap_4.c ****                 vTaskSuspendAll();
 471              		.loc 1 293 0
 472 0084 FFF7FEFF 		bl	vTaskSuspendAll
 294:../../../../dependencies/freertos/FreeRTOSv10.4.1/FreeRTOS/Source/portable/MemMang/heap_4.c ****                 {
 295:../../../../dependencies/freertos/FreeRTOSv10.4.1/FreeRTOS/Source/portable/MemMang/heap_4.c ****                     /* Add this block to the list of free blocks. */
 296:../../../../dependencies/freertos/FreeRTOSv10.4.1/FreeRTOS/Source/portable/MemMang/heap_4.c ****                     xFreeBytesRemaining += pxLink->xBlockSize;
 473              		.loc 1 296 0
 474 0088 3B69     		ldr	r3, [r7, #16]
 475 008a 5A68     		ldr	r2, [r3, #4]
 476 008c 094B     		ldr	r3, .L24+4
 477 008e 1B68     		ldr	r3, [r3]
 478 0090 1344     		add	r3, r3, r2
 479 0092 084A     		ldr	r2, .L24+4
 480 0094 1360     		str	r3, [r2]
 297:../../../../dependencies/freertos/FreeRTOSv10.4.1/FreeRTOS/Source/portable/MemMang/heap_4.c ****                     traceFREE( pv, pxLink->xBlockSize );
 298:../../../../dependencies/freertos/FreeRTOSv10.4.1/FreeRTOS/Source/portable/MemMang/heap_4.c ****                     prvInsertBlockIntoFreeList( ( ( BlockLink_t * ) pxLink ) );
 481              		.loc 1 298 0
 482 0096 3869     		ldr	r0, [r7, #16]
 483 0098 FFF7FEFF 		bl	prvInsertBlockIntoFreeList
 299:../../../../dependencies/freertos/FreeRTOSv10.4.1/FreeRTOS/Source/portable/MemMang/heap_4.c ****                     xNumberOfSuccessfulFrees++;
 484              		.loc 1 299 0
 485 009c 064B     		ldr	r3, .L24+8
 486 009e 1B68     		ldr	r3, [r3]
 487 00a0 0133     		adds	r3, r3, #1
ARM GAS  /var/folders/_8/_cw6l3nd335f_j6cn6z79m4m0000gn/T//ccdKuXwe.s 			page 18


 488 00a2 054A     		ldr	r2, .L24+8
 489 00a4 1360     		str	r3, [r2]
 300:../../../../dependencies/freertos/FreeRTOSv10.4.1/FreeRTOS/Source/portable/MemMang/heap_4.c ****                 }
 301:../../../../dependencies/freertos/FreeRTOSv10.4.1/FreeRTOS/Source/portable/MemMang/heap_4.c ****                 ( void ) xTaskResumeAll();
 490              		.loc 1 301 0
 491 00a6 FFF7FEFF 		bl	xTaskResumeAll
 492              	.L18:
 302:../../../../dependencies/freertos/FreeRTOSv10.4.1/FreeRTOS/Source/portable/MemMang/heap_4.c ****             }
 303:../../../../dependencies/freertos/FreeRTOSv10.4.1/FreeRTOS/Source/portable/MemMang/heap_4.c ****             else
 304:../../../../dependencies/freertos/FreeRTOSv10.4.1/FreeRTOS/Source/portable/MemMang/heap_4.c ****             {
 305:../../../../dependencies/freertos/FreeRTOSv10.4.1/FreeRTOS/Source/portable/MemMang/heap_4.c ****                 mtCOVERAGE_TEST_MARKER();
 306:../../../../dependencies/freertos/FreeRTOSv10.4.1/FreeRTOS/Source/portable/MemMang/heap_4.c ****             }
 307:../../../../dependencies/freertos/FreeRTOSv10.4.1/FreeRTOS/Source/portable/MemMang/heap_4.c ****         }
 308:../../../../dependencies/freertos/FreeRTOSv10.4.1/FreeRTOS/Source/portable/MemMang/heap_4.c ****         else
 309:../../../../dependencies/freertos/FreeRTOSv10.4.1/FreeRTOS/Source/portable/MemMang/heap_4.c ****         {
 310:../../../../dependencies/freertos/FreeRTOSv10.4.1/FreeRTOS/Source/portable/MemMang/heap_4.c ****             mtCOVERAGE_TEST_MARKER();
 311:../../../../dependencies/freertos/FreeRTOSv10.4.1/FreeRTOS/Source/portable/MemMang/heap_4.c ****         }
 312:../../../../dependencies/freertos/FreeRTOSv10.4.1/FreeRTOS/Source/portable/MemMang/heap_4.c ****     }
 313:../../../../dependencies/freertos/FreeRTOSv10.4.1/FreeRTOS/Source/portable/MemMang/heap_4.c **** }
 493              		.loc 1 313 0
 494 00aa 1837     		adds	r7, r7, #24
 495              	.LCFI8:
 496              		.cfi_def_cfa_offset 8
 497 00ac BD46     		mov	sp, r7
 498              	.LCFI9:
 499              		.cfi_def_cfa_register 13
 500              		@ sp needed
 501 00ae 80BD     		pop	{r7, pc}
 502              	.L25:
 503              		.align	2
 504              	.L24:
 505 00b0 00000000 		.word	xBlockAllocatedBit
 506 00b4 00000000 		.word	xFreeBytesRemaining
 507 00b8 00000000 		.word	xNumberOfSuccessfulFrees
 508              		.cfi_endproc
 509              	.LFE6:
 511              		.section	.text.xPortGetFreeHeapSize,"ax",%progbits
 512              		.align	2
 513              		.global	xPortGetFreeHeapSize
 514              		.thumb
 515              		.thumb_func
 517              	xPortGetFreeHeapSize:
 518              	.LFB7:
 314:../../../../dependencies/freertos/FreeRTOSv10.4.1/FreeRTOS/Source/portable/MemMang/heap_4.c **** /*-----------------------------------------------------------*/
 315:../../../../dependencies/freertos/FreeRTOSv10.4.1/FreeRTOS/Source/portable/MemMang/heap_4.c **** 
 316:../../../../dependencies/freertos/FreeRTOSv10.4.1/FreeRTOS/Source/portable/MemMang/heap_4.c **** size_t xPortGetFreeHeapSize( void )
 317:../../../../dependencies/freertos/FreeRTOSv10.4.1/FreeRTOS/Source/portable/MemMang/heap_4.c **** {
 519              		.loc 1 317 0
 520              		.cfi_startproc
 521              		@ args = 0, pretend = 0, frame = 0
 522              		@ frame_needed = 1, uses_anonymous_args = 0
 523              		@ link register save eliminated.
 524 0000 80B4     		push	{r7}
 525              	.LCFI10:
 526              		.cfi_def_cfa_offset 4
 527              		.cfi_offset 7, -4
 528 0002 00AF     		add	r7, sp, #0
ARM GAS  /var/folders/_8/_cw6l3nd335f_j6cn6z79m4m0000gn/T//ccdKuXwe.s 			page 19


 529              	.LCFI11:
 530              		.cfi_def_cfa_register 7
 318:../../../../dependencies/freertos/FreeRTOSv10.4.1/FreeRTOS/Source/portable/MemMang/heap_4.c ****     return xFreeBytesRemaining;
 531              		.loc 1 318 0
 532 0004 034B     		ldr	r3, .L28
 533 0006 1B68     		ldr	r3, [r3]
 319:../../../../dependencies/freertos/FreeRTOSv10.4.1/FreeRTOS/Source/portable/MemMang/heap_4.c **** }
 534              		.loc 1 319 0
 535 0008 1846     		mov	r0, r3
 536 000a BD46     		mov	sp, r7
 537              	.LCFI12:
 538              		.cfi_def_cfa_register 13
 539              		@ sp needed
 540 000c 5DF8047B 		ldr	r7, [sp], #4
 541              	.LCFI13:
 542              		.cfi_restore 7
 543              		.cfi_def_cfa_offset 0
 544 0010 7047     		bx	lr
 545              	.L29:
 546 0012 00BF     		.align	2
 547              	.L28:
 548 0014 00000000 		.word	xFreeBytesRemaining
 549              		.cfi_endproc
 550              	.LFE7:
 552              		.section	.text.xPortGetMinimumEverFreeHeapSize,"ax",%progbits
 553              		.align	2
 554              		.global	xPortGetMinimumEverFreeHeapSize
 555              		.thumb
 556              		.thumb_func
 558              	xPortGetMinimumEverFreeHeapSize:
 559              	.LFB8:
 320:../../../../dependencies/freertos/FreeRTOSv10.4.1/FreeRTOS/Source/portable/MemMang/heap_4.c **** /*-----------------------------------------------------------*/
 321:../../../../dependencies/freertos/FreeRTOSv10.4.1/FreeRTOS/Source/portable/MemMang/heap_4.c **** 
 322:../../../../dependencies/freertos/FreeRTOSv10.4.1/FreeRTOS/Source/portable/MemMang/heap_4.c **** size_t xPortGetMinimumEverFreeHeapSize( void )
 323:../../../../dependencies/freertos/FreeRTOSv10.4.1/FreeRTOS/Source/portable/MemMang/heap_4.c **** {
 560              		.loc 1 323 0
 561              		.cfi_startproc
 562              		@ args = 0, pretend = 0, frame = 0
 563              		@ frame_needed = 1, uses_anonymous_args = 0
 564              		@ link register save eliminated.
 565 0000 80B4     		push	{r7}
 566              	.LCFI14:
 567              		.cfi_def_cfa_offset 4
 568              		.cfi_offset 7, -4
 569 0002 00AF     		add	r7, sp, #0
 570              	.LCFI15:
 571              		.cfi_def_cfa_register 7
 324:../../../../dependencies/freertos/FreeRTOSv10.4.1/FreeRTOS/Source/portable/MemMang/heap_4.c ****     return xMinimumEverFreeBytesRemaining;
 572              		.loc 1 324 0
 573 0004 034B     		ldr	r3, .L32
 574 0006 1B68     		ldr	r3, [r3]
 325:../../../../dependencies/freertos/FreeRTOSv10.4.1/FreeRTOS/Source/portable/MemMang/heap_4.c **** }
 575              		.loc 1 325 0
 576 0008 1846     		mov	r0, r3
 577 000a BD46     		mov	sp, r7
 578              	.LCFI16:
 579              		.cfi_def_cfa_register 13
ARM GAS  /var/folders/_8/_cw6l3nd335f_j6cn6z79m4m0000gn/T//ccdKuXwe.s 			page 20


 580              		@ sp needed
 581 000c 5DF8047B 		ldr	r7, [sp], #4
 582              	.LCFI17:
 583              		.cfi_restore 7
 584              		.cfi_def_cfa_offset 0
 585 0010 7047     		bx	lr
 586              	.L33:
 587 0012 00BF     		.align	2
 588              	.L32:
 589 0014 00000000 		.word	xMinimumEverFreeBytesRemaining
 590              		.cfi_endproc
 591              	.LFE8:
 593              		.section	.text.vPortInitialiseBlocks,"ax",%progbits
 594              		.align	2
 595              		.global	vPortInitialiseBlocks
 596              		.thumb
 597              		.thumb_func
 599              	vPortInitialiseBlocks:
 600              	.LFB9:
 326:../../../../dependencies/freertos/FreeRTOSv10.4.1/FreeRTOS/Source/portable/MemMang/heap_4.c **** /*-----------------------------------------------------------*/
 327:../../../../dependencies/freertos/FreeRTOSv10.4.1/FreeRTOS/Source/portable/MemMang/heap_4.c **** 
 328:../../../../dependencies/freertos/FreeRTOSv10.4.1/FreeRTOS/Source/portable/MemMang/heap_4.c **** void vPortInitialiseBlocks( void )
 329:../../../../dependencies/freertos/FreeRTOSv10.4.1/FreeRTOS/Source/portable/MemMang/heap_4.c **** {
 601              		.loc 1 329 0
 602              		.cfi_startproc
 603              		@ args = 0, pretend = 0, frame = 0
 604              		@ frame_needed = 1, uses_anonymous_args = 0
 605              		@ link register save eliminated.
 606 0000 80B4     		push	{r7}
 607              	.LCFI18:
 608              		.cfi_def_cfa_offset 4
 609              		.cfi_offset 7, -4
 610 0002 00AF     		add	r7, sp, #0
 611              	.LCFI19:
 612              		.cfi_def_cfa_register 7
 330:../../../../dependencies/freertos/FreeRTOSv10.4.1/FreeRTOS/Source/portable/MemMang/heap_4.c ****     /* This just exists to keep the linker quiet. */
 331:../../../../dependencies/freertos/FreeRTOSv10.4.1/FreeRTOS/Source/portable/MemMang/heap_4.c **** }
 613              		.loc 1 331 0
 614 0004 BD46     		mov	sp, r7
 615              	.LCFI20:
 616              		.cfi_def_cfa_register 13
 617              		@ sp needed
 618 0006 5DF8047B 		ldr	r7, [sp], #4
 619              	.LCFI21:
 620              		.cfi_restore 7
 621              		.cfi_def_cfa_offset 0
 622 000a 7047     		bx	lr
 623              		.cfi_endproc
 624              	.LFE9:
 626              		.section	.text.prvHeapInit,"ax",%progbits
 627              		.align	2
 628              		.thumb
 629              		.thumb_func
 631              	prvHeapInit:
 632              	.LFB10:
 332:../../../../dependencies/freertos/FreeRTOSv10.4.1/FreeRTOS/Source/portable/MemMang/heap_4.c **** /*-----------------------------------------------------------*/
 333:../../../../dependencies/freertos/FreeRTOSv10.4.1/FreeRTOS/Source/portable/MemMang/heap_4.c **** 
ARM GAS  /var/folders/_8/_cw6l3nd335f_j6cn6z79m4m0000gn/T//ccdKuXwe.s 			page 21


 334:../../../../dependencies/freertos/FreeRTOSv10.4.1/FreeRTOS/Source/portable/MemMang/heap_4.c **** static void prvHeapInit( void ) /* PRIVILEGED_FUNCTION */
 335:../../../../dependencies/freertos/FreeRTOSv10.4.1/FreeRTOS/Source/portable/MemMang/heap_4.c **** {
 633              		.loc 1 335 0
 634              		.cfi_startproc
 635              		@ args = 0, pretend = 0, frame = 16
 636              		@ frame_needed = 1, uses_anonymous_args = 0
 637              		@ link register save eliminated.
 638 0000 80B4     		push	{r7}
 639              	.LCFI22:
 640              		.cfi_def_cfa_offset 4
 641              		.cfi_offset 7, -4
 642 0002 85B0     		sub	sp, sp, #20
 643              	.LCFI23:
 644              		.cfi_def_cfa_offset 24
 645 0004 00AF     		add	r7, sp, #0
 646              	.LCFI24:
 647              		.cfi_def_cfa_register 7
 336:../../../../dependencies/freertos/FreeRTOSv10.4.1/FreeRTOS/Source/portable/MemMang/heap_4.c ****     BlockLink_t * pxFirstFreeBlock;
 337:../../../../dependencies/freertos/FreeRTOSv10.4.1/FreeRTOS/Source/portable/MemMang/heap_4.c ****     uint8_t * pucAlignedHeap;
 338:../../../../dependencies/freertos/FreeRTOSv10.4.1/FreeRTOS/Source/portable/MemMang/heap_4.c ****     size_t uxAddress;
 339:../../../../dependencies/freertos/FreeRTOSv10.4.1/FreeRTOS/Source/portable/MemMang/heap_4.c ****     size_t xTotalHeapSize = configTOTAL_HEAP_SIZE;
 648              		.loc 1 339 0
 649 0006 4FF40053 		mov	r3, #8192
 650 000a BB60     		str	r3, [r7, #8]
 340:../../../../dependencies/freertos/FreeRTOSv10.4.1/FreeRTOS/Source/portable/MemMang/heap_4.c **** 
 341:../../../../dependencies/freertos/FreeRTOSv10.4.1/FreeRTOS/Source/portable/MemMang/heap_4.c ****     /* Ensure the heap starts on a correctly aligned boundary. */
 342:../../../../dependencies/freertos/FreeRTOSv10.4.1/FreeRTOS/Source/portable/MemMang/heap_4.c ****     uxAddress = ( size_t ) ucHeap;
 651              		.loc 1 342 0
 652 000c 274B     		ldr	r3, .L37
 653 000e FB60     		str	r3, [r7, #12]
 343:../../../../dependencies/freertos/FreeRTOSv10.4.1/FreeRTOS/Source/portable/MemMang/heap_4.c **** 
 344:../../../../dependencies/freertos/FreeRTOSv10.4.1/FreeRTOS/Source/portable/MemMang/heap_4.c ****     if( ( uxAddress & portBYTE_ALIGNMENT_MASK ) != 0 )
 654              		.loc 1 344 0
 655 0010 FB68     		ldr	r3, [r7, #12]
 656 0012 03F00703 		and	r3, r3, #7
 657 0016 002B     		cmp	r3, #0
 658 0018 0CD0     		beq	.L36
 345:../../../../dependencies/freertos/FreeRTOSv10.4.1/FreeRTOS/Source/portable/MemMang/heap_4.c ****     {
 346:../../../../dependencies/freertos/FreeRTOSv10.4.1/FreeRTOS/Source/portable/MemMang/heap_4.c ****         uxAddress += ( portBYTE_ALIGNMENT - 1 );
 659              		.loc 1 346 0
 660 001a FB68     		ldr	r3, [r7, #12]
 661 001c 0733     		adds	r3, r3, #7
 662 001e FB60     		str	r3, [r7, #12]
 347:../../../../dependencies/freertos/FreeRTOSv10.4.1/FreeRTOS/Source/portable/MemMang/heap_4.c ****         uxAddress &= ~( ( size_t ) portBYTE_ALIGNMENT_MASK );
 663              		.loc 1 347 0
 664 0020 FB68     		ldr	r3, [r7, #12]
 665 0022 23F00703 		bic	r3, r3, #7
 666 0026 FB60     		str	r3, [r7, #12]
 348:../../../../dependencies/freertos/FreeRTOSv10.4.1/FreeRTOS/Source/portable/MemMang/heap_4.c ****         xTotalHeapSize -= uxAddress - ( size_t ) ucHeap;
 667              		.loc 1 348 0
 668 0028 BA68     		ldr	r2, [r7, #8]
 669 002a FB68     		ldr	r3, [r7, #12]
 670 002c D31A     		subs	r3, r2, r3
 671 002e 1F4A     		ldr	r2, .L37
 672 0030 1344     		add	r3, r3, r2
 673 0032 BB60     		str	r3, [r7, #8]
 674              	.L36:
ARM GAS  /var/folders/_8/_cw6l3nd335f_j6cn6z79m4m0000gn/T//ccdKuXwe.s 			page 22


 349:../../../../dependencies/freertos/FreeRTOSv10.4.1/FreeRTOS/Source/portable/MemMang/heap_4.c ****     }
 350:../../../../dependencies/freertos/FreeRTOSv10.4.1/FreeRTOS/Source/portable/MemMang/heap_4.c **** 
 351:../../../../dependencies/freertos/FreeRTOSv10.4.1/FreeRTOS/Source/portable/MemMang/heap_4.c ****     pucAlignedHeap = ( uint8_t * ) uxAddress;
 675              		.loc 1 351 0
 676 0034 FB68     		ldr	r3, [r7, #12]
 677 0036 7B60     		str	r3, [r7, #4]
 352:../../../../dependencies/freertos/FreeRTOSv10.4.1/FreeRTOS/Source/portable/MemMang/heap_4.c **** 
 353:../../../../dependencies/freertos/FreeRTOSv10.4.1/FreeRTOS/Source/portable/MemMang/heap_4.c ****     /* xStart is used to hold a pointer to the first item in the list of free
 354:../../../../dependencies/freertos/FreeRTOSv10.4.1/FreeRTOS/Source/portable/MemMang/heap_4.c ****      * blocks.  The void cast is used to prevent compiler warnings. */
 355:../../../../dependencies/freertos/FreeRTOSv10.4.1/FreeRTOS/Source/portable/MemMang/heap_4.c ****     xStart.pxNextFreeBlock = ( void * ) pucAlignedHeap;
 678              		.loc 1 355 0
 679 0038 1D4A     		ldr	r2, .L37+4
 680 003a 7B68     		ldr	r3, [r7, #4]
 681 003c 1360     		str	r3, [r2]
 356:../../../../dependencies/freertos/FreeRTOSv10.4.1/FreeRTOS/Source/portable/MemMang/heap_4.c ****     xStart.xBlockSize = ( size_t ) 0;
 682              		.loc 1 356 0
 683 003e 1C4B     		ldr	r3, .L37+4
 684 0040 0022     		movs	r2, #0
 685 0042 5A60     		str	r2, [r3, #4]
 357:../../../../dependencies/freertos/FreeRTOSv10.4.1/FreeRTOS/Source/portable/MemMang/heap_4.c **** 
 358:../../../../dependencies/freertos/FreeRTOSv10.4.1/FreeRTOS/Source/portable/MemMang/heap_4.c ****     /* pxEnd is used to mark the end of the list of free blocks and is inserted
 359:../../../../dependencies/freertos/FreeRTOSv10.4.1/FreeRTOS/Source/portable/MemMang/heap_4.c ****      * at the end of the heap space. */
 360:../../../../dependencies/freertos/FreeRTOSv10.4.1/FreeRTOS/Source/portable/MemMang/heap_4.c ****     uxAddress = ( ( size_t ) pucAlignedHeap ) + xTotalHeapSize;
 686              		.loc 1 360 0
 687 0044 7A68     		ldr	r2, [r7, #4]
 688 0046 BB68     		ldr	r3, [r7, #8]
 689 0048 1344     		add	r3, r3, r2
 690 004a FB60     		str	r3, [r7, #12]
 361:../../../../dependencies/freertos/FreeRTOSv10.4.1/FreeRTOS/Source/portable/MemMang/heap_4.c ****     uxAddress -= xHeapStructSize;
 691              		.loc 1 361 0
 692 004c 0822     		movs	r2, #8
 693 004e FB68     		ldr	r3, [r7, #12]
 694 0050 9B1A     		subs	r3, r3, r2
 695 0052 FB60     		str	r3, [r7, #12]
 362:../../../../dependencies/freertos/FreeRTOSv10.4.1/FreeRTOS/Source/portable/MemMang/heap_4.c ****     uxAddress &= ~( ( size_t ) portBYTE_ALIGNMENT_MASK );
 696              		.loc 1 362 0
 697 0054 FB68     		ldr	r3, [r7, #12]
 698 0056 23F00703 		bic	r3, r3, #7
 699 005a FB60     		str	r3, [r7, #12]
 363:../../../../dependencies/freertos/FreeRTOSv10.4.1/FreeRTOS/Source/portable/MemMang/heap_4.c ****     pxEnd = ( void * ) uxAddress;
 700              		.loc 1 363 0
 701 005c FB68     		ldr	r3, [r7, #12]
 702 005e 154A     		ldr	r2, .L37+8
 703 0060 1360     		str	r3, [r2]
 364:../../../../dependencies/freertos/FreeRTOSv10.4.1/FreeRTOS/Source/portable/MemMang/heap_4.c ****     pxEnd->xBlockSize = 0;
 704              		.loc 1 364 0
 705 0062 144B     		ldr	r3, .L37+8
 706 0064 1B68     		ldr	r3, [r3]
 707 0066 0022     		movs	r2, #0
 708 0068 5A60     		str	r2, [r3, #4]
 365:../../../../dependencies/freertos/FreeRTOSv10.4.1/FreeRTOS/Source/portable/MemMang/heap_4.c ****     pxEnd->pxNextFreeBlock = NULL;
 709              		.loc 1 365 0
 710 006a 124B     		ldr	r3, .L37+8
 711 006c 1B68     		ldr	r3, [r3]
 712 006e 0022     		movs	r2, #0
 713 0070 1A60     		str	r2, [r3]
 366:../../../../dependencies/freertos/FreeRTOSv10.4.1/FreeRTOS/Source/portable/MemMang/heap_4.c **** 
ARM GAS  /var/folders/_8/_cw6l3nd335f_j6cn6z79m4m0000gn/T//ccdKuXwe.s 			page 23


 367:../../../../dependencies/freertos/FreeRTOSv10.4.1/FreeRTOS/Source/portable/MemMang/heap_4.c ****     /* To start with there is a single free block that is sized to take up the
 368:../../../../dependencies/freertos/FreeRTOSv10.4.1/FreeRTOS/Source/portable/MemMang/heap_4.c ****      * entire heap space, minus the space taken by pxEnd. */
 369:../../../../dependencies/freertos/FreeRTOSv10.4.1/FreeRTOS/Source/portable/MemMang/heap_4.c ****     pxFirstFreeBlock = ( void * ) pucAlignedHeap;
 714              		.loc 1 369 0
 715 0072 7B68     		ldr	r3, [r7, #4]
 716 0074 3B60     		str	r3, [r7]
 370:../../../../dependencies/freertos/FreeRTOSv10.4.1/FreeRTOS/Source/portable/MemMang/heap_4.c ****     pxFirstFreeBlock->xBlockSize = uxAddress - ( size_t ) pxFirstFreeBlock;
 717              		.loc 1 370 0
 718 0076 3B68     		ldr	r3, [r7]
 719 0078 FA68     		ldr	r2, [r7, #12]
 720 007a D21A     		subs	r2, r2, r3
 721 007c 3B68     		ldr	r3, [r7]
 722 007e 5A60     		str	r2, [r3, #4]
 371:../../../../dependencies/freertos/FreeRTOSv10.4.1/FreeRTOS/Source/portable/MemMang/heap_4.c ****     pxFirstFreeBlock->pxNextFreeBlock = pxEnd;
 723              		.loc 1 371 0
 724 0080 0C4B     		ldr	r3, .L37+8
 725 0082 1A68     		ldr	r2, [r3]
 726 0084 3B68     		ldr	r3, [r7]
 727 0086 1A60     		str	r2, [r3]
 372:../../../../dependencies/freertos/FreeRTOSv10.4.1/FreeRTOS/Source/portable/MemMang/heap_4.c **** 
 373:../../../../dependencies/freertos/FreeRTOSv10.4.1/FreeRTOS/Source/portable/MemMang/heap_4.c ****     /* Only one block exists - and it covers the entire usable heap space. */
 374:../../../../dependencies/freertos/FreeRTOSv10.4.1/FreeRTOS/Source/portable/MemMang/heap_4.c ****     xMinimumEverFreeBytesRemaining = pxFirstFreeBlock->xBlockSize;
 728              		.loc 1 374 0
 729 0088 3B68     		ldr	r3, [r7]
 730 008a 5B68     		ldr	r3, [r3, #4]
 731 008c 0A4A     		ldr	r2, .L37+12
 732 008e 1360     		str	r3, [r2]
 375:../../../../dependencies/freertos/FreeRTOSv10.4.1/FreeRTOS/Source/portable/MemMang/heap_4.c ****     xFreeBytesRemaining = pxFirstFreeBlock->xBlockSize;
 733              		.loc 1 375 0
 734 0090 3B68     		ldr	r3, [r7]
 735 0092 5B68     		ldr	r3, [r3, #4]
 736 0094 094A     		ldr	r2, .L37+16
 737 0096 1360     		str	r3, [r2]
 376:../../../../dependencies/freertos/FreeRTOSv10.4.1/FreeRTOS/Source/portable/MemMang/heap_4.c **** 
 377:../../../../dependencies/freertos/FreeRTOSv10.4.1/FreeRTOS/Source/portable/MemMang/heap_4.c ****     /* Work out the position of the top bit in a size_t variable. */
 378:../../../../dependencies/freertos/FreeRTOSv10.4.1/FreeRTOS/Source/portable/MemMang/heap_4.c ****     xBlockAllocatedBit = ( ( size_t ) 1 ) << ( ( sizeof( size_t ) * heapBITS_PER_BYTE ) - 1 );
 738              		.loc 1 378 0
 739 0098 094B     		ldr	r3, .L37+20
 740 009a 4FF00042 		mov	r2, #-2147483648
 741 009e 1A60     		str	r2, [r3]
 379:../../../../dependencies/freertos/FreeRTOSv10.4.1/FreeRTOS/Source/portable/MemMang/heap_4.c **** }
 742              		.loc 1 379 0
 743 00a0 1437     		adds	r7, r7, #20
 744              	.LCFI25:
 745              		.cfi_def_cfa_offset 4
 746 00a2 BD46     		mov	sp, r7
 747              	.LCFI26:
 748              		.cfi_def_cfa_register 13
 749              		@ sp needed
 750 00a4 5DF8047B 		ldr	r7, [sp], #4
 751              	.LCFI27:
 752              		.cfi_restore 7
 753              		.cfi_def_cfa_offset 0
 754 00a8 7047     		bx	lr
 755              	.L38:
 756 00aa 00BF     		.align	2
 757              	.L37:
ARM GAS  /var/folders/_8/_cw6l3nd335f_j6cn6z79m4m0000gn/T//ccdKuXwe.s 			page 24


 758 00ac 00000000 		.word	ucHeap
 759 00b0 00000000 		.word	xStart
 760 00b4 00000000 		.word	pxEnd
 761 00b8 00000000 		.word	xMinimumEverFreeBytesRemaining
 762 00bc 00000000 		.word	xFreeBytesRemaining
 763 00c0 00000000 		.word	xBlockAllocatedBit
 764              		.cfi_endproc
 765              	.LFE10:
 767              		.section	.text.prvInsertBlockIntoFreeList,"ax",%progbits
 768              		.align	2
 769              		.thumb
 770              		.thumb_func
 772              	prvInsertBlockIntoFreeList:
 773              	.LFB11:
 380:../../../../dependencies/freertos/FreeRTOSv10.4.1/FreeRTOS/Source/portable/MemMang/heap_4.c **** /*-----------------------------------------------------------*/
 381:../../../../dependencies/freertos/FreeRTOSv10.4.1/FreeRTOS/Source/portable/MemMang/heap_4.c **** 
 382:../../../../dependencies/freertos/FreeRTOSv10.4.1/FreeRTOS/Source/portable/MemMang/heap_4.c **** static void prvInsertBlockIntoFreeList( BlockLink_t * pxBlockToInsert ) /* PRIVILEGED_FUNCTION */
 383:../../../../dependencies/freertos/FreeRTOSv10.4.1/FreeRTOS/Source/portable/MemMang/heap_4.c **** {
 774              		.loc 1 383 0
 775              		.cfi_startproc
 776              		@ args = 0, pretend = 0, frame = 16
 777              		@ frame_needed = 1, uses_anonymous_args = 0
 778              		@ link register save eliminated.
 779 0000 80B4     		push	{r7}
 780              	.LCFI28:
 781              		.cfi_def_cfa_offset 4
 782              		.cfi_offset 7, -4
 783 0002 85B0     		sub	sp, sp, #20
 784              	.LCFI29:
 785              		.cfi_def_cfa_offset 24
 786 0004 00AF     		add	r7, sp, #0
 787              	.LCFI30:
 788              		.cfi_def_cfa_register 7
 789 0006 7860     		str	r0, [r7, #4]
 384:../../../../dependencies/freertos/FreeRTOSv10.4.1/FreeRTOS/Source/portable/MemMang/heap_4.c ****     BlockLink_t * pxIterator;
 385:../../../../dependencies/freertos/FreeRTOSv10.4.1/FreeRTOS/Source/portable/MemMang/heap_4.c ****     uint8_t * puc;
 386:../../../../dependencies/freertos/FreeRTOSv10.4.1/FreeRTOS/Source/portable/MemMang/heap_4.c **** 
 387:../../../../dependencies/freertos/FreeRTOSv10.4.1/FreeRTOS/Source/portable/MemMang/heap_4.c ****     /* Iterate through the list until a block is found that has a higher address
 388:../../../../dependencies/freertos/FreeRTOSv10.4.1/FreeRTOS/Source/portable/MemMang/heap_4.c ****      * than the block being inserted. */
 389:../../../../dependencies/freertos/FreeRTOSv10.4.1/FreeRTOS/Source/portable/MemMang/heap_4.c ****     for( pxIterator = &xStart; pxIterator->pxNextFreeBlock < pxBlockToInsert; pxIterator = pxIterat
 790              		.loc 1 389 0
 791 0008 274B     		ldr	r3, .L48
 792 000a FB60     		str	r3, [r7, #12]
 793 000c 02E0     		b	.L40
 794              	.L41:
 795              		.loc 1 389 0 is_stmt 0 discriminator 3
 796 000e FB68     		ldr	r3, [r7, #12]
 797 0010 1B68     		ldr	r3, [r3]
 798 0012 FB60     		str	r3, [r7, #12]
 799              	.L40:
 800              		.loc 1 389 0 discriminator 1
 801 0014 FB68     		ldr	r3, [r7, #12]
 802 0016 1A68     		ldr	r2, [r3]
 803 0018 7B68     		ldr	r3, [r7, #4]
 804 001a 9A42     		cmp	r2, r3
 805 001c F7D3     		bcc	.L41
 390:../../../../dependencies/freertos/FreeRTOSv10.4.1/FreeRTOS/Source/portable/MemMang/heap_4.c ****     {
ARM GAS  /var/folders/_8/_cw6l3nd335f_j6cn6z79m4m0000gn/T//ccdKuXwe.s 			page 25


 391:../../../../dependencies/freertos/FreeRTOSv10.4.1/FreeRTOS/Source/portable/MemMang/heap_4.c ****         /* Nothing to do here, just iterate to the right position. */
 392:../../../../dependencies/freertos/FreeRTOSv10.4.1/FreeRTOS/Source/portable/MemMang/heap_4.c ****     }
 393:../../../../dependencies/freertos/FreeRTOSv10.4.1/FreeRTOS/Source/portable/MemMang/heap_4.c **** 
 394:../../../../dependencies/freertos/FreeRTOSv10.4.1/FreeRTOS/Source/portable/MemMang/heap_4.c ****     /* Do the block being inserted, and the block it is being inserted after
 395:../../../../dependencies/freertos/FreeRTOSv10.4.1/FreeRTOS/Source/portable/MemMang/heap_4.c ****      * make a contiguous block of memory? */
 396:../../../../dependencies/freertos/FreeRTOSv10.4.1/FreeRTOS/Source/portable/MemMang/heap_4.c ****     puc = ( uint8_t * ) pxIterator;
 806              		.loc 1 396 0 is_stmt 1
 807 001e FB68     		ldr	r3, [r7, #12]
 808 0020 BB60     		str	r3, [r7, #8]
 397:../../../../dependencies/freertos/FreeRTOSv10.4.1/FreeRTOS/Source/portable/MemMang/heap_4.c **** 
 398:../../../../dependencies/freertos/FreeRTOSv10.4.1/FreeRTOS/Source/portable/MemMang/heap_4.c ****     if( ( puc + pxIterator->xBlockSize ) == ( uint8_t * ) pxBlockToInsert )
 809              		.loc 1 398 0
 810 0022 FB68     		ldr	r3, [r7, #12]
 811 0024 5B68     		ldr	r3, [r3, #4]
 812 0026 BA68     		ldr	r2, [r7, #8]
 813 0028 1A44     		add	r2, r2, r3
 814 002a 7B68     		ldr	r3, [r7, #4]
 815 002c 9A42     		cmp	r2, r3
 816 002e 08D1     		bne	.L42
 399:../../../../dependencies/freertos/FreeRTOSv10.4.1/FreeRTOS/Source/portable/MemMang/heap_4.c ****     {
 400:../../../../dependencies/freertos/FreeRTOSv10.4.1/FreeRTOS/Source/portable/MemMang/heap_4.c ****         pxIterator->xBlockSize += pxBlockToInsert->xBlockSize;
 817              		.loc 1 400 0
 818 0030 FB68     		ldr	r3, [r7, #12]
 819 0032 5A68     		ldr	r2, [r3, #4]
 820 0034 7B68     		ldr	r3, [r7, #4]
 821 0036 5B68     		ldr	r3, [r3, #4]
 822 0038 1A44     		add	r2, r2, r3
 823 003a FB68     		ldr	r3, [r7, #12]
 824 003c 5A60     		str	r2, [r3, #4]
 401:../../../../dependencies/freertos/FreeRTOSv10.4.1/FreeRTOS/Source/portable/MemMang/heap_4.c ****         pxBlockToInsert = pxIterator;
 825              		.loc 1 401 0
 826 003e FB68     		ldr	r3, [r7, #12]
 827 0040 7B60     		str	r3, [r7, #4]
 828              	.L42:
 402:../../../../dependencies/freertos/FreeRTOSv10.4.1/FreeRTOS/Source/portable/MemMang/heap_4.c ****     }
 403:../../../../dependencies/freertos/FreeRTOSv10.4.1/FreeRTOS/Source/portable/MemMang/heap_4.c ****     else
 404:../../../../dependencies/freertos/FreeRTOSv10.4.1/FreeRTOS/Source/portable/MemMang/heap_4.c ****     {
 405:../../../../dependencies/freertos/FreeRTOSv10.4.1/FreeRTOS/Source/portable/MemMang/heap_4.c ****         mtCOVERAGE_TEST_MARKER();
 406:../../../../dependencies/freertos/FreeRTOSv10.4.1/FreeRTOS/Source/portable/MemMang/heap_4.c ****     }
 407:../../../../dependencies/freertos/FreeRTOSv10.4.1/FreeRTOS/Source/portable/MemMang/heap_4.c **** 
 408:../../../../dependencies/freertos/FreeRTOSv10.4.1/FreeRTOS/Source/portable/MemMang/heap_4.c ****     /* Do the block being inserted, and the block it is being inserted before
 409:../../../../dependencies/freertos/FreeRTOSv10.4.1/FreeRTOS/Source/portable/MemMang/heap_4.c ****      * make a contiguous block of memory? */
 410:../../../../dependencies/freertos/FreeRTOSv10.4.1/FreeRTOS/Source/portable/MemMang/heap_4.c ****     puc = ( uint8_t * ) pxBlockToInsert;
 829              		.loc 1 410 0
 830 0042 7B68     		ldr	r3, [r7, #4]
 831 0044 BB60     		str	r3, [r7, #8]
 411:../../../../dependencies/freertos/FreeRTOSv10.4.1/FreeRTOS/Source/portable/MemMang/heap_4.c **** 
 412:../../../../dependencies/freertos/FreeRTOSv10.4.1/FreeRTOS/Source/portable/MemMang/heap_4.c ****     if( ( puc + pxBlockToInsert->xBlockSize ) == ( uint8_t * ) pxIterator->pxNextFreeBlock )
 832              		.loc 1 412 0
 833 0046 7B68     		ldr	r3, [r7, #4]
 834 0048 5B68     		ldr	r3, [r3, #4]
 835 004a BA68     		ldr	r2, [r7, #8]
 836 004c 1A44     		add	r2, r2, r3
 837 004e FB68     		ldr	r3, [r7, #12]
 838 0050 1B68     		ldr	r3, [r3]
 839 0052 9A42     		cmp	r2, r3
 840 0054 18D1     		bne	.L43
ARM GAS  /var/folders/_8/_cw6l3nd335f_j6cn6z79m4m0000gn/T//ccdKuXwe.s 			page 26


 413:../../../../dependencies/freertos/FreeRTOSv10.4.1/FreeRTOS/Source/portable/MemMang/heap_4.c ****     {
 414:../../../../dependencies/freertos/FreeRTOSv10.4.1/FreeRTOS/Source/portable/MemMang/heap_4.c ****         if( pxIterator->pxNextFreeBlock != pxEnd )
 841              		.loc 1 414 0
 842 0056 FB68     		ldr	r3, [r7, #12]
 843 0058 1A68     		ldr	r2, [r3]
 844 005a 144B     		ldr	r3, .L48+4
 845 005c 1B68     		ldr	r3, [r3]
 846 005e 9A42     		cmp	r2, r3
 847 0060 0DD0     		beq	.L44
 415:../../../../dependencies/freertos/FreeRTOSv10.4.1/FreeRTOS/Source/portable/MemMang/heap_4.c ****         {
 416:../../../../dependencies/freertos/FreeRTOSv10.4.1/FreeRTOS/Source/portable/MemMang/heap_4.c ****             /* Form one big block from the two blocks. */
 417:../../../../dependencies/freertos/FreeRTOSv10.4.1/FreeRTOS/Source/portable/MemMang/heap_4.c ****             pxBlockToInsert->xBlockSize += pxIterator->pxNextFreeBlock->xBlockSize;
 848              		.loc 1 417 0
 849 0062 7B68     		ldr	r3, [r7, #4]
 850 0064 5A68     		ldr	r2, [r3, #4]
 851 0066 FB68     		ldr	r3, [r7, #12]
 852 0068 1B68     		ldr	r3, [r3]
 853 006a 5B68     		ldr	r3, [r3, #4]
 854 006c 1A44     		add	r2, r2, r3
 855 006e 7B68     		ldr	r3, [r7, #4]
 856 0070 5A60     		str	r2, [r3, #4]
 418:../../../../dependencies/freertos/FreeRTOSv10.4.1/FreeRTOS/Source/portable/MemMang/heap_4.c ****             pxBlockToInsert->pxNextFreeBlock = pxIterator->pxNextFreeBlock->pxNextFreeBlock;
 857              		.loc 1 418 0
 858 0072 FB68     		ldr	r3, [r7, #12]
 859 0074 1B68     		ldr	r3, [r3]
 860 0076 1A68     		ldr	r2, [r3]
 861 0078 7B68     		ldr	r3, [r7, #4]
 862 007a 1A60     		str	r2, [r3]
 863 007c 08E0     		b	.L46
 864              	.L44:
 419:../../../../dependencies/freertos/FreeRTOSv10.4.1/FreeRTOS/Source/portable/MemMang/heap_4.c ****         }
 420:../../../../dependencies/freertos/FreeRTOSv10.4.1/FreeRTOS/Source/portable/MemMang/heap_4.c ****         else
 421:../../../../dependencies/freertos/FreeRTOSv10.4.1/FreeRTOS/Source/portable/MemMang/heap_4.c ****         {
 422:../../../../dependencies/freertos/FreeRTOSv10.4.1/FreeRTOS/Source/portable/MemMang/heap_4.c ****             pxBlockToInsert->pxNextFreeBlock = pxEnd;
 865              		.loc 1 422 0
 866 007e 0B4B     		ldr	r3, .L48+4
 867 0080 1A68     		ldr	r2, [r3]
 868 0082 7B68     		ldr	r3, [r7, #4]
 869 0084 1A60     		str	r2, [r3]
 870 0086 03E0     		b	.L46
 871              	.L43:
 423:../../../../dependencies/freertos/FreeRTOSv10.4.1/FreeRTOS/Source/portable/MemMang/heap_4.c ****         }
 424:../../../../dependencies/freertos/FreeRTOSv10.4.1/FreeRTOS/Source/portable/MemMang/heap_4.c ****     }
 425:../../../../dependencies/freertos/FreeRTOSv10.4.1/FreeRTOS/Source/portable/MemMang/heap_4.c ****     else
 426:../../../../dependencies/freertos/FreeRTOSv10.4.1/FreeRTOS/Source/portable/MemMang/heap_4.c ****     {
 427:../../../../dependencies/freertos/FreeRTOSv10.4.1/FreeRTOS/Source/portable/MemMang/heap_4.c ****         pxBlockToInsert->pxNextFreeBlock = pxIterator->pxNextFreeBlock;
 872              		.loc 1 427 0
 873 0088 FB68     		ldr	r3, [r7, #12]
 874 008a 1A68     		ldr	r2, [r3]
 875 008c 7B68     		ldr	r3, [r7, #4]
 876 008e 1A60     		str	r2, [r3]
 877              	.L46:
 428:../../../../dependencies/freertos/FreeRTOSv10.4.1/FreeRTOS/Source/portable/MemMang/heap_4.c ****     }
 429:../../../../dependencies/freertos/FreeRTOSv10.4.1/FreeRTOS/Source/portable/MemMang/heap_4.c **** 
 430:../../../../dependencies/freertos/FreeRTOSv10.4.1/FreeRTOS/Source/portable/MemMang/heap_4.c ****     /* If the block being inserted plugged a gab, so was merged with the block
 431:../../../../dependencies/freertos/FreeRTOSv10.4.1/FreeRTOS/Source/portable/MemMang/heap_4.c ****      * before and the block after, then it's pxNextFreeBlock pointer will have
 432:../../../../dependencies/freertos/FreeRTOSv10.4.1/FreeRTOS/Source/portable/MemMang/heap_4.c ****      * already been set, and should not be set here as that would make it point
ARM GAS  /var/folders/_8/_cw6l3nd335f_j6cn6z79m4m0000gn/T//ccdKuXwe.s 			page 27


 433:../../../../dependencies/freertos/FreeRTOSv10.4.1/FreeRTOS/Source/portable/MemMang/heap_4.c ****      * to itself. */
 434:../../../../dependencies/freertos/FreeRTOSv10.4.1/FreeRTOS/Source/portable/MemMang/heap_4.c ****     if( pxIterator != pxBlockToInsert )
 878              		.loc 1 434 0
 879 0090 FA68     		ldr	r2, [r7, #12]
 880 0092 7B68     		ldr	r3, [r7, #4]
 881 0094 9A42     		cmp	r2, r3
 882 0096 02D0     		beq	.L39
 435:../../../../dependencies/freertos/FreeRTOSv10.4.1/FreeRTOS/Source/portable/MemMang/heap_4.c ****     {
 436:../../../../dependencies/freertos/FreeRTOSv10.4.1/FreeRTOS/Source/portable/MemMang/heap_4.c ****         pxIterator->pxNextFreeBlock = pxBlockToInsert;
 883              		.loc 1 436 0
 884 0098 FB68     		ldr	r3, [r7, #12]
 885 009a 7A68     		ldr	r2, [r7, #4]
 886 009c 1A60     		str	r2, [r3]
 887              	.L39:
 437:../../../../dependencies/freertos/FreeRTOSv10.4.1/FreeRTOS/Source/portable/MemMang/heap_4.c ****     }
 438:../../../../dependencies/freertos/FreeRTOSv10.4.1/FreeRTOS/Source/portable/MemMang/heap_4.c ****     else
 439:../../../../dependencies/freertos/FreeRTOSv10.4.1/FreeRTOS/Source/portable/MemMang/heap_4.c ****     {
 440:../../../../dependencies/freertos/FreeRTOSv10.4.1/FreeRTOS/Source/portable/MemMang/heap_4.c ****         mtCOVERAGE_TEST_MARKER();
 441:../../../../dependencies/freertos/FreeRTOSv10.4.1/FreeRTOS/Source/portable/MemMang/heap_4.c ****     }
 442:../../../../dependencies/freertos/FreeRTOSv10.4.1/FreeRTOS/Source/portable/MemMang/heap_4.c **** }
 888              		.loc 1 442 0
 889 009e 1437     		adds	r7, r7, #20
 890              	.LCFI31:
 891              		.cfi_def_cfa_offset 4
 892 00a0 BD46     		mov	sp, r7
 893              	.LCFI32:
 894              		.cfi_def_cfa_register 13
 895              		@ sp needed
 896 00a2 5DF8047B 		ldr	r7, [sp], #4
 897              	.LCFI33:
 898              		.cfi_restore 7
 899              		.cfi_def_cfa_offset 0
 900 00a6 7047     		bx	lr
 901              	.L49:
 902              		.align	2
 903              	.L48:
 904 00a8 00000000 		.word	xStart
 905 00ac 00000000 		.word	pxEnd
 906              		.cfi_endproc
 907              	.LFE11:
 909              		.section	.text.vPortGetHeapStats,"ax",%progbits
 910              		.align	2
 911              		.global	vPortGetHeapStats
 912              		.thumb
 913              		.thumb_func
 915              	vPortGetHeapStats:
 916              	.LFB12:
 443:../../../../dependencies/freertos/FreeRTOSv10.4.1/FreeRTOS/Source/portable/MemMang/heap_4.c **** /*-----------------------------------------------------------*/
 444:../../../../dependencies/freertos/FreeRTOSv10.4.1/FreeRTOS/Source/portable/MemMang/heap_4.c **** 
 445:../../../../dependencies/freertos/FreeRTOSv10.4.1/FreeRTOS/Source/portable/MemMang/heap_4.c **** void vPortGetHeapStats( HeapStats_t * pxHeapStats )
 446:../../../../dependencies/freertos/FreeRTOSv10.4.1/FreeRTOS/Source/portable/MemMang/heap_4.c **** {
 917              		.loc 1 446 0
 918              		.cfi_startproc
 919              		@ args = 0, pretend = 0, frame = 24
 920              		@ frame_needed = 1, uses_anonymous_args = 0
 921 0000 80B5     		push	{r7, lr}
 922              	.LCFI34:
ARM GAS  /var/folders/_8/_cw6l3nd335f_j6cn6z79m4m0000gn/T//ccdKuXwe.s 			page 28


 923              		.cfi_def_cfa_offset 8
 924              		.cfi_offset 7, -8
 925              		.cfi_offset 14, -4
 926 0002 86B0     		sub	sp, sp, #24
 927              	.LCFI35:
 928              		.cfi_def_cfa_offset 32
 929 0004 00AF     		add	r7, sp, #0
 930              	.LCFI36:
 931              		.cfi_def_cfa_register 7
 932 0006 7860     		str	r0, [r7, #4]
 447:../../../../dependencies/freertos/FreeRTOSv10.4.1/FreeRTOS/Source/portable/MemMang/heap_4.c ****     BlockLink_t * pxBlock;
 448:../../../../dependencies/freertos/FreeRTOSv10.4.1/FreeRTOS/Source/portable/MemMang/heap_4.c ****     size_t xBlocks = 0, xMaxSize = 0, xMinSize = portMAX_DELAY; /* portMAX_DELAY used as a portable
 933              		.loc 1 448 0
 934 0008 0023     		movs	r3, #0
 935 000a 3B61     		str	r3, [r7, #16]
 936 000c 0023     		movs	r3, #0
 937 000e FB60     		str	r3, [r7, #12]
 938 0010 4FF0FF33 		mov	r3, #-1
 939 0014 BB60     		str	r3, [r7, #8]
 449:../../../../dependencies/freertos/FreeRTOSv10.4.1/FreeRTOS/Source/portable/MemMang/heap_4.c **** 
 450:../../../../dependencies/freertos/FreeRTOSv10.4.1/FreeRTOS/Source/portable/MemMang/heap_4.c ****     vTaskSuspendAll();
 940              		.loc 1 450 0
 941 0016 FFF7FEFF 		bl	vTaskSuspendAll
 451:../../../../dependencies/freertos/FreeRTOSv10.4.1/FreeRTOS/Source/portable/MemMang/heap_4.c ****     {
 452:../../../../dependencies/freertos/FreeRTOSv10.4.1/FreeRTOS/Source/portable/MemMang/heap_4.c ****         pxBlock = xStart.pxNextFreeBlock;
 942              		.loc 1 452 0
 943 001a 214B     		ldr	r3, .L55
 944 001c 1B68     		ldr	r3, [r3]
 945 001e 7B61     		str	r3, [r7, #20]
 453:../../../../dependencies/freertos/FreeRTOSv10.4.1/FreeRTOS/Source/portable/MemMang/heap_4.c **** 
 454:../../../../dependencies/freertos/FreeRTOSv10.4.1/FreeRTOS/Source/portable/MemMang/heap_4.c ****         /* pxBlock will be NULL if the heap has not been initialised.  The heap
 455:../../../../dependencies/freertos/FreeRTOSv10.4.1/FreeRTOS/Source/portable/MemMang/heap_4.c ****          * is initialised automatically when the first allocation is made. */
 456:../../../../dependencies/freertos/FreeRTOSv10.4.1/FreeRTOS/Source/portable/MemMang/heap_4.c ****         if( pxBlock != NULL )
 946              		.loc 1 456 0
 947 0020 7B69     		ldr	r3, [r7, #20]
 948 0022 002B     		cmp	r3, #0
 949 0024 1AD0     		beq	.L51
 950              	.L54:
 457:../../../../dependencies/freertos/FreeRTOSv10.4.1/FreeRTOS/Source/portable/MemMang/heap_4.c ****         {
 458:../../../../dependencies/freertos/FreeRTOSv10.4.1/FreeRTOS/Source/portable/MemMang/heap_4.c ****             do
 459:../../../../dependencies/freertos/FreeRTOSv10.4.1/FreeRTOS/Source/portable/MemMang/heap_4.c ****             {
 460:../../../../dependencies/freertos/FreeRTOSv10.4.1/FreeRTOS/Source/portable/MemMang/heap_4.c ****                 /* Increment the number of blocks and record the largest block seen
 461:../../../../dependencies/freertos/FreeRTOSv10.4.1/FreeRTOS/Source/portable/MemMang/heap_4.c ****                  * so far. */
 462:../../../../dependencies/freertos/FreeRTOSv10.4.1/FreeRTOS/Source/portable/MemMang/heap_4.c ****                 xBlocks++;
 951              		.loc 1 462 0
 952 0026 3B69     		ldr	r3, [r7, #16]
 953 0028 0133     		adds	r3, r3, #1
 954 002a 3B61     		str	r3, [r7, #16]
 463:../../../../dependencies/freertos/FreeRTOSv10.4.1/FreeRTOS/Source/portable/MemMang/heap_4.c **** 
 464:../../../../dependencies/freertos/FreeRTOSv10.4.1/FreeRTOS/Source/portable/MemMang/heap_4.c ****                 if( pxBlock->xBlockSize > xMaxSize )
 955              		.loc 1 464 0
 956 002c 7B69     		ldr	r3, [r7, #20]
 957 002e 5A68     		ldr	r2, [r3, #4]
 958 0030 FB68     		ldr	r3, [r7, #12]
 959 0032 9A42     		cmp	r2, r3
 960 0034 02D9     		bls	.L52
 465:../../../../dependencies/freertos/FreeRTOSv10.4.1/FreeRTOS/Source/portable/MemMang/heap_4.c ****                 {
ARM GAS  /var/folders/_8/_cw6l3nd335f_j6cn6z79m4m0000gn/T//ccdKuXwe.s 			page 29


 466:../../../../dependencies/freertos/FreeRTOSv10.4.1/FreeRTOS/Source/portable/MemMang/heap_4.c ****                     xMaxSize = pxBlock->xBlockSize;
 961              		.loc 1 466 0
 962 0036 7B69     		ldr	r3, [r7, #20]
 963 0038 5B68     		ldr	r3, [r3, #4]
 964 003a FB60     		str	r3, [r7, #12]
 965              	.L52:
 467:../../../../dependencies/freertos/FreeRTOSv10.4.1/FreeRTOS/Source/portable/MemMang/heap_4.c ****                 }
 468:../../../../dependencies/freertos/FreeRTOSv10.4.1/FreeRTOS/Source/portable/MemMang/heap_4.c **** 
 469:../../../../dependencies/freertos/FreeRTOSv10.4.1/FreeRTOS/Source/portable/MemMang/heap_4.c ****                 if( pxBlock->xBlockSize < xMinSize )
 966              		.loc 1 469 0
 967 003c 7B69     		ldr	r3, [r7, #20]
 968 003e 5A68     		ldr	r2, [r3, #4]
 969 0040 BB68     		ldr	r3, [r7, #8]
 970 0042 9A42     		cmp	r2, r3
 971 0044 02D2     		bcs	.L53
 470:../../../../dependencies/freertos/FreeRTOSv10.4.1/FreeRTOS/Source/portable/MemMang/heap_4.c ****                 {
 471:../../../../dependencies/freertos/FreeRTOSv10.4.1/FreeRTOS/Source/portable/MemMang/heap_4.c ****                     xMinSize = pxBlock->xBlockSize;
 972              		.loc 1 471 0
 973 0046 7B69     		ldr	r3, [r7, #20]
 974 0048 5B68     		ldr	r3, [r3, #4]
 975 004a BB60     		str	r3, [r7, #8]
 976              	.L53:
 472:../../../../dependencies/freertos/FreeRTOSv10.4.1/FreeRTOS/Source/portable/MemMang/heap_4.c ****                 }
 473:../../../../dependencies/freertos/FreeRTOSv10.4.1/FreeRTOS/Source/portable/MemMang/heap_4.c **** 
 474:../../../../dependencies/freertos/FreeRTOSv10.4.1/FreeRTOS/Source/portable/MemMang/heap_4.c ****                 /* Move to the next block in the chain until the last block is
 475:../../../../dependencies/freertos/FreeRTOSv10.4.1/FreeRTOS/Source/portable/MemMang/heap_4.c ****                  * reached. */
 476:../../../../dependencies/freertos/FreeRTOSv10.4.1/FreeRTOS/Source/portable/MemMang/heap_4.c ****                 pxBlock = pxBlock->pxNextFreeBlock;
 977              		.loc 1 476 0
 978 004c 7B69     		ldr	r3, [r7, #20]
 979 004e 1B68     		ldr	r3, [r3]
 980 0050 7B61     		str	r3, [r7, #20]
 477:../../../../dependencies/freertos/FreeRTOSv10.4.1/FreeRTOS/Source/portable/MemMang/heap_4.c ****             } while( pxBlock != pxEnd );
 981              		.loc 1 477 0
 982 0052 144B     		ldr	r3, .L55+4
 983 0054 1B68     		ldr	r3, [r3]
 984 0056 7A69     		ldr	r2, [r7, #20]
 985 0058 9A42     		cmp	r2, r3
 986 005a E4D1     		bne	.L54
 987              	.L51:
 478:../../../../dependencies/freertos/FreeRTOSv10.4.1/FreeRTOS/Source/portable/MemMang/heap_4.c ****         }
 479:../../../../dependencies/freertos/FreeRTOSv10.4.1/FreeRTOS/Source/portable/MemMang/heap_4.c ****     }
 480:../../../../dependencies/freertos/FreeRTOSv10.4.1/FreeRTOS/Source/portable/MemMang/heap_4.c ****     ( void ) xTaskResumeAll();
 988              		.loc 1 480 0
 989 005c FFF7FEFF 		bl	xTaskResumeAll
 481:../../../../dependencies/freertos/FreeRTOSv10.4.1/FreeRTOS/Source/portable/MemMang/heap_4.c **** 
 482:../../../../dependencies/freertos/FreeRTOSv10.4.1/FreeRTOS/Source/portable/MemMang/heap_4.c ****     pxHeapStats->xSizeOfLargestFreeBlockInBytes = xMaxSize;
 990              		.loc 1 482 0
 991 0060 7B68     		ldr	r3, [r7, #4]
 992 0062 FA68     		ldr	r2, [r7, #12]
 993 0064 5A60     		str	r2, [r3, #4]
 483:../../../../dependencies/freertos/FreeRTOSv10.4.1/FreeRTOS/Source/portable/MemMang/heap_4.c ****     pxHeapStats->xSizeOfSmallestFreeBlockInBytes = xMinSize;
 994              		.loc 1 483 0
 995 0066 7B68     		ldr	r3, [r7, #4]
 996 0068 BA68     		ldr	r2, [r7, #8]
 997 006a 9A60     		str	r2, [r3, #8]
 484:../../../../dependencies/freertos/FreeRTOSv10.4.1/FreeRTOS/Source/portable/MemMang/heap_4.c ****     pxHeapStats->xNumberOfFreeBlocks = xBlocks;
 998              		.loc 1 484 0
ARM GAS  /var/folders/_8/_cw6l3nd335f_j6cn6z79m4m0000gn/T//ccdKuXwe.s 			page 30


 999 006c 7B68     		ldr	r3, [r7, #4]
 1000 006e 3A69     		ldr	r2, [r7, #16]
 1001 0070 DA60     		str	r2, [r3, #12]
 485:../../../../dependencies/freertos/FreeRTOSv10.4.1/FreeRTOS/Source/portable/MemMang/heap_4.c **** 
 486:../../../../dependencies/freertos/FreeRTOSv10.4.1/FreeRTOS/Source/portable/MemMang/heap_4.c ****     taskENTER_CRITICAL();
 1002              		.loc 1 486 0
 1003 0072 FFF7FEFF 		bl	vPortEnterCritical
 487:../../../../dependencies/freertos/FreeRTOSv10.4.1/FreeRTOS/Source/portable/MemMang/heap_4.c ****     {
 488:../../../../dependencies/freertos/FreeRTOSv10.4.1/FreeRTOS/Source/portable/MemMang/heap_4.c ****         pxHeapStats->xAvailableHeapSpaceInBytes = xFreeBytesRemaining;
 1004              		.loc 1 488 0
 1005 0076 0C4B     		ldr	r3, .L55+8
 1006 0078 1A68     		ldr	r2, [r3]
 1007 007a 7B68     		ldr	r3, [r7, #4]
 1008 007c 1A60     		str	r2, [r3]
 489:../../../../dependencies/freertos/FreeRTOSv10.4.1/FreeRTOS/Source/portable/MemMang/heap_4.c ****         pxHeapStats->xNumberOfSuccessfulAllocations = xNumberOfSuccessfulAllocations;
 1009              		.loc 1 489 0
 1010 007e 0B4B     		ldr	r3, .L55+12
 1011 0080 1A68     		ldr	r2, [r3]
 1012 0082 7B68     		ldr	r3, [r7, #4]
 1013 0084 5A61     		str	r2, [r3, #20]
 490:../../../../dependencies/freertos/FreeRTOSv10.4.1/FreeRTOS/Source/portable/MemMang/heap_4.c ****         pxHeapStats->xNumberOfSuccessfulFrees = xNumberOfSuccessfulFrees;
 1014              		.loc 1 490 0
 1015 0086 0A4B     		ldr	r3, .L55+16
 1016 0088 1A68     		ldr	r2, [r3]
 1017 008a 7B68     		ldr	r3, [r7, #4]
 1018 008c 9A61     		str	r2, [r3, #24]
 491:../../../../dependencies/freertos/FreeRTOSv10.4.1/FreeRTOS/Source/portable/MemMang/heap_4.c ****         pxHeapStats->xMinimumEverFreeBytesRemaining = xMinimumEverFreeBytesRemaining;
 1019              		.loc 1 491 0
 1020 008e 094B     		ldr	r3, .L55+20
 1021 0090 1A68     		ldr	r2, [r3]
 1022 0092 7B68     		ldr	r3, [r7, #4]
 1023 0094 1A61     		str	r2, [r3, #16]
 492:../../../../dependencies/freertos/FreeRTOSv10.4.1/FreeRTOS/Source/portable/MemMang/heap_4.c ****     }
 493:../../../../dependencies/freertos/FreeRTOSv10.4.1/FreeRTOS/Source/portable/MemMang/heap_4.c ****     taskEXIT_CRITICAL();
 1024              		.loc 1 493 0
 1025 0096 FFF7FEFF 		bl	vPortExitCritical
 494:../../../../dependencies/freertos/FreeRTOSv10.4.1/FreeRTOS/Source/portable/MemMang/heap_4.c **** }
 1026              		.loc 1 494 0
 1027 009a 1837     		adds	r7, r7, #24
 1028              	.LCFI37:
 1029              		.cfi_def_cfa_offset 8
 1030 009c BD46     		mov	sp, r7
 1031              	.LCFI38:
 1032              		.cfi_def_cfa_register 13
 1033              		@ sp needed
 1034 009e 80BD     		pop	{r7, pc}
 1035              	.L56:
 1036              		.align	2
 1037              	.L55:
 1038 00a0 00000000 		.word	xStart
 1039 00a4 00000000 		.word	pxEnd
 1040 00a8 00000000 		.word	xFreeBytesRemaining
 1041 00ac 00000000 		.word	xNumberOfSuccessfulAllocations
 1042 00b0 00000000 		.word	xNumberOfSuccessfulFrees
 1043 00b4 00000000 		.word	xMinimumEverFreeBytesRemaining
 1044              		.cfi_endproc
 1045              	.LFE12:
ARM GAS  /var/folders/_8/_cw6l3nd335f_j6cn6z79m4m0000gn/T//ccdKuXwe.s 			page 31


 1047              		.text
 1048              	.Letext0:
 1049              		.file 3 "/Users/adambujak/Workspace/whisper_system/.dependencies/gcc-arm-none-eabi-4_9-2015q3/lib/
 1050              		.file 4 "/Users/adambujak/Workspace/whisper_system/.dependencies/gcc-arm-none-eabi-4_9-2015q3/arm-
 1051              		.file 5 "/Users/adambujak/Workspace/whisper_system/.dependencies/gcc-arm-none-eabi-4_9-2015q3/arm-
 1052              		.file 6 "../../../../dependencies/freertos/FreeRTOSv10.4.1/FreeRTOS/Source/include/portable.h"
ARM GAS  /var/folders/_8/_cw6l3nd335f_j6cn6z79m4m0000gn/T//ccdKuXwe.s 			page 32

