ARM GAS  /var/folders/_8/_cw6l3nd335f_j6cn6z79m4m0000gn/T//ccrVTSAj.s 			page 1


   1              		.syntax unified
   2              		.cpu cortex-m4
   3              		.eabi_attribute 27, 1
   4              		.eabi_attribute 28, 1
   5              		.fpu fpv4-sp-d16
   6              		.eabi_attribute 20, 1
   7              		.eabi_attribute 21, 1
   8              		.eabi_attribute 23, 3
   9              		.eabi_attribute 24, 1
  10              		.eabi_attribute 25, 1
  11              		.eabi_attribute 26, 1
  12              		.eabi_attribute 30, 6
  13              		.eabi_attribute 34, 1
  14              		.eabi_attribute 18, 4
  15              		.thumb
  16              		.file	"logger.c"
  17              		.text
  18              	.Ltext0:
  19              		.cfi_sections	.debug_frame
  20              		.section	.bss.handle,"aw",%nobits
  21              		.align	2
  24              	handle:
  25 0000 00000000 		.space	64
  25      00000000 
  25      00000000 
  25      00000000 
  25      00000000 
  26              		.section	.text.logger_write,"ax",%progbits
  27              		.align	2
  28              		.global	logger_write
  29              		.thumb
  30              		.thumb_func
  32              	logger_write:
  33              	.LFB135:
  34              		.file 1 "../src/logger.c"
   1:../src/logger.c **** #include "logger.h"
   2:../src/logger.c **** 
   3:../src/logger.c **** #include "bsp.h"
   4:../src/logger.c **** #include "com.h"
   5:../src/logger.c **** 
   6:../src/logger.c **** #include <string.h>
   7:../src/logger.c **** 
   8:../src/logger.c **** static wst_uart_handle_t handle;
   9:../src/logger.c **** 
  10:../src/logger.c **** #define UART_TX_BUFFER_SIZE  512
  11:../src/logger.c **** 
  12:../src/logger.c **** void logger_write(char *string)
  13:../src/logger.c **** {
  35              		.loc 1 13 0
  36              		.cfi_startproc
  37              		@ args = 0, pretend = 0, frame = 16
  38              		@ frame_needed = 1, uses_anonymous_args = 0
  39 0000 80B5     		push	{r7, lr}
  40              	.LCFI0:
  41              		.cfi_def_cfa_offset 8
  42              		.cfi_offset 7, -8
  43              		.cfi_offset 14, -4
ARM GAS  /var/folders/_8/_cw6l3nd335f_j6cn6z79m4m0000gn/T//ccrVTSAj.s 			page 2


  44 0002 84B0     		sub	sp, sp, #16
  45              	.LCFI1:
  46              		.cfi_def_cfa_offset 24
  47 0004 00AF     		add	r7, sp, #0
  48              	.LCFI2:
  49              		.cfi_def_cfa_register 7
  50 0006 7860     		str	r0, [r7, #4]
  14:../src/logger.c ****   size_t length = strlen(string);
  51              		.loc 1 14 0
  52 0008 7868     		ldr	r0, [r7, #4]
  53 000a FFF7FEFF 		bl	strlen
  54 000e F860     		str	r0, [r7, #12]
  15:../src/logger.c **** 
  16:../src/logger.c ****   if (length > UART_TX_BUFFER_SIZE) {
  55              		.loc 1 16 0
  56 0010 FB68     		ldr	r3, [r7, #12]
  57 0012 B3F5007F 		cmp	r3, #512
  58 0016 05D9     		bls	.L2
  17:../src/logger.c ****     string[length-1] = '\0';
  59              		.loc 1 17 0
  60 0018 FB68     		ldr	r3, [r7, #12]
  61 001a 013B     		subs	r3, r3, #1
  62 001c 7A68     		ldr	r2, [r7, #4]
  63 001e 1344     		add	r3, r3, r2
  64 0020 0022     		movs	r2, #0
  65 0022 1A70     		strb	r2, [r3]
  66              	.L2:
  18:../src/logger.c ****   }
  19:../src/logger.c **** 
  20:../src/logger.c ****   bsp_uart_write(&handle, (uint8_t *)string, (uint16_t)length);
  67              		.loc 1 20 0
  68 0024 FB68     		ldr	r3, [r7, #12]
  69 0026 9BB2     		uxth	r3, r3
  70 0028 0348     		ldr	r0, .L3
  71 002a 7968     		ldr	r1, [r7, #4]
  72 002c 1A46     		mov	r2, r3
  73 002e FFF7FEFF 		bl	bsp_uart_write
  21:../src/logger.c **** }
  74              		.loc 1 21 0
  75 0032 1037     		adds	r7, r7, #16
  76              	.LCFI3:
  77              		.cfi_def_cfa_offset 8
  78 0034 BD46     		mov	sp, r7
  79              	.LCFI4:
  80              		.cfi_def_cfa_register 13
  81              		@ sp needed
  82 0036 80BD     		pop	{r7, pc}
  83              	.L4:
  84              		.align	2
  85              	.L3:
  86 0038 00000000 		.word	handle
  87              		.cfi_endproc
  88              	.LFE135:
  90              		.section	.text.logger_init,"ax",%progbits
  91              		.align	2
  92              		.global	logger_init
  93              		.thumb
ARM GAS  /var/folders/_8/_cw6l3nd335f_j6cn6z79m4m0000gn/T//ccrVTSAj.s 			page 3


  94              		.thumb_func
  96              	logger_init:
  97              	.LFB136:
  22:../src/logger.c **** 
  23:../src/logger.c **** void logger_init(void)
  24:../src/logger.c **** {
  98              		.loc 1 24 0
  99              		.cfi_startproc
 100              		@ args = 0, pretend = 0, frame = 8
 101              		@ frame_needed = 1, uses_anonymous_args = 0
 102 0000 80B5     		push	{r7, lr}
 103              	.LCFI5:
 104              		.cfi_def_cfa_offset 8
 105              		.cfi_offset 7, -8
 106              		.cfi_offset 14, -4
 107 0002 82B0     		sub	sp, sp, #8
 108              	.LCFI6:
 109              		.cfi_def_cfa_offset 16
 110 0004 00AF     		add	r7, sp, #0
 111              	.LCFI7:
 112              		.cfi_def_cfa_register 7
 113              	.LBB2:
  25:../src/logger.c ****   #ifdef DEBUG
  26:../src/logger.c ****   WST_ERR_CHECK(bsp_uart_init(&handle));
 114              		.loc 1 26 0
 115 0006 0648     		ldr	r0, .L7
 116 0008 FFF7FEFF 		bl	bsp_uart_init
 117 000c 7860     		str	r0, [r7, #4]
 118 000e 7B68     		ldr	r3, [r7, #4]
 119 0010 002B     		cmp	r3, #0
 120 0012 01D0     		beq	.L5
 121              		.loc 1 26 0 is_stmt 0 discriminator 1
 122 0014 FFF7FEFF 		bl	error_handler
 123              	.L5:
 124              	.LBE2:
  27:../src/logger.c ****   #endif
  28:../src/logger.c **** }
 125              		.loc 1 28 0 is_stmt 1
 126 0018 0837     		adds	r7, r7, #8
 127              	.LCFI8:
 128              		.cfi_def_cfa_offset 8
 129 001a BD46     		mov	sp, r7
 130              	.LCFI9:
 131              		.cfi_def_cfa_register 13
 132              		@ sp needed
 133 001c 80BD     		pop	{r7, pc}
 134              	.L8:
 135 001e 00BF     		.align	2
 136              	.L7:
 137 0020 00000000 		.word	handle
 138              		.cfi_endproc
 139              	.LFE136:
 141              		.text
 142              	.Letext0:
 143              		.file 2 "/Users/adambujak/Workspace/whisper_system/.dependencies/gcc-arm-none-eabi-4_9-2015q3/arm-
 144              		.file 3 "/Users/adambujak/Workspace/whisper_system/.dependencies/gcc-arm-none-eabi-4_9-2015q3/arm-
 145              		.file 4 "../../../../dependencies/stm/STM32F4_Cube/Drivers/CMSIS/Device/ST/STM32F4xx/Include/stm32
ARM GAS  /var/folders/_8/_cw6l3nd335f_j6cn6z79m4m0000gn/T//ccrVTSAj.s 			page 4


 146              		.file 5 "/Users/adambujak/Workspace/whisper_system/.dependencies/gcc-arm-none-eabi-4_9-2015q3/lib/
 147              		.file 6 "../../../../dependencies/stm/STM32F4_Cube/Drivers/STM32F4xx_HAL_Driver/Inc/stm32f4xx_hal_
 148              		.file 7 "../../../../dependencies/stm/STM32F4_Cube/Drivers/STM32F4xx_HAL_Driver/Inc/stm32f4xx_hal_
 149              		.file 8 "../../../../dependencies/stm/STM32F4_Cube/Drivers/STM32F4xx_HAL_Driver/Inc/stm32f4xx_hal_
 150              		.file 9 "../../../../development/system/boards/stm_dev_bsp/bsp.h"
 151              		.file 10 "../../../../dependencies/stm/STM32F4_Cube/Drivers/CMSIS/Include/core_cm4.h"
ARM GAS  /var/folders/_8/_cw6l3nd335f_j6cn6z79m4m0000gn/T//ccrVTSAj.s 			page 5

