ARM GAS  /var/folders/_8/_cw6l3nd335f_j6cn6z79m4m0000gn/T//ccrVTSAj.s 			page 1


   1              		.syntax unified
   2              		.cpu cortex-m4
   3              		.eabi_attribute 27, 1
   4              		.eabi_attribute 28, 1
   5              		.fpu fpv4-sp-d16
   6              		.eabi_attribute 20, 1
   7              		.eabi_attribute 21, 1
   8              		.eabi_attribute 23, 3
   9              		.eabi_attribute 24, 1
  10              		.eabi_attribute 25, 1
  11              		.eabi_attribute 26, 1
  12              		.eabi_attribute 30, 6
  13              		.eabi_attribute 34, 1
  14              		.eabi_attribute 18, 4
  15              		.thumb
  16              		.file	"logger.c"
  17              		.text
  18              	.Ltext0:
  19              		.cfi_sections	.debug_frame
  20              		.section	.bss.handle,"aw",%nobits
  21              		.align	2
  24              	handle:
  25 0000 00000000 		.space	64
  25      00000000 
  25      00000000 
  25      00000000 
  25      00000000 
  26              		.section	.text.logger_write,"ax",%progbits
  27              		.align	2
  28              		.global	logger_write
  29              		.thumb
  30              		.thumb_func
  32              	logger_write:
  33              	.LFB135:
  34              		.file 1 "../src/logger.c"
   1:../src/logger.c **** #include "logger.h"
   2:../src/logger.c **** 
   3:../src/logger.c **** #include "bsp.h"
   4:../src/logger.c **** #include "com.h"
   5:../src/logger.c **** 
   6:../src/logger.c **** #include <string.h>
   7:../src/logger.c **** 
   8:../src/logger.c **** static wst_uart_handle_t handle;
   9:../src/logger.c **** 
  10:../src/logger.c **** #define UART_TX_BUFFER_SIZE  512
  11:../src/logger.c **** 
  12:../src/logger.c **** void logger_write(char *string)
  13:../src/logger.c **** {
  35              		.loc 1 13 0
  36              		.cfi_startproc
  37              		@ args = 0, pretend = 0, frame = 16
  38              		@ frame_needed = 1, uses_anonymous_args = 0
  39 0000 80B5     		push	{r7, lr}
  40              	.LCFI0:
  41              		.cfi_def_cfa_offset 8
  42              		.cfi_offset 7, -8
  43              		.cfi_offset 14, -4
ARM GAS  /var/folders/_8/_cw6l3nd335f_j6cn6z79m4m0000gn/T//ccrVTSAj.s 			page 2


  44 0002 84B0     		sub	sp, sp, #16
  45              	.LCFI1:
  46              		.cfi_def_cfa_offset 24
  47 0004 00AF     		add	r7, sp, #0
  48              	.LCFI2:
  49              		.cfi_def_cfa_register 7
  50 0006 7860     		str	r0, [r7, #4]
  14:../src/logger.c ****   size_t length = strlen(string);
  51              		.loc 1 14 0
  52 0008 7868     		ldr	r0, [r7, #4]
  53 000a FFF7FEFF 		bl	strlen
  54 000e F860     		str	r0, [r7, #12]
  15:../src/logger.c **** 
  16:../src/logger.c ****   if (length > UART_TX_BUFFER_SIZE) {
  55              		.loc 1 16 0
  56 0010 FB68     		ldr	r3, [r7, #12]
  57 0012 B3F5007F 		cmp	r3, #512
  58 0016 05D9     		bls	.L2
  17:../src/logger.c ****     string[length-1] = '\0';
  59              		.loc 1 17 0
  60 0018 FB68     		ldr	r3, [r7, #12]
  61 001a 013B     		subs	r3, r3, #1
  62 001c 7A68     		ldr	r2, [r7, #4]
  63 001e 1344     		add	r3, r3, r2
  64 0020 0022     		movs	r2, #0
  65 0022 1A70     		strb	r2, [r3]
  66              	.L2:
  18:../src/logger.c ****   }
  19:../src/logger.c **** 
  20:../src/logger.c ****   bsp_uart_write(&handle, (uint8_t *)string, (uint16_t)length);
  67              		.loc 1 20 0
  68 0024 FB68     		ldr	r3, [r7, #12]
  69 0026 9BB2     		uxth	r3, r3
  70 0028 0348     		ldr	r0, .L3
  71 002a 7968     		ldr	r1, [r7, #4]
  72 002c 1A46     		mov	r2, r3
  73 002e FFF7FEFF 		bl	bsp_uart_write
  21:../src/logger.c **** }
  74              		.loc 1 21 0
  75 0032 1037     		adds	r7, r7, #16
  76              	.LCFI3:
  77              		.cfi_def_cfa_offset 8
  78 0034 BD46     		mov	sp, r7
  79              	.LCFI4:
  80              		.cfi_def_cfa_register 13
  81              		@ sp needed
  82 0036 80BD     		pop	{r7, pc}
  83              	.L4:
  84              		.align	2
  85              	.L3:
  86 0038 00000000 		.word	handle
  87              		.cfi_endproc
  88              	.LFE135:
  90              		.section	.text.logger_init,"ax",%progbits
  91              		.align	2
  92              		.global	logger_init
  93              		.thumb
ARM GAS  /var/folders/_8/_cw6l3nd335f_j6cn6z79m4m0000gn/T//ccrVTSAj.s 			page 3


  94              		.thumb_func
  96              	logger_init:
  97              	.LFB136:
  22:../src/logger.c **** 
  23:../src/logger.c **** void logger_init(void)
  24:../src/logger.c **** {
  98              		.loc 1 24 0
  99              		.cfi_startproc
 100              		@ args = 0, pretend = 0, frame = 8
 101              		@ frame_needed = 1, uses_anonymous_args = 0
 102 0000 80B5     		push	{r7, lr}
 103              	.LCFI5:
 104              		.cfi_def_cfa_offset 8
 105              		.cfi_offset 7, -8
 106              		.cfi_offset 14, -4
 107 0002 82B0     		sub	sp, sp, #8
 108              	.LCFI6:
 109              		.cfi_def_cfa_offset 16
 110 0004 00AF     		add	r7, sp, #0
 111              	.LCFI7:
 112              		.cfi_def_cfa_register 7
 113              	.LBB2:
  25:../src/logger.c ****   #ifdef DEBUG
  26:../src/logger.c ****   WST_ERR_CHECK(bsp_uart_init(&handle));
 114              		.loc 1 26 0
 115 0006 0648     		ldr	r0, .L7
 116 0008 FFF7FEFF 		bl	bsp_uart_init
 117 000c 7860     		str	r0, [r7, #4]
 118 000e 7B68     		ldr	r3, [r7, #4]
 119 0010 002B     		cmp	r3, #0
 120 0012 01D0     		beq	.L5
 121              		.loc 1 26 0 is_stmt 0 discriminator 1
 122 0014 FFF7FEFF 		bl	error_handler
 123              	.L5:
 124              	.LBE2:
  27:../src/logger.c ****   #endif
  28:../src/logger.c **** }
 125              		.loc 1 28 0 is_stmt 1
 126 0018 0837     		adds	r7, r7, #8
 127              	.LCFI8:
 128              		.cfi_def_cfa_offset 8
 129 001a BD46     		mov	sp, r7
 130              	.LCFI9:
 131              		.cfi_def_cfa_register 13
 132              		@ sp needed
 133 001c 80BD     		pop	{r7, pc}
 134              	.L8:
 135 001e 00BF     		.align	2
 136              	.L7:
 137 0020 00000000 		.word	handle
 138              		.cfi_endproc
 139              	.LFE136:
 141              		.text
 142              	.Letext0:
 143              		.file 2 "/Users/adambujak/Workspace/whisper_system/.dependencies/gcc-arm-none-eabi-4_9-2015q3/arm-
 144              		.file 3 "/Users/adambujak/Workspace/whisper_system/.dependencies/gcc-arm-none-eabi-4_9-2015q3/arm-
 145              		.file 4 "../../../../dependencies/stm/STM32F4_Cube/Drivers/CMSIS/Device/ST/STM32F4xx/Include/stm32
ARM GAS  /var/folders/_8/_cw6l3nd335f_j6cn6z79m4m0000gn/T//ccrVTSAj.s 			page 4


 146              		.file 5 "/Users/adambujak/Workspace/whisper_system/.dependencies/gcc-arm-none-eabi-4_9-2015q3/lib/
 147              		.file 6 "../../../../dependencies/stm/STM32F4_Cube/Drivers/STM32F4xx_HAL_Driver/Inc/stm32f4xx_hal_
 148              		.file 7 "../../../../dependencies/stm/STM32F4_Cube/Drivers/STM32F4xx_HAL_Driver/Inc/stm32f4xx_hal_
 149              		.file 8 "../../../../dependencies/stm/STM32F4_Cube/Drivers/STM32F4xx_HAL_Driver/Inc/stm32f4xx_hal_
 150              		.file 9 "../../../../development/system/boards/stm_dev_bsp/bsp.h"
 151              		.file 10 "../../../../dependencies/stm/STM32F4_Cube/Drivers/CMSIS/Include/core_cm4.h"
ARM GAS  /var/folders/_8/_cw6l3nd335f_j6cn6z79m4m0000gn/T//ccrVTSAj.s 			page 5


DEFINED SYMBOLS
                            *ABS*:0000000000000000 logger.c
/var/folders/_8/_cw6l3nd335f_j6cn6z79m4m0000gn/T//ccrVTSAj.s:21     .bss.handle:0000000000000000 $d
/var/folders/_8/_cw6l3nd335f_j6cn6z79m4m0000gn/T//ccrVTSAj.s:24     .bss.handle:0000000000000000 handle
/var/folders/_8/_cw6l3nd335f_j6cn6z79m4m0000gn/T//ccrVTSAj.s:27     .text.logger_write:0000000000000000 $t
/var/folders/_8/_cw6l3nd335f_j6cn6z79m4m0000gn/T//ccrVTSAj.s:32     .text.logger_write:0000000000000000 logger_write
/var/folders/_8/_cw6l3nd335f_j6cn6z79m4m0000gn/T//ccrVTSAj.s:86     .text.logger_write:0000000000000038 $d
/var/folders/_8/_cw6l3nd335f_j6cn6z79m4m0000gn/T//ccrVTSAj.s:91     .text.logger_init:0000000000000000 $t
/var/folders/_8/_cw6l3nd335f_j6cn6z79m4m0000gn/T//ccrVTSAj.s:96     .text.logger_init:0000000000000000 logger_init
/var/folders/_8/_cw6l3nd335f_j6cn6z79m4m0000gn/T//ccrVTSAj.s:137    .text.logger_init:0000000000000020 $d
                     .debug_frame:0000000000000010 $d
                           .group:0000000000000000 wm4.0.12d3039ce5a2552d46df25be77b64279
                           .group:0000000000000000 wm4.features.h.22.2e382148a0560adabf236cddd4e880f4
                           .group:0000000000000000 wm4._default_types.h.15.933e8edd27a65e0b69af4a865eb623d2
                           .group:0000000000000000 wm4._intsup.h.10.35a45952db64d30146faa63a55c20c1c
                           .group:0000000000000000 wm4._stdint.h.10.f76354baea1c7088202064e6f3d4f5e3
                           .group:0000000000000000 wm4.stdint.h.23.373a9d32a9e4c2e88fd347156532d281
                           .group:0000000000000000 wm4.stm32f4xx_hal_conf.h.2.af8b2ca6b03807d43d9ddf9698d1361c
                           .group:0000000000000000 wm4.stm32f4xx.h.39.1b09cc4be5834e402f47d342f5416be4
                           .group:0000000000000000 wm4.stm32f412zx.h.35.d9913ab15c3cc42510cd85c75dd3c4eb
                           .group:0000000000000000 wm4.cmsis_version.h.32.4d5822004c01a829a975260e854b5f8e
                           .group:0000000000000000 wm4.core_cm4.h.66.e4ff136c4a17abc46741866f64f8e729
                           .group:0000000000000000 wm4.cmsis_gcc.h.26.f42444deefab66ffa141b9b9fddb57a3
                           .group:0000000000000000 wm4.core_cm4.h.174.059a5e001a9e729091d1407208e93224
                           .group:0000000000000000 wm4.mpu_armv7.h.32.27b4593cb2f8d3152ca5d97a9d72b321
                           .group:0000000000000000 wm4.stm32f412zx.h.838.7f7dacbfe2e2c88ca5202f260290d6c1
                           .group:0000000000000000 wm4.stm32f4xx.h.196.23c4e4a5d465a121178374b8f4182f7c
                           .group:0000000000000000 wm4.stm32_hal_legacy.h.23.394d12941f5a0482dbe3c36ee9e57b2b
                           .group:0000000000000000 wm4.stddef.h.39.c744ceb84abf2f8351653f0e2622da1c
                           .group:0000000000000000 wm4.stm32f4xx_hal_def.h.58.2d2c85d5b9693a63e90566b806e8a752
                           .group:0000000000000000 wm4.stm32f4xx_hal_rcc_ex.h.22.fe15f7aa872c0ff0051d1df0fdd88661
                           .group:0000000000000000 wm4.stm32f4xx_hal_rcc.h.108.0c18a3cfc2dd91bdf92470b4bd0ea1b5
                           .group:0000000000000000 wm4.stm32f4xx_hal_exti.h.22.b6735b42221f61fdbfd800fa51550a85
                           .group:0000000000000000 wm4.stm32f4xx_hal_gpio.h.22.be2c6bcf9722096ea8f49a41bf6aa50c
                           .group:0000000000000000 wm4.stm32f4xx_hal_gpio_ex.h.22.5fac61f4372beb17c6941adb263493e1
                           .group:0000000000000000 wm4.stm32f4xx_hal_gpio.h.264.978ac12eab1d3b3400b35b8c427e2c33
                           .group:0000000000000000 wm4.stm32f4xx_hal_dma.h.22.fffce20ac9119c50557659c75e75ab1c
                           .group:0000000000000000 wm4.stm32f4xx_hal_dma.h.721.a1e57ffbc615f926e6509c5acc65e492
                           .group:0000000000000000 wm4.stm32f4xx_hal_cortex.h.22.e6aa3b847b5388be63c32d1f9e696ef7
                           .group:0000000000000000 wm4.stm32f4xx_hal_flash.h.22.31b301be2655c3eb8583e51c8231544a
                           .group:0000000000000000 wm4.stm32f4xx_hal_flash_ex.h.22.5016bda819f6a480c96be63516c36ab2
                           .group:0000000000000000 wm4.stm32f4xx_hal_flash.h.363.51efdf0f6c88f683efb89d7cc95cc1be
                           .group:0000000000000000 wm4.stm32f4xx_ll_fsmc.h.22.ed2b494a9a7d206deda6c53e626a4601
                           .group:0000000000000000 wm4.stm32f4xx_hal_i2c.h.22.7a518225417837eb3d0550cc95fa0a57
                           .group:0000000000000000 wm4.stm32f4xx_hal_i2c_ex.h.22.a90c9435159b7eaef7dc679da6295e14
                           .group:0000000000000000 wm4.stm32f4xx_hal_i2c.h.644.9d0aaa0659558fa97b5b5ac32630da6a
                           .group:0000000000000000 wm4.stm32f4xx_hal_pwr.h.22.2c27d93ae187efe3a73816f03a329970
                           .group:0000000000000000 wm4.stm32f4xx_hal_pwr_ex.h.22.a735ba4f49c5b2574a98d58f3b7ae925
                           .group:0000000000000000 wm4.stm32f4xx_hal_pwr.h.337.60b43975c84527a23cb6994b23165a5e
                           .group:0000000000000000 wm4.stm32f4xx_hal_spi.h.22.bc4a13b7a7ee3429db720a8d37eb1e5e
                           .group:0000000000000000 wm4.stm32f4xx_hal_tim.h.22.9c16860ec2cc7f3d941608a8f521bc4a
                           .group:0000000000000000 wm4.stm32f4xx_hal_tim_ex.h.22.2fde471485fd197eebc7c86251149c11
                           .group:0000000000000000 wm4.stm32f4xx_hal_uart.h.22.1edfd0da9670bd23245390d2a3da576d
                           .group:0000000000000000 wm4.stm32f4xx_hal.h.72.a5a58188aa461a0614f1e58e159c7840
                           .group:0000000000000000 wm4.stm32f4xx_nucleo_144.h.54.f0d042017bc81221aa085a20cf55c671
                           .group:0000000000000000 wm4.newlib.h.8.2702bca278809460f0af6fba1d84eb68
                           .group:0000000000000000 wm4.config.h.220.a09b0b0de3c25be3f39d71990e617bff
ARM GAS  /var/folders/_8/_cw6l3nd335f_j6cn6z79m4m0000gn/T//ccrVTSAj.s 			page 6


                           .group:0000000000000000 wm4._ansi.h.23.9f8fcfa20193763fcf364fb91705c94b
                           .group:0000000000000000 wm4.lock.h.2.9bc98482741e5e2a9450b12934a684ea
                           .group:0000000000000000 wm4._types.h.54.d3d34a3b7f3cc230cd159baf022b4b08
                           .group:0000000000000000 wm4.stddef.h.158.61317cdbfb4026324507d123a50b0fd6
                           .group:0000000000000000 wm4.reent.h.17.8bd9e4098e0428508c282cad794fae43
                           .group:0000000000000000 wm4.cdefs.h.47.55832cb26e4a21cedaa9b1b3b922c6b1
                           .group:0000000000000000 wm4.string.h.15.dab3980bf35408a4c507182805e2de3a
                           .group:0000000000000000 wm4.stddef.h.158.a7efb00f6cbc6f43213b50e183c9830c
                           .group:0000000000000000 wm4.stdio.h.27.3fc80220048df77954e38daec3bb9670
                           .group:0000000000000000 wm4.stdarg.h.34.3a23a216c0c293b3d2ea2e89281481e6
                           .group:0000000000000000 wm4.types.h.24.b2be5f53932a9c9d07787288b29b6d75
                           .group:0000000000000000 wm4.types.h.2.e9cec8c90ab35f77d9f499e06ae02400
                           .group:0000000000000000 wm4.types.h.82.82b71f3f44c70e3a459d0f66642b05eb
                           .group:0000000000000000 wm4.stdio.h.2.4aa87247282eca6c8f36f9de33d8df1a
                           .group:0000000000000000 wm4.stdio.h.68.a99a2db1e55915cfd1b035cc1e9fcff1
                           .group:0000000000000000 wm4.wst_common.h.9.8860a77277a68c3cc83109e96e83c7fb
                           .group:0000000000000000 wm4.bsp.h.21.9e5c882e28336308e70ed2ea2ef4c431
                           .group:0000000000000000 wm4.FreeRTOSConfig.h.2.efa69af35ff1ce1c2b556680ee99d891
                           .group:0000000000000000 wm4.projdefs.h.28.d6a7c9061b707820f2fcf4c2ff5d9f24
                           .group:0000000000000000 wm4.portmacro.h.30.0285ed3864ca8fd2e12d2b9aedd88dfd
                           .group:0000000000000000 wm4.portable.h.63.e9cc508c3850f44ce542149380c67812
                           .group:0000000000000000 wm4.mpu_wrappers.h.28.163fb40577cf8d1578015ea3f2ff4cdb
                           .group:0000000000000000 wm4.FreeRTOS.h.67.b174ccccfb8001b827e8ddeee1ca37a2
                           .group:0000000000000000 wm4.list.h.57.02ec67e07eacffe5ca7cfb7326896236
                           .group:0000000000000000 wm4.task.h.47.2d3fe49a094b8ec1e3e6aac441e8db21
                           .group:0000000000000000 wm4.queue.h.66.45d4a3cf5de24cde7e732f8dad25383c
                           .group:0000000000000000 wm4.timers.h.29.025d268d6baf57298309e7b498ee1cc7
                           .group:0000000000000000 wm4.semphr.h.38.96f44691bfa19eb833944d3a35b81e54
                           .group:0000000000000000 wm4.com.h.15.68f97ab2f34c884c6815e65d0dd90bb3

UNDEFINED SYMBOLS
strlen
bsp_uart_write
bsp_uart_init
error_handler
