ARM GAS  /var/folders/_8/_cw6l3nd335f_j6cn6z79m4m0000gn/T//ccX9B6Vt.s 			page 1


   1              		.syntax unified
   2              		.cpu cortex-m4
   3              		.eabi_attribute 27, 1
   4              		.eabi_attribute 28, 1
   5              		.fpu fpv4-sp-d16
   6              		.eabi_attribute 20, 1
   7              		.eabi_attribute 21, 1
   8              		.eabi_attribute 23, 3
   9              		.eabi_attribute 24, 1
  10              		.eabi_attribute 25, 1
  11              		.eabi_attribute 26, 1
  12              		.eabi_attribute 30, 6
  13              		.eabi_attribute 34, 1
  14              		.eabi_attribute 18, 4
  15              		.thumb
  16              		.file	"stm32f4xx_it.c"
  17              		.text
  18              	.Ltext0:
  19              		.cfi_sections	.debug_frame
  20              		.section	.bss.isOSStarted,"aw",%nobits
  21              		.align	2
  24              	isOSStarted:
  25 0000 00000000 		.space	4
  26              		.section	.text.OSStarted,"ax",%progbits
  27              		.align	2
  28              		.global	OSStarted
  29              		.thumb
  30              		.thumb_func
  32              	OSStarted:
  33              	.LFB135:
  34              		.file 1 "../src/stm32f4xx_it.c"
   1:../src/stm32f4xx_it.c **** #include "stm32f4xx_it.h"
   2:../src/stm32f4xx_it.c **** #include "stm32f4xx_hal.h"
   3:../src/stm32f4xx_it.c **** #include "com.h"
   4:../src/stm32f4xx_it.c **** 
   5:../src/stm32f4xx_it.c **** static int isOSStarted = 0;
   6:../src/stm32f4xx_it.c **** 
   7:../src/stm32f4xx_it.c **** void OSStarted(void)
   8:../src/stm32f4xx_it.c **** {
  35              		.loc 1 8 0
  36              		.cfi_startproc
  37              		@ args = 0, pretend = 0, frame = 0
  38              		@ frame_needed = 1, uses_anonymous_args = 0
  39              		@ link register save eliminated.
  40 0000 80B4     		push	{r7}
  41              	.LCFI0:
  42              		.cfi_def_cfa_offset 4
  43              		.cfi_offset 7, -4
  44 0002 00AF     		add	r7, sp, #0
  45              	.LCFI1:
  46              		.cfi_def_cfa_register 7
   9:../src/stm32f4xx_it.c ****   isOSStarted = 1;
  47              		.loc 1 9 0
  48 0004 034B     		ldr	r3, .L2
  49 0006 0122     		movs	r2, #1
  50 0008 1A60     		str	r2, [r3]
  10:../src/stm32f4xx_it.c **** }
ARM GAS  /var/folders/_8/_cw6l3nd335f_j6cn6z79m4m0000gn/T//ccX9B6Vt.s 			page 2


  51              		.loc 1 10 0
  52 000a BD46     		mov	sp, r7
  53              	.LCFI2:
  54              		.cfi_def_cfa_register 13
  55              		@ sp needed
  56 000c 5DF8047B 		ldr	r7, [sp], #4
  57              	.LCFI3:
  58              		.cfi_restore 7
  59              		.cfi_def_cfa_offset 0
  60 0010 7047     		bx	lr
  61              	.L3:
  62 0012 00BF     		.align	2
  63              	.L2:
  64 0014 00000000 		.word	isOSStarted
  65              		.cfi_endproc
  66              	.LFE135:
  68              		.section	.text.NMI_Handler,"ax",%progbits
  69              		.align	2
  70              		.global	NMI_Handler
  71              		.thumb
  72              		.thumb_func
  74              	NMI_Handler:
  75              	.LFB136:
  11:../src/stm32f4xx_it.c **** 
  12:../src/stm32f4xx_it.c **** /**
  13:../src/stm32f4xx_it.c ****   * @brief  This function handles NMI exception.
  14:../src/stm32f4xx_it.c ****   * @param  None
  15:../src/stm32f4xx_it.c ****   * @retval None
  16:../src/stm32f4xx_it.c ****   */
  17:../src/stm32f4xx_it.c **** void NMI_Handler(void)
  18:../src/stm32f4xx_it.c **** {
  76              		.loc 1 18 0
  77              		.cfi_startproc
  78              		@ args = 0, pretend = 0, frame = 0
  79              		@ frame_needed = 1, uses_anonymous_args = 0
  80              		@ link register save eliminated.
  81 0000 80B4     		push	{r7}
  82              	.LCFI4:
  83              		.cfi_def_cfa_offset 4
  84              		.cfi_offset 7, -4
  85 0002 00AF     		add	r7, sp, #0
  86              	.LCFI5:
  87              		.cfi_def_cfa_register 7
  19:../src/stm32f4xx_it.c **** }
  88              		.loc 1 19 0
  89 0004 BD46     		mov	sp, r7
  90              	.LCFI6:
  91              		.cfi_def_cfa_register 13
  92              		@ sp needed
  93 0006 5DF8047B 		ldr	r7, [sp], #4
  94              	.LCFI7:
  95              		.cfi_restore 7
  96              		.cfi_def_cfa_offset 0
  97 000a 7047     		bx	lr
  98              		.cfi_endproc
  99              	.LFE136:
 101              		.section	.text.HardFault_Handler,"ax",%progbits
ARM GAS  /var/folders/_8/_cw6l3nd335f_j6cn6z79m4m0000gn/T//ccX9B6Vt.s 			page 3


 102              		.align	2
 103              		.global	HardFault_Handler
 104              		.thumb
 105              		.thumb_func
 107              	HardFault_Handler:
 108              	.LFB137:
  20:../src/stm32f4xx_it.c **** 
  21:../src/stm32f4xx_it.c **** /**
  22:../src/stm32f4xx_it.c ****   * @brief  This function handles Hard Fault exception.
  23:../src/stm32f4xx_it.c ****   * @param  None
  24:../src/stm32f4xx_it.c ****   * @retval None
  25:../src/stm32f4xx_it.c ****   */
  26:../src/stm32f4xx_it.c **** void HardFault_Handler(void)
  27:../src/stm32f4xx_it.c **** {
 109              		.loc 1 27 0
 110              		.cfi_startproc
 111              		@ args = 0, pretend = 0, frame = 0
 112              		@ frame_needed = 1, uses_anonymous_args = 0
 113              		@ link register save eliminated.
 114 0000 80B4     		push	{r7}
 115              	.LCFI8:
 116              		.cfi_def_cfa_offset 4
 117              		.cfi_offset 7, -4
 118 0002 00AF     		add	r7, sp, #0
 119              	.LCFI9:
 120              		.cfi_def_cfa_register 7
 121              	.L6:
  28:../src/stm32f4xx_it.c ****   /* Go to infinite loop when Hard Fault exception occurs */
  29:../src/stm32f4xx_it.c ****   while (1)
  30:../src/stm32f4xx_it.c ****   {
  31:../src/stm32f4xx_it.c ****   }
 122              		.loc 1 31 0 discriminator 1
 123 0004 FEE7     		b	.L6
 124              		.cfi_endproc
 125              	.LFE137:
 127 0006 00BF     		.section	.text.MemManage_Handler,"ax",%progbits
 128              		.align	2
 129              		.global	MemManage_Handler
 130              		.thumb
 131              		.thumb_func
 133              	MemManage_Handler:
 134              	.LFB138:
  32:../src/stm32f4xx_it.c **** }
  33:../src/stm32f4xx_it.c **** 
  34:../src/stm32f4xx_it.c **** /**
  35:../src/stm32f4xx_it.c ****   * @brief  This function handles Memory Manage exception.
  36:../src/stm32f4xx_it.c ****   * @param  None
  37:../src/stm32f4xx_it.c ****   * @retval None
  38:../src/stm32f4xx_it.c ****   */
  39:../src/stm32f4xx_it.c **** void MemManage_Handler(void)
  40:../src/stm32f4xx_it.c **** {
 135              		.loc 1 40 0
 136              		.cfi_startproc
 137              		@ args = 0, pretend = 0, frame = 0
 138              		@ frame_needed = 1, uses_anonymous_args = 0
 139              		@ link register save eliminated.
 140 0000 80B4     		push	{r7}
ARM GAS  /var/folders/_8/_cw6l3nd335f_j6cn6z79m4m0000gn/T//ccX9B6Vt.s 			page 4


 141              	.LCFI10:
 142              		.cfi_def_cfa_offset 4
 143              		.cfi_offset 7, -4
 144 0002 00AF     		add	r7, sp, #0
 145              	.LCFI11:
 146              		.cfi_def_cfa_register 7
 147              	.L8:
  41:../src/stm32f4xx_it.c ****   /* Go to infinite loop when Memory Manage exception occurs */
  42:../src/stm32f4xx_it.c ****   while (1)
  43:../src/stm32f4xx_it.c ****   {
  44:../src/stm32f4xx_it.c ****   }
 148              		.loc 1 44 0 discriminator 1
 149 0004 FEE7     		b	.L8
 150              		.cfi_endproc
 151              	.LFE138:
 153 0006 00BF     		.section	.text.BusFault_Handler,"ax",%progbits
 154              		.align	2
 155              		.global	BusFault_Handler
 156              		.thumb
 157              		.thumb_func
 159              	BusFault_Handler:
 160              	.LFB139:
  45:../src/stm32f4xx_it.c **** }
  46:../src/stm32f4xx_it.c **** 
  47:../src/stm32f4xx_it.c **** /**
  48:../src/stm32f4xx_it.c ****   * @brief  This function handles Bus Fault exception.
  49:../src/stm32f4xx_it.c ****   * @param  None
  50:../src/stm32f4xx_it.c ****   * @retval None
  51:../src/stm32f4xx_it.c ****   */
  52:../src/stm32f4xx_it.c **** void BusFault_Handler(void)
  53:../src/stm32f4xx_it.c **** {
 161              		.loc 1 53 0
 162              		.cfi_startproc
 163              		@ args = 0, pretend = 0, frame = 0
 164              		@ frame_needed = 1, uses_anonymous_args = 0
 165              		@ link register save eliminated.
 166 0000 80B4     		push	{r7}
 167              	.LCFI12:
 168              		.cfi_def_cfa_offset 4
 169              		.cfi_offset 7, -4
 170 0002 00AF     		add	r7, sp, #0
 171              	.LCFI13:
 172              		.cfi_def_cfa_register 7
 173              	.L10:
  54:../src/stm32f4xx_it.c ****   /* Go to infinite loop when Bus Fault exception occurs */
  55:../src/stm32f4xx_it.c ****   while (1)
  56:../src/stm32f4xx_it.c ****   {
  57:../src/stm32f4xx_it.c ****   }
 174              		.loc 1 57 0 discriminator 1
 175 0004 FEE7     		b	.L10
 176              		.cfi_endproc
 177              	.LFE139:
 179 0006 00BF     		.section	.text.UsageFault_Handler,"ax",%progbits
 180              		.align	2
 181              		.global	UsageFault_Handler
 182              		.thumb
 183              		.thumb_func
ARM GAS  /var/folders/_8/_cw6l3nd335f_j6cn6z79m4m0000gn/T//ccX9B6Vt.s 			page 5


 185              	UsageFault_Handler:
 186              	.LFB140:
  58:../src/stm32f4xx_it.c **** }
  59:../src/stm32f4xx_it.c **** 
  60:../src/stm32f4xx_it.c **** /**
  61:../src/stm32f4xx_it.c ****   * @brief  This function handles Usage Fault exception.
  62:../src/stm32f4xx_it.c ****   * @param  None
  63:../src/stm32f4xx_it.c ****   * @retval None
  64:../src/stm32f4xx_it.c ****   */
  65:../src/stm32f4xx_it.c **** void UsageFault_Handler(void)
  66:../src/stm32f4xx_it.c **** {
 187              		.loc 1 66 0
 188              		.cfi_startproc
 189              		@ args = 0, pretend = 0, frame = 0
 190              		@ frame_needed = 1, uses_anonymous_args = 0
 191              		@ link register save eliminated.
 192 0000 80B4     		push	{r7}
 193              	.LCFI14:
 194              		.cfi_def_cfa_offset 4
 195              		.cfi_offset 7, -4
 196 0002 00AF     		add	r7, sp, #0
 197              	.LCFI15:
 198              		.cfi_def_cfa_register 7
 199              	.L12:
  67:../src/stm32f4xx_it.c ****   /* Go to infinite loop when Usage Fault exception occurs */
  68:../src/stm32f4xx_it.c ****   while (1)
  69:../src/stm32f4xx_it.c ****   {
  70:../src/stm32f4xx_it.c ****   }
 200              		.loc 1 70 0 discriminator 1
 201 0004 FEE7     		b	.L12
 202              		.cfi_endproc
 203              	.LFE140:
 205 0006 00BF     		.section	.text.DebugMon_Handler,"ax",%progbits
 206              		.align	2
 207              		.global	DebugMon_Handler
 208              		.thumb
 209              		.thumb_func
 211              	DebugMon_Handler:
 212              	.LFB141:
  71:../src/stm32f4xx_it.c **** }
  72:../src/stm32f4xx_it.c **** 
  73:../src/stm32f4xx_it.c **** /**
  74:../src/stm32f4xx_it.c ****   * @brief  This function handles Debug Monitor exception.
  75:../src/stm32f4xx_it.c ****   * @param  None
  76:../src/stm32f4xx_it.c ****   * @retval None
  77:../src/stm32f4xx_it.c ****   */
  78:../src/stm32f4xx_it.c **** void DebugMon_Handler(void)
  79:../src/stm32f4xx_it.c **** {
 213              		.loc 1 79 0
 214              		.cfi_startproc
 215              		@ args = 0, pretend = 0, frame = 0
 216              		@ frame_needed = 1, uses_anonymous_args = 0
 217              		@ link register save eliminated.
 218 0000 80B4     		push	{r7}
 219              	.LCFI16:
 220              		.cfi_def_cfa_offset 4
 221              		.cfi_offset 7, -4
ARM GAS  /var/folders/_8/_cw6l3nd335f_j6cn6z79m4m0000gn/T//ccX9B6Vt.s 			page 6


 222 0002 00AF     		add	r7, sp, #0
 223              	.LCFI17:
 224              		.cfi_def_cfa_register 7
  80:../src/stm32f4xx_it.c **** }
 225              		.loc 1 80 0
 226 0004 BD46     		mov	sp, r7
 227              	.LCFI18:
 228              		.cfi_def_cfa_register 13
 229              		@ sp needed
 230 0006 5DF8047B 		ldr	r7, [sp], #4
 231              	.LCFI19:
 232              		.cfi_restore 7
 233              		.cfi_def_cfa_offset 0
 234 000a 7047     		bx	lr
 235              		.cfi_endproc
 236              	.LFE141:
 238              		.section	.text.SysTick_Handler,"ax",%progbits
 239              		.align	2
 240              		.global	SysTick_Handler
 241              		.thumb
 242              		.thumb_func
 244              	SysTick_Handler:
 245              	.LFB142:
  81:../src/stm32f4xx_it.c **** 
  82:../src/stm32f4xx_it.c **** void SysTick_Handler(void)
  83:../src/stm32f4xx_it.c **** {
 246              		.loc 1 83 0
 247              		.cfi_startproc
 248              		@ args = 0, pretend = 0, frame = 0
 249              		@ frame_needed = 1, uses_anonymous_args = 0
 250 0000 80B5     		push	{r7, lr}
 251              	.LCFI20:
 252              		.cfi_def_cfa_offset 8
 253              		.cfi_offset 7, -8
 254              		.cfi_offset 14, -4
 255 0002 00AF     		add	r7, sp, #0
 256              	.LCFI21:
 257              		.cfi_def_cfa_register 7
  84:../src/stm32f4xx_it.c ****   HAL_IncTick();
 258              		.loc 1 84 0
 259 0004 FFF7FEFF 		bl	HAL_IncTick
  85:../src/stm32f4xx_it.c ****   if (isOSStarted) {
 260              		.loc 1 85 0
 261 0008 034B     		ldr	r3, .L16
 262 000a 1B68     		ldr	r3, [r3]
 263 000c 002B     		cmp	r3, #0
 264 000e 01D0     		beq	.L14
  86:../src/stm32f4xx_it.c **** 	  xPortSysTickHandler();
 265              		.loc 1 86 0
 266 0010 FFF7FEFF 		bl	OSSysTick_Handler
 267              	.L14:
  87:../src/stm32f4xx_it.c ****   }
  88:../src/stm32f4xx_it.c **** }
 268              		.loc 1 88 0
 269 0014 80BD     		pop	{r7, pc}
 270              	.L17:
 271 0016 00BF     		.align	2
ARM GAS  /var/folders/_8/_cw6l3nd335f_j6cn6z79m4m0000gn/T//ccX9B6Vt.s 			page 7


 272              	.L16:
 273 0018 00000000 		.word	isOSStarted
 274              		.cfi_endproc
 275              	.LFE142:
 277              		.text
 278              	.Letext0:
 279              		.file 2 "/Users/adambujak/Workspace/whisper_system/.dependencies/gcc-arm-none-eabi-4_9-2015q3/arm-
 280              		.file 3 "/Users/adambujak/Workspace/whisper_system/.dependencies/gcc-arm-none-eabi-4_9-2015q3/arm-
 281              		.file 4 "../../../../dependencies/stm/STM32F4_Cube/Drivers/CMSIS/Include/core_cm4.h"
ARM GAS  /var/folders/_8/_cw6l3nd335f_j6cn6z79m4m0000gn/T//ccX9B6Vt.s 			page 8

