ARM GAS  /var/folders/_8/_cw6l3nd335f_j6cn6z79m4m0000gn/T//ccTXFGg6.s 			page 1


   1              		.syntax unified
   2              		.cpu cortex-m4
   3              		.eabi_attribute 27, 1
   4              		.eabi_attribute 28, 1
   5              		.fpu fpv4-sp-d16
   6              		.eabi_attribute 20, 1
   7              		.eabi_attribute 21, 1
   8              		.eabi_attribute 23, 3
   9              		.eabi_attribute 24, 1
  10              		.eabi_attribute 25, 1
  11              		.eabi_attribute 26, 1
  12              		.eabi_attribute 30, 6
  13              		.eabi_attribute 34, 1
  14              		.eabi_attribute 18, 4
  15              		.thumb
  16              		.file	"stm32f4xx_hal_rcc.c"
  17              		.text
  18              	.Ltext0:
  19              		.cfi_sections	.debug_frame
  20              		.section	.text.HAL_RCC_DeInit,"ax",%progbits
  21              		.align	2
  22              		.weak	HAL_RCC_DeInit
  23              		.thumb
  24              		.thumb_func
  26              	HAL_RCC_DeInit:
  27              	.LFB130:
  28              		.file 1 "../../../../dependencies/stm/STM32F4_Cube/Drivers/STM32F4xx_HAL_Driver/Src/stm32f4xx_hal_
   1:../../../../dependencies/stm/STM32F4_Cube/Drivers/STM32F4xx_HAL_Driver/Src/stm32f4xx_hal_rcc.c **** /**
   2:../../../../dependencies/stm/STM32F4_Cube/Drivers/STM32F4xx_HAL_Driver/Src/stm32f4xx_hal_rcc.c ****   ******************************************************************************
   3:../../../../dependencies/stm/STM32F4_Cube/Drivers/STM32F4xx_HAL_Driver/Src/stm32f4xx_hal_rcc.c ****   * @file    stm32f4xx_hal_rcc.c
   4:../../../../dependencies/stm/STM32F4_Cube/Drivers/STM32F4xx_HAL_Driver/Src/stm32f4xx_hal_rcc.c ****   * @author  MCD Application Team
   5:../../../../dependencies/stm/STM32F4_Cube/Drivers/STM32F4xx_HAL_Driver/Src/stm32f4xx_hal_rcc.c ****   * @brief   RCC HAL module driver.
   6:../../../../dependencies/stm/STM32F4_Cube/Drivers/STM32F4xx_HAL_Driver/Src/stm32f4xx_hal_rcc.c ****   *          This file provides firmware functions to manage the following
   7:../../../../dependencies/stm/STM32F4_Cube/Drivers/STM32F4xx_HAL_Driver/Src/stm32f4xx_hal_rcc.c ****   *          functionalities of the Reset and Clock Control (RCC) peripheral:
   8:../../../../dependencies/stm/STM32F4_Cube/Drivers/STM32F4xx_HAL_Driver/Src/stm32f4xx_hal_rcc.c ****   *           + Initialization and de-initialization functions
   9:../../../../dependencies/stm/STM32F4_Cube/Drivers/STM32F4xx_HAL_Driver/Src/stm32f4xx_hal_rcc.c ****   *           + Peripheral Control functions
  10:../../../../dependencies/stm/STM32F4_Cube/Drivers/STM32F4xx_HAL_Driver/Src/stm32f4xx_hal_rcc.c ****   *
  11:../../../../dependencies/stm/STM32F4_Cube/Drivers/STM32F4xx_HAL_Driver/Src/stm32f4xx_hal_rcc.c ****   @verbatim
  12:../../../../dependencies/stm/STM32F4_Cube/Drivers/STM32F4xx_HAL_Driver/Src/stm32f4xx_hal_rcc.c ****   ==============================================================================
  13:../../../../dependencies/stm/STM32F4_Cube/Drivers/STM32F4xx_HAL_Driver/Src/stm32f4xx_hal_rcc.c ****                       ##### RCC specific features #####
  14:../../../../dependencies/stm/STM32F4_Cube/Drivers/STM32F4xx_HAL_Driver/Src/stm32f4xx_hal_rcc.c ****   ==============================================================================
  15:../../../../dependencies/stm/STM32F4_Cube/Drivers/STM32F4xx_HAL_Driver/Src/stm32f4xx_hal_rcc.c ****     [..]
  16:../../../../dependencies/stm/STM32F4_Cube/Drivers/STM32F4xx_HAL_Driver/Src/stm32f4xx_hal_rcc.c ****       After reset the device is running from Internal High Speed oscillator
  17:../../../../dependencies/stm/STM32F4_Cube/Drivers/STM32F4xx_HAL_Driver/Src/stm32f4xx_hal_rcc.c ****       (HSI 16MHz) with Flash 0 wait state, Flash prefetch buffer, D-Cache
  18:../../../../dependencies/stm/STM32F4_Cube/Drivers/STM32F4xx_HAL_Driver/Src/stm32f4xx_hal_rcc.c ****       and I-Cache are disabled, and all peripherals are off except internal
  19:../../../../dependencies/stm/STM32F4_Cube/Drivers/STM32F4xx_HAL_Driver/Src/stm32f4xx_hal_rcc.c ****       SRAM, Flash and JTAG.
  20:../../../../dependencies/stm/STM32F4_Cube/Drivers/STM32F4xx_HAL_Driver/Src/stm32f4xx_hal_rcc.c ****       (+) There is no prescaler on High speed (AHB) and Low speed (APB) busses;
  21:../../../../dependencies/stm/STM32F4_Cube/Drivers/STM32F4xx_HAL_Driver/Src/stm32f4xx_hal_rcc.c ****           all peripherals mapped on these busses are running at HSI speed.
  22:../../../../dependencies/stm/STM32F4_Cube/Drivers/STM32F4xx_HAL_Driver/Src/stm32f4xx_hal_rcc.c ****       (+) The clock for all peripherals is switched off, except the SRAM and FLASH.
  23:../../../../dependencies/stm/STM32F4_Cube/Drivers/STM32F4xx_HAL_Driver/Src/stm32f4xx_hal_rcc.c ****       (+) All GPIOs are in input floating state, except the JTAG pins which
  24:../../../../dependencies/stm/STM32F4_Cube/Drivers/STM32F4xx_HAL_Driver/Src/stm32f4xx_hal_rcc.c ****           are assigned to be used for debug purpose.
  25:../../../../dependencies/stm/STM32F4_Cube/Drivers/STM32F4xx_HAL_Driver/Src/stm32f4xx_hal_rcc.c **** 
  26:../../../../dependencies/stm/STM32F4_Cube/Drivers/STM32F4xx_HAL_Driver/Src/stm32f4xx_hal_rcc.c ****     [..]
  27:../../../../dependencies/stm/STM32F4_Cube/Drivers/STM32F4xx_HAL_Driver/Src/stm32f4xx_hal_rcc.c ****       Once the device started from reset, the user application has to:
  28:../../../../dependencies/stm/STM32F4_Cube/Drivers/STM32F4xx_HAL_Driver/Src/stm32f4xx_hal_rcc.c ****       (+) Configure the clock source to be used to drive the System clock
  29:../../../../dependencies/stm/STM32F4_Cube/Drivers/STM32F4xx_HAL_Driver/Src/stm32f4xx_hal_rcc.c ****           (if the application needs higher frequency/performance)
  30:../../../../dependencies/stm/STM32F4_Cube/Drivers/STM32F4xx_HAL_Driver/Src/stm32f4xx_hal_rcc.c ****       (+) Configure the System clock frequency and Flash settings
ARM GAS  /var/folders/_8/_cw6l3nd335f_j6cn6z79m4m0000gn/T//ccTXFGg6.s 			page 2


  31:../../../../dependencies/stm/STM32F4_Cube/Drivers/STM32F4xx_HAL_Driver/Src/stm32f4xx_hal_rcc.c ****       (+) Configure the AHB and APB busses prescalers
  32:../../../../dependencies/stm/STM32F4_Cube/Drivers/STM32F4xx_HAL_Driver/Src/stm32f4xx_hal_rcc.c ****       (+) Enable the clock for the peripheral(s) to be used
  33:../../../../dependencies/stm/STM32F4_Cube/Drivers/STM32F4xx_HAL_Driver/Src/stm32f4xx_hal_rcc.c ****       (+) Configure the clock source(s) for peripherals which clocks are not
  34:../../../../dependencies/stm/STM32F4_Cube/Drivers/STM32F4xx_HAL_Driver/Src/stm32f4xx_hal_rcc.c ****           derived from the System clock (I2S, RTC, ADC, USB OTG FS/SDIO/RNG)
  35:../../../../dependencies/stm/STM32F4_Cube/Drivers/STM32F4xx_HAL_Driver/Src/stm32f4xx_hal_rcc.c **** 
  36:../../../../dependencies/stm/STM32F4_Cube/Drivers/STM32F4xx_HAL_Driver/Src/stm32f4xx_hal_rcc.c ****                       ##### RCC Limitations #####
  37:../../../../dependencies/stm/STM32F4_Cube/Drivers/STM32F4xx_HAL_Driver/Src/stm32f4xx_hal_rcc.c ****   ==============================================================================
  38:../../../../dependencies/stm/STM32F4_Cube/Drivers/STM32F4xx_HAL_Driver/Src/stm32f4xx_hal_rcc.c ****     [..]
  39:../../../../dependencies/stm/STM32F4_Cube/Drivers/STM32F4xx_HAL_Driver/Src/stm32f4xx_hal_rcc.c ****       A delay between an RCC peripheral clock enable and the effective peripheral
  40:../../../../dependencies/stm/STM32F4_Cube/Drivers/STM32F4xx_HAL_Driver/Src/stm32f4xx_hal_rcc.c ****       enabling should be taken into account in order to manage the peripheral read/write
  41:../../../../dependencies/stm/STM32F4_Cube/Drivers/STM32F4xx_HAL_Driver/Src/stm32f4xx_hal_rcc.c ****       from/to registers.
  42:../../../../dependencies/stm/STM32F4_Cube/Drivers/STM32F4xx_HAL_Driver/Src/stm32f4xx_hal_rcc.c ****       (+) This delay depends on the peripheral mapping.
  43:../../../../dependencies/stm/STM32F4_Cube/Drivers/STM32F4xx_HAL_Driver/Src/stm32f4xx_hal_rcc.c ****       (+) If peripheral is mapped on AHB: the delay is 2 AHB clock cycle
  44:../../../../dependencies/stm/STM32F4_Cube/Drivers/STM32F4xx_HAL_Driver/Src/stm32f4xx_hal_rcc.c ****           after the clock enable bit is set on the hardware register
  45:../../../../dependencies/stm/STM32F4_Cube/Drivers/STM32F4xx_HAL_Driver/Src/stm32f4xx_hal_rcc.c ****       (+) If peripheral is mapped on APB: the delay is 2 APB clock cycle
  46:../../../../dependencies/stm/STM32F4_Cube/Drivers/STM32F4xx_HAL_Driver/Src/stm32f4xx_hal_rcc.c ****           after the clock enable bit is set on the hardware register
  47:../../../../dependencies/stm/STM32F4_Cube/Drivers/STM32F4xx_HAL_Driver/Src/stm32f4xx_hal_rcc.c **** 
  48:../../../../dependencies/stm/STM32F4_Cube/Drivers/STM32F4xx_HAL_Driver/Src/stm32f4xx_hal_rcc.c ****     [..]
  49:../../../../dependencies/stm/STM32F4_Cube/Drivers/STM32F4xx_HAL_Driver/Src/stm32f4xx_hal_rcc.c ****       Implemented Workaround:
  50:../../../../dependencies/stm/STM32F4_Cube/Drivers/STM32F4xx_HAL_Driver/Src/stm32f4xx_hal_rcc.c ****       (+) For AHB & APB peripherals, a dummy read to the peripheral register has been
  51:../../../../dependencies/stm/STM32F4_Cube/Drivers/STM32F4xx_HAL_Driver/Src/stm32f4xx_hal_rcc.c ****           inserted in each __HAL_RCC_PPP_CLK_ENABLE() macro.
  52:../../../../dependencies/stm/STM32F4_Cube/Drivers/STM32F4xx_HAL_Driver/Src/stm32f4xx_hal_rcc.c **** 
  53:../../../../dependencies/stm/STM32F4_Cube/Drivers/STM32F4xx_HAL_Driver/Src/stm32f4xx_hal_rcc.c ****   @endverbatim
  54:../../../../dependencies/stm/STM32F4_Cube/Drivers/STM32F4xx_HAL_Driver/Src/stm32f4xx_hal_rcc.c ****   ******************************************************************************
  55:../../../../dependencies/stm/STM32F4_Cube/Drivers/STM32F4xx_HAL_Driver/Src/stm32f4xx_hal_rcc.c ****   * @attention
  56:../../../../dependencies/stm/STM32F4_Cube/Drivers/STM32F4xx_HAL_Driver/Src/stm32f4xx_hal_rcc.c ****   *
  57:../../../../dependencies/stm/STM32F4_Cube/Drivers/STM32F4xx_HAL_Driver/Src/stm32f4xx_hal_rcc.c ****   * <h2><center>&copy; Copyright (c) 2017 STMicroelectronics.
  58:../../../../dependencies/stm/STM32F4_Cube/Drivers/STM32F4xx_HAL_Driver/Src/stm32f4xx_hal_rcc.c ****   * All rights reserved.</center></h2>
  59:../../../../dependencies/stm/STM32F4_Cube/Drivers/STM32F4xx_HAL_Driver/Src/stm32f4xx_hal_rcc.c ****   *
  60:../../../../dependencies/stm/STM32F4_Cube/Drivers/STM32F4xx_HAL_Driver/Src/stm32f4xx_hal_rcc.c ****   * This software component is licensed by ST under BSD 3-Clause license,
  61:../../../../dependencies/stm/STM32F4_Cube/Drivers/STM32F4xx_HAL_Driver/Src/stm32f4xx_hal_rcc.c ****   * the "License"; You may not use this file except in compliance with the
  62:../../../../dependencies/stm/STM32F4_Cube/Drivers/STM32F4xx_HAL_Driver/Src/stm32f4xx_hal_rcc.c ****   * License. You may obtain a copy of the License at:
  63:../../../../dependencies/stm/STM32F4_Cube/Drivers/STM32F4xx_HAL_Driver/Src/stm32f4xx_hal_rcc.c ****   *                        opensource.org/licenses/BSD-3-Clause
  64:../../../../dependencies/stm/STM32F4_Cube/Drivers/STM32F4xx_HAL_Driver/Src/stm32f4xx_hal_rcc.c ****   *
  65:../../../../dependencies/stm/STM32F4_Cube/Drivers/STM32F4xx_HAL_Driver/Src/stm32f4xx_hal_rcc.c ****   ******************************************************************************
  66:../../../../dependencies/stm/STM32F4_Cube/Drivers/STM32F4xx_HAL_Driver/Src/stm32f4xx_hal_rcc.c ****   */
  67:../../../../dependencies/stm/STM32F4_Cube/Drivers/STM32F4xx_HAL_Driver/Src/stm32f4xx_hal_rcc.c **** 
  68:../../../../dependencies/stm/STM32F4_Cube/Drivers/STM32F4xx_HAL_Driver/Src/stm32f4xx_hal_rcc.c **** /* Includes ------------------------------------------------------------------*/
  69:../../../../dependencies/stm/STM32F4_Cube/Drivers/STM32F4xx_HAL_Driver/Src/stm32f4xx_hal_rcc.c **** #include "stm32f4xx_hal.h"
  70:../../../../dependencies/stm/STM32F4_Cube/Drivers/STM32F4xx_HAL_Driver/Src/stm32f4xx_hal_rcc.c **** 
  71:../../../../dependencies/stm/STM32F4_Cube/Drivers/STM32F4xx_HAL_Driver/Src/stm32f4xx_hal_rcc.c **** /** @addtogroup STM32F4xx_HAL_Driver
  72:../../../../dependencies/stm/STM32F4_Cube/Drivers/STM32F4xx_HAL_Driver/Src/stm32f4xx_hal_rcc.c ****   * @{
  73:../../../../dependencies/stm/STM32F4_Cube/Drivers/STM32F4xx_HAL_Driver/Src/stm32f4xx_hal_rcc.c ****   */
  74:../../../../dependencies/stm/STM32F4_Cube/Drivers/STM32F4xx_HAL_Driver/Src/stm32f4xx_hal_rcc.c **** 
  75:../../../../dependencies/stm/STM32F4_Cube/Drivers/STM32F4xx_HAL_Driver/Src/stm32f4xx_hal_rcc.c **** /** @defgroup RCC RCC
  76:../../../../dependencies/stm/STM32F4_Cube/Drivers/STM32F4xx_HAL_Driver/Src/stm32f4xx_hal_rcc.c ****   * @brief RCC HAL module driver
  77:../../../../dependencies/stm/STM32F4_Cube/Drivers/STM32F4xx_HAL_Driver/Src/stm32f4xx_hal_rcc.c ****   * @{
  78:../../../../dependencies/stm/STM32F4_Cube/Drivers/STM32F4xx_HAL_Driver/Src/stm32f4xx_hal_rcc.c ****   */
  79:../../../../dependencies/stm/STM32F4_Cube/Drivers/STM32F4xx_HAL_Driver/Src/stm32f4xx_hal_rcc.c **** 
  80:../../../../dependencies/stm/STM32F4_Cube/Drivers/STM32F4xx_HAL_Driver/Src/stm32f4xx_hal_rcc.c **** #ifdef HAL_RCC_MODULE_ENABLED
  81:../../../../dependencies/stm/STM32F4_Cube/Drivers/STM32F4xx_HAL_Driver/Src/stm32f4xx_hal_rcc.c **** 
  82:../../../../dependencies/stm/STM32F4_Cube/Drivers/STM32F4xx_HAL_Driver/Src/stm32f4xx_hal_rcc.c **** /* Private typedef -----------------------------------------------------------*/
  83:../../../../dependencies/stm/STM32F4_Cube/Drivers/STM32F4xx_HAL_Driver/Src/stm32f4xx_hal_rcc.c **** /* Private define ------------------------------------------------------------*/
  84:../../../../dependencies/stm/STM32F4_Cube/Drivers/STM32F4xx_HAL_Driver/Src/stm32f4xx_hal_rcc.c **** /** @addtogroup RCC_Private_Constants
  85:../../../../dependencies/stm/STM32F4_Cube/Drivers/STM32F4xx_HAL_Driver/Src/stm32f4xx_hal_rcc.c ****   * @{
  86:../../../../dependencies/stm/STM32F4_Cube/Drivers/STM32F4xx_HAL_Driver/Src/stm32f4xx_hal_rcc.c ****   */
  87:../../../../dependencies/stm/STM32F4_Cube/Drivers/STM32F4xx_HAL_Driver/Src/stm32f4xx_hal_rcc.c **** 
ARM GAS  /var/folders/_8/_cw6l3nd335f_j6cn6z79m4m0000gn/T//ccTXFGg6.s 			page 3


  88:../../../../dependencies/stm/STM32F4_Cube/Drivers/STM32F4xx_HAL_Driver/Src/stm32f4xx_hal_rcc.c **** /* Private macro -------------------------------------------------------------*/
  89:../../../../dependencies/stm/STM32F4_Cube/Drivers/STM32F4xx_HAL_Driver/Src/stm32f4xx_hal_rcc.c **** #define __MCO1_CLK_ENABLE()   __HAL_RCC_GPIOA_CLK_ENABLE()
  90:../../../../dependencies/stm/STM32F4_Cube/Drivers/STM32F4xx_HAL_Driver/Src/stm32f4xx_hal_rcc.c **** #define MCO1_GPIO_PORT        GPIOA
  91:../../../../dependencies/stm/STM32F4_Cube/Drivers/STM32F4xx_HAL_Driver/Src/stm32f4xx_hal_rcc.c **** #define MCO1_PIN              GPIO_PIN_8
  92:../../../../dependencies/stm/STM32F4_Cube/Drivers/STM32F4xx_HAL_Driver/Src/stm32f4xx_hal_rcc.c **** 
  93:../../../../dependencies/stm/STM32F4_Cube/Drivers/STM32F4xx_HAL_Driver/Src/stm32f4xx_hal_rcc.c **** #define __MCO2_CLK_ENABLE()   __HAL_RCC_GPIOC_CLK_ENABLE()
  94:../../../../dependencies/stm/STM32F4_Cube/Drivers/STM32F4xx_HAL_Driver/Src/stm32f4xx_hal_rcc.c **** #define MCO2_GPIO_PORT         GPIOC
  95:../../../../dependencies/stm/STM32F4_Cube/Drivers/STM32F4xx_HAL_Driver/Src/stm32f4xx_hal_rcc.c **** #define MCO2_PIN               GPIO_PIN_9
  96:../../../../dependencies/stm/STM32F4_Cube/Drivers/STM32F4xx_HAL_Driver/Src/stm32f4xx_hal_rcc.c **** /**
  97:../../../../dependencies/stm/STM32F4_Cube/Drivers/STM32F4xx_HAL_Driver/Src/stm32f4xx_hal_rcc.c ****   * @}
  98:../../../../dependencies/stm/STM32F4_Cube/Drivers/STM32F4xx_HAL_Driver/Src/stm32f4xx_hal_rcc.c ****   */
  99:../../../../dependencies/stm/STM32F4_Cube/Drivers/STM32F4xx_HAL_Driver/Src/stm32f4xx_hal_rcc.c **** 
 100:../../../../dependencies/stm/STM32F4_Cube/Drivers/STM32F4xx_HAL_Driver/Src/stm32f4xx_hal_rcc.c **** /* Private variables ---------------------------------------------------------*/
 101:../../../../dependencies/stm/STM32F4_Cube/Drivers/STM32F4xx_HAL_Driver/Src/stm32f4xx_hal_rcc.c **** /** @defgroup RCC_Private_Variables RCC Private Variables
 102:../../../../dependencies/stm/STM32F4_Cube/Drivers/STM32F4xx_HAL_Driver/Src/stm32f4xx_hal_rcc.c ****   * @{
 103:../../../../dependencies/stm/STM32F4_Cube/Drivers/STM32F4xx_HAL_Driver/Src/stm32f4xx_hal_rcc.c ****   */
 104:../../../../dependencies/stm/STM32F4_Cube/Drivers/STM32F4xx_HAL_Driver/Src/stm32f4xx_hal_rcc.c **** /**
 105:../../../../dependencies/stm/STM32F4_Cube/Drivers/STM32F4xx_HAL_Driver/Src/stm32f4xx_hal_rcc.c ****   * @}
 106:../../../../dependencies/stm/STM32F4_Cube/Drivers/STM32F4xx_HAL_Driver/Src/stm32f4xx_hal_rcc.c ****   */
 107:../../../../dependencies/stm/STM32F4_Cube/Drivers/STM32F4xx_HAL_Driver/Src/stm32f4xx_hal_rcc.c **** /* Private function prototypes -----------------------------------------------*/
 108:../../../../dependencies/stm/STM32F4_Cube/Drivers/STM32F4xx_HAL_Driver/Src/stm32f4xx_hal_rcc.c **** /* Private functions ---------------------------------------------------------*/
 109:../../../../dependencies/stm/STM32F4_Cube/Drivers/STM32F4xx_HAL_Driver/Src/stm32f4xx_hal_rcc.c **** 
 110:../../../../dependencies/stm/STM32F4_Cube/Drivers/STM32F4xx_HAL_Driver/Src/stm32f4xx_hal_rcc.c **** /** @defgroup RCC_Exported_Functions RCC Exported Functions
 111:../../../../dependencies/stm/STM32F4_Cube/Drivers/STM32F4xx_HAL_Driver/Src/stm32f4xx_hal_rcc.c ****   *  @{
 112:../../../../dependencies/stm/STM32F4_Cube/Drivers/STM32F4xx_HAL_Driver/Src/stm32f4xx_hal_rcc.c ****   */
 113:../../../../dependencies/stm/STM32F4_Cube/Drivers/STM32F4xx_HAL_Driver/Src/stm32f4xx_hal_rcc.c **** 
 114:../../../../dependencies/stm/STM32F4_Cube/Drivers/STM32F4xx_HAL_Driver/Src/stm32f4xx_hal_rcc.c **** /** @defgroup RCC_Exported_Functions_Group1 Initialization and de-initialization functions
 115:../../../../dependencies/stm/STM32F4_Cube/Drivers/STM32F4xx_HAL_Driver/Src/stm32f4xx_hal_rcc.c ****  *  @brief    Initialization and Configuration functions
 116:../../../../dependencies/stm/STM32F4_Cube/Drivers/STM32F4xx_HAL_Driver/Src/stm32f4xx_hal_rcc.c ****  *
 117:../../../../dependencies/stm/STM32F4_Cube/Drivers/STM32F4xx_HAL_Driver/Src/stm32f4xx_hal_rcc.c **** @verbatim
 118:../../../../dependencies/stm/STM32F4_Cube/Drivers/STM32F4xx_HAL_Driver/Src/stm32f4xx_hal_rcc.c ****  ===============================================================================
 119:../../../../dependencies/stm/STM32F4_Cube/Drivers/STM32F4xx_HAL_Driver/Src/stm32f4xx_hal_rcc.c ****            ##### Initialization and de-initialization functions #####
 120:../../../../dependencies/stm/STM32F4_Cube/Drivers/STM32F4xx_HAL_Driver/Src/stm32f4xx_hal_rcc.c ****  ===============================================================================
 121:../../../../dependencies/stm/STM32F4_Cube/Drivers/STM32F4xx_HAL_Driver/Src/stm32f4xx_hal_rcc.c ****     [..]
 122:../../../../dependencies/stm/STM32F4_Cube/Drivers/STM32F4xx_HAL_Driver/Src/stm32f4xx_hal_rcc.c ****       This section provides functions allowing to configure the internal/external oscillators
 123:../../../../dependencies/stm/STM32F4_Cube/Drivers/STM32F4xx_HAL_Driver/Src/stm32f4xx_hal_rcc.c ****       (HSE, HSI, LSE, LSI, PLL, CSS and MCO) and the System busses clocks (SYSCLK, AHB, APB1
 124:../../../../dependencies/stm/STM32F4_Cube/Drivers/STM32F4xx_HAL_Driver/Src/stm32f4xx_hal_rcc.c ****        and APB2).
 125:../../../../dependencies/stm/STM32F4_Cube/Drivers/STM32F4xx_HAL_Driver/Src/stm32f4xx_hal_rcc.c **** 
 126:../../../../dependencies/stm/STM32F4_Cube/Drivers/STM32F4xx_HAL_Driver/Src/stm32f4xx_hal_rcc.c ****     [..] Internal/external clock and PLL configuration
 127:../../../../dependencies/stm/STM32F4_Cube/Drivers/STM32F4xx_HAL_Driver/Src/stm32f4xx_hal_rcc.c ****          (#) HSI (high-speed internal), 16 MHz factory-trimmed RC used directly or through
 128:../../../../dependencies/stm/STM32F4_Cube/Drivers/STM32F4xx_HAL_Driver/Src/stm32f4xx_hal_rcc.c ****              the PLL as System clock source.
 129:../../../../dependencies/stm/STM32F4_Cube/Drivers/STM32F4xx_HAL_Driver/Src/stm32f4xx_hal_rcc.c **** 
 130:../../../../dependencies/stm/STM32F4_Cube/Drivers/STM32F4xx_HAL_Driver/Src/stm32f4xx_hal_rcc.c ****          (#) LSI (low-speed internal), 32 KHz low consumption RC used as IWDG and/or RTC
 131:../../../../dependencies/stm/STM32F4_Cube/Drivers/STM32F4xx_HAL_Driver/Src/stm32f4xx_hal_rcc.c ****              clock source.
 132:../../../../dependencies/stm/STM32F4_Cube/Drivers/STM32F4xx_HAL_Driver/Src/stm32f4xx_hal_rcc.c **** 
 133:../../../../dependencies/stm/STM32F4_Cube/Drivers/STM32F4xx_HAL_Driver/Src/stm32f4xx_hal_rcc.c ****          (#) HSE (high-speed external), 4 to 26 MHz crystal oscillator used directly or
 134:../../../../dependencies/stm/STM32F4_Cube/Drivers/STM32F4xx_HAL_Driver/Src/stm32f4xx_hal_rcc.c ****              through the PLL as System clock source. Can be used also as RTC clock source.
 135:../../../../dependencies/stm/STM32F4_Cube/Drivers/STM32F4xx_HAL_Driver/Src/stm32f4xx_hal_rcc.c **** 
 136:../../../../dependencies/stm/STM32F4_Cube/Drivers/STM32F4xx_HAL_Driver/Src/stm32f4xx_hal_rcc.c ****          (#) LSE (low-speed external), 32 KHz oscillator used as RTC clock source.
 137:../../../../dependencies/stm/STM32F4_Cube/Drivers/STM32F4xx_HAL_Driver/Src/stm32f4xx_hal_rcc.c **** 
 138:../../../../dependencies/stm/STM32F4_Cube/Drivers/STM32F4xx_HAL_Driver/Src/stm32f4xx_hal_rcc.c ****          (#) PLL (clocked by HSI or HSE), featuring two different output clocks:
 139:../../../../dependencies/stm/STM32F4_Cube/Drivers/STM32F4xx_HAL_Driver/Src/stm32f4xx_hal_rcc.c ****            (++) The first output is used to generate the high speed system clock (up to 168 MHz)
 140:../../../../dependencies/stm/STM32F4_Cube/Drivers/STM32F4xx_HAL_Driver/Src/stm32f4xx_hal_rcc.c ****            (++) The second output is used to generate the clock for the USB OTG FS (48 MHz),
 141:../../../../dependencies/stm/STM32F4_Cube/Drivers/STM32F4xx_HAL_Driver/Src/stm32f4xx_hal_rcc.c ****                 the random analog generator (<=48 MHz) and the SDIO (<= 48 MHz).
 142:../../../../dependencies/stm/STM32F4_Cube/Drivers/STM32F4xx_HAL_Driver/Src/stm32f4xx_hal_rcc.c **** 
 143:../../../../dependencies/stm/STM32F4_Cube/Drivers/STM32F4xx_HAL_Driver/Src/stm32f4xx_hal_rcc.c ****          (#) CSS (Clock security system), once enable using the macro __HAL_RCC_CSS_ENABLE()
 144:../../../../dependencies/stm/STM32F4_Cube/Drivers/STM32F4xx_HAL_Driver/Src/stm32f4xx_hal_rcc.c ****              and if a HSE clock failure occurs(HSE used directly or through PLL as System
ARM GAS  /var/folders/_8/_cw6l3nd335f_j6cn6z79m4m0000gn/T//ccTXFGg6.s 			page 4


 145:../../../../dependencies/stm/STM32F4_Cube/Drivers/STM32F4xx_HAL_Driver/Src/stm32f4xx_hal_rcc.c ****              clock source), the System clocks automatically switched to HSI and an interrupt
 146:../../../../dependencies/stm/STM32F4_Cube/Drivers/STM32F4xx_HAL_Driver/Src/stm32f4xx_hal_rcc.c ****              is generated if enabled. The interrupt is linked to the Cortex-M4 NMI
 147:../../../../dependencies/stm/STM32F4_Cube/Drivers/STM32F4xx_HAL_Driver/Src/stm32f4xx_hal_rcc.c ****              (Non-Maskable Interrupt) exception vector.
 148:../../../../dependencies/stm/STM32F4_Cube/Drivers/STM32F4xx_HAL_Driver/Src/stm32f4xx_hal_rcc.c **** 
 149:../../../../dependencies/stm/STM32F4_Cube/Drivers/STM32F4xx_HAL_Driver/Src/stm32f4xx_hal_rcc.c ****          (#) MCO1 (microcontroller clock output), used to output HSI, LSE, HSE or PLL
 150:../../../../dependencies/stm/STM32F4_Cube/Drivers/STM32F4xx_HAL_Driver/Src/stm32f4xx_hal_rcc.c ****              clock (through a configurable prescaler) on PA8 pin.
 151:../../../../dependencies/stm/STM32F4_Cube/Drivers/STM32F4xx_HAL_Driver/Src/stm32f4xx_hal_rcc.c **** 
 152:../../../../dependencies/stm/STM32F4_Cube/Drivers/STM32F4xx_HAL_Driver/Src/stm32f4xx_hal_rcc.c ****          (#) MCO2 (microcontroller clock output), used to output HSE, PLL, SYSCLK or PLLI2S
 153:../../../../dependencies/stm/STM32F4_Cube/Drivers/STM32F4xx_HAL_Driver/Src/stm32f4xx_hal_rcc.c ****              clock (through a configurable prescaler) on PC9 pin.
 154:../../../../dependencies/stm/STM32F4_Cube/Drivers/STM32F4xx_HAL_Driver/Src/stm32f4xx_hal_rcc.c **** 
 155:../../../../dependencies/stm/STM32F4_Cube/Drivers/STM32F4xx_HAL_Driver/Src/stm32f4xx_hal_rcc.c ****     [..] System, AHB and APB busses clocks configuration
 156:../../../../dependencies/stm/STM32F4_Cube/Drivers/STM32F4xx_HAL_Driver/Src/stm32f4xx_hal_rcc.c ****          (#) Several clock sources can be used to drive the System clock (SYSCLK): HSI,
 157:../../../../dependencies/stm/STM32F4_Cube/Drivers/STM32F4xx_HAL_Driver/Src/stm32f4xx_hal_rcc.c ****              HSE and PLL.
 158:../../../../dependencies/stm/STM32F4_Cube/Drivers/STM32F4xx_HAL_Driver/Src/stm32f4xx_hal_rcc.c ****              The AHB clock (HCLK) is derived from System clock through configurable
 159:../../../../dependencies/stm/STM32F4_Cube/Drivers/STM32F4xx_HAL_Driver/Src/stm32f4xx_hal_rcc.c ****              prescaler and used to clock the CPU, memory and peripherals mapped
 160:../../../../dependencies/stm/STM32F4_Cube/Drivers/STM32F4xx_HAL_Driver/Src/stm32f4xx_hal_rcc.c ****              on AHB bus (DMA, GPIO...). APB1 (PCLK1) and APB2 (PCLK2) clocks are derived
 161:../../../../dependencies/stm/STM32F4_Cube/Drivers/STM32F4xx_HAL_Driver/Src/stm32f4xx_hal_rcc.c ****              from AHB clock through configurable prescalers and used to clock
 162:../../../../dependencies/stm/STM32F4_Cube/Drivers/STM32F4xx_HAL_Driver/Src/stm32f4xx_hal_rcc.c ****              the peripherals mapped on these busses. You can use
 163:../../../../dependencies/stm/STM32F4_Cube/Drivers/STM32F4xx_HAL_Driver/Src/stm32f4xx_hal_rcc.c ****              "HAL_RCC_GetSysClockFreq()" function to retrieve the frequencies of these clocks.
 164:../../../../dependencies/stm/STM32F4_Cube/Drivers/STM32F4xx_HAL_Driver/Src/stm32f4xx_hal_rcc.c **** 
 165:../../../../dependencies/stm/STM32F4_Cube/Drivers/STM32F4xx_HAL_Driver/Src/stm32f4xx_hal_rcc.c ****          (#) For the STM32F405xx/07xx and STM32F415xx/17xx devices, the maximum
 166:../../../../dependencies/stm/STM32F4_Cube/Drivers/STM32F4xx_HAL_Driver/Src/stm32f4xx_hal_rcc.c ****              frequency of the SYSCLK and HCLK is 168 MHz, PCLK2 84 MHz and PCLK1 42 MHz.
 167:../../../../dependencies/stm/STM32F4_Cube/Drivers/STM32F4xx_HAL_Driver/Src/stm32f4xx_hal_rcc.c ****              Depending on the device voltage range, the maximum frequency should
 168:../../../../dependencies/stm/STM32F4_Cube/Drivers/STM32F4xx_HAL_Driver/Src/stm32f4xx_hal_rcc.c ****              be adapted accordingly (refer to the product datasheets for more details).
 169:../../../../dependencies/stm/STM32F4_Cube/Drivers/STM32F4xx_HAL_Driver/Src/stm32f4xx_hal_rcc.c **** 
 170:../../../../dependencies/stm/STM32F4_Cube/Drivers/STM32F4xx_HAL_Driver/Src/stm32f4xx_hal_rcc.c ****          (#) For the STM32F42xxx, STM32F43xxx, STM32F446xx, STM32F469xx and STM32F479xx devices,
 171:../../../../dependencies/stm/STM32F4_Cube/Drivers/STM32F4xx_HAL_Driver/Src/stm32f4xx_hal_rcc.c ****              the maximum frequency of the SYSCLK and HCLK is 180 MHz, PCLK2 90 MHz and PCLK1 45 MHz
 172:../../../../dependencies/stm/STM32F4_Cube/Drivers/STM32F4xx_HAL_Driver/Src/stm32f4xx_hal_rcc.c ****              Depending on the device voltage range, the maximum frequency should
 173:../../../../dependencies/stm/STM32F4_Cube/Drivers/STM32F4xx_HAL_Driver/Src/stm32f4xx_hal_rcc.c ****              be adapted accordingly (refer to the product datasheets for more details).
 174:../../../../dependencies/stm/STM32F4_Cube/Drivers/STM32F4xx_HAL_Driver/Src/stm32f4xx_hal_rcc.c **** 
 175:../../../../dependencies/stm/STM32F4_Cube/Drivers/STM32F4xx_HAL_Driver/Src/stm32f4xx_hal_rcc.c ****          (#) For the STM32F401xx, the maximum frequency of the SYSCLK and HCLK is 84 MHz,
 176:../../../../dependencies/stm/STM32F4_Cube/Drivers/STM32F4xx_HAL_Driver/Src/stm32f4xx_hal_rcc.c ****              PCLK2 84 MHz and PCLK1 42 MHz.
 177:../../../../dependencies/stm/STM32F4_Cube/Drivers/STM32F4xx_HAL_Driver/Src/stm32f4xx_hal_rcc.c ****              Depending on the device voltage range, the maximum frequency should
 178:../../../../dependencies/stm/STM32F4_Cube/Drivers/STM32F4xx_HAL_Driver/Src/stm32f4xx_hal_rcc.c ****              be adapted accordingly (refer to the product datasheets for more details).
 179:../../../../dependencies/stm/STM32F4_Cube/Drivers/STM32F4xx_HAL_Driver/Src/stm32f4xx_hal_rcc.c **** 
 180:../../../../dependencies/stm/STM32F4_Cube/Drivers/STM32F4xx_HAL_Driver/Src/stm32f4xx_hal_rcc.c ****          (#) For the STM32F41xxx, the maximum frequency of the SYSCLK and HCLK is 100 MHz,
 181:../../../../dependencies/stm/STM32F4_Cube/Drivers/STM32F4xx_HAL_Driver/Src/stm32f4xx_hal_rcc.c ****              PCLK2 100 MHz and PCLK1 50 MHz.
 182:../../../../dependencies/stm/STM32F4_Cube/Drivers/STM32F4xx_HAL_Driver/Src/stm32f4xx_hal_rcc.c ****              Depending on the device voltage range, the maximum frequency should
 183:../../../../dependencies/stm/STM32F4_Cube/Drivers/STM32F4xx_HAL_Driver/Src/stm32f4xx_hal_rcc.c ****              be adapted accordingly (refer to the product datasheets for more details).
 184:../../../../dependencies/stm/STM32F4_Cube/Drivers/STM32F4xx_HAL_Driver/Src/stm32f4xx_hal_rcc.c **** 
 185:../../../../dependencies/stm/STM32F4_Cube/Drivers/STM32F4xx_HAL_Driver/Src/stm32f4xx_hal_rcc.c **** @endverbatim
 186:../../../../dependencies/stm/STM32F4_Cube/Drivers/STM32F4xx_HAL_Driver/Src/stm32f4xx_hal_rcc.c ****   * @{
 187:../../../../dependencies/stm/STM32F4_Cube/Drivers/STM32F4xx_HAL_Driver/Src/stm32f4xx_hal_rcc.c ****   */
 188:../../../../dependencies/stm/STM32F4_Cube/Drivers/STM32F4xx_HAL_Driver/Src/stm32f4xx_hal_rcc.c **** 
 189:../../../../dependencies/stm/STM32F4_Cube/Drivers/STM32F4xx_HAL_Driver/Src/stm32f4xx_hal_rcc.c **** /**
 190:../../../../dependencies/stm/STM32F4_Cube/Drivers/STM32F4xx_HAL_Driver/Src/stm32f4xx_hal_rcc.c ****   * @brief  Resets the RCC clock configuration to the default reset state.
 191:../../../../dependencies/stm/STM32F4_Cube/Drivers/STM32F4xx_HAL_Driver/Src/stm32f4xx_hal_rcc.c ****   * @note   The default reset state of the clock configuration is given below:
 192:../../../../dependencies/stm/STM32F4_Cube/Drivers/STM32F4xx_HAL_Driver/Src/stm32f4xx_hal_rcc.c ****   *            - HSI ON and used as system clock source
 193:../../../../dependencies/stm/STM32F4_Cube/Drivers/STM32F4xx_HAL_Driver/Src/stm32f4xx_hal_rcc.c ****   *            - HSE and PLL OFF
 194:../../../../dependencies/stm/STM32F4_Cube/Drivers/STM32F4xx_HAL_Driver/Src/stm32f4xx_hal_rcc.c ****   *            - AHB, APB1 and APB2 prescaler set to 1.
 195:../../../../dependencies/stm/STM32F4_Cube/Drivers/STM32F4xx_HAL_Driver/Src/stm32f4xx_hal_rcc.c ****   *            - CSS, MCO1 and MCO2 OFF
 196:../../../../dependencies/stm/STM32F4_Cube/Drivers/STM32F4xx_HAL_Driver/Src/stm32f4xx_hal_rcc.c ****   *            - All interrupts disabled
 197:../../../../dependencies/stm/STM32F4_Cube/Drivers/STM32F4xx_HAL_Driver/Src/stm32f4xx_hal_rcc.c ****   * @note   This function doesn't modify the configuration of the
 198:../../../../dependencies/stm/STM32F4_Cube/Drivers/STM32F4xx_HAL_Driver/Src/stm32f4xx_hal_rcc.c ****   *            - Peripheral clocks
 199:../../../../dependencies/stm/STM32F4_Cube/Drivers/STM32F4xx_HAL_Driver/Src/stm32f4xx_hal_rcc.c ****   *            - LSI, LSE and RTC clocks
 200:../../../../dependencies/stm/STM32F4_Cube/Drivers/STM32F4xx_HAL_Driver/Src/stm32f4xx_hal_rcc.c ****   * @retval HAL status
 201:../../../../dependencies/stm/STM32F4_Cube/Drivers/STM32F4xx_HAL_Driver/Src/stm32f4xx_hal_rcc.c ****   */
ARM GAS  /var/folders/_8/_cw6l3nd335f_j6cn6z79m4m0000gn/T//ccTXFGg6.s 			page 5


 202:../../../../dependencies/stm/STM32F4_Cube/Drivers/STM32F4xx_HAL_Driver/Src/stm32f4xx_hal_rcc.c **** __weak HAL_StatusTypeDef HAL_RCC_DeInit(void)
 203:../../../../dependencies/stm/STM32F4_Cube/Drivers/STM32F4xx_HAL_Driver/Src/stm32f4xx_hal_rcc.c **** {
  29              		.loc 1 203 0
  30              		.cfi_startproc
  31              		@ args = 0, pretend = 0, frame = 0
  32              		@ frame_needed = 1, uses_anonymous_args = 0
  33              		@ link register save eliminated.
  34 0000 80B4     		push	{r7}
  35              	.LCFI0:
  36              		.cfi_def_cfa_offset 4
  37              		.cfi_offset 7, -4
  38 0002 00AF     		add	r7, sp, #0
  39              	.LCFI1:
  40              		.cfi_def_cfa_register 7
 204:../../../../dependencies/stm/STM32F4_Cube/Drivers/STM32F4xx_HAL_Driver/Src/stm32f4xx_hal_rcc.c ****   return HAL_OK;
  41              		.loc 1 204 0
  42 0004 0023     		movs	r3, #0
 205:../../../../dependencies/stm/STM32F4_Cube/Drivers/STM32F4xx_HAL_Driver/Src/stm32f4xx_hal_rcc.c **** }
  43              		.loc 1 205 0
  44 0006 1846     		mov	r0, r3
  45 0008 BD46     		mov	sp, r7
  46              	.LCFI2:
  47              		.cfi_def_cfa_register 13
  48              		@ sp needed
  49 000a 5DF8047B 		ldr	r7, [sp], #4
  50              	.LCFI3:
  51              		.cfi_restore 7
  52              		.cfi_def_cfa_offset 0
  53 000e 7047     		bx	lr
  54              		.cfi_endproc
  55              	.LFE130:
  57              		.section	.text.HAL_RCC_OscConfig,"ax",%progbits
  58              		.align	2
  59              		.weak	HAL_RCC_OscConfig
  60              		.thumb
  61              		.thumb_func
  63              	HAL_RCC_OscConfig:
  64              	.LFB131:
 206:../../../../dependencies/stm/STM32F4_Cube/Drivers/STM32F4xx_HAL_Driver/Src/stm32f4xx_hal_rcc.c **** 
 207:../../../../dependencies/stm/STM32F4_Cube/Drivers/STM32F4xx_HAL_Driver/Src/stm32f4xx_hal_rcc.c **** /**
 208:../../../../dependencies/stm/STM32F4_Cube/Drivers/STM32F4xx_HAL_Driver/Src/stm32f4xx_hal_rcc.c ****   * @brief  Initializes the RCC Oscillators according to the specified parameters in the
 209:../../../../dependencies/stm/STM32F4_Cube/Drivers/STM32F4xx_HAL_Driver/Src/stm32f4xx_hal_rcc.c ****   *         RCC_OscInitTypeDef.
 210:../../../../dependencies/stm/STM32F4_Cube/Drivers/STM32F4xx_HAL_Driver/Src/stm32f4xx_hal_rcc.c ****   * @param  RCC_OscInitStruct pointer to an RCC_OscInitTypeDef structure that
 211:../../../../dependencies/stm/STM32F4_Cube/Drivers/STM32F4xx_HAL_Driver/Src/stm32f4xx_hal_rcc.c ****   *         contains the configuration information for the RCC Oscillators.
 212:../../../../dependencies/stm/STM32F4_Cube/Drivers/STM32F4xx_HAL_Driver/Src/stm32f4xx_hal_rcc.c ****   * @note   The PLL is not disabled when used as system clock.
 213:../../../../dependencies/stm/STM32F4_Cube/Drivers/STM32F4xx_HAL_Driver/Src/stm32f4xx_hal_rcc.c ****   * @note   Transitions LSE Bypass to LSE On and LSE On to LSE Bypass are not
 214:../../../../dependencies/stm/STM32F4_Cube/Drivers/STM32F4xx_HAL_Driver/Src/stm32f4xx_hal_rcc.c ****   *         supported by this API. User should request a transition to LSE Off
 215:../../../../dependencies/stm/STM32F4_Cube/Drivers/STM32F4xx_HAL_Driver/Src/stm32f4xx_hal_rcc.c ****   *         first and then LSE On or LSE Bypass.
 216:../../../../dependencies/stm/STM32F4_Cube/Drivers/STM32F4xx_HAL_Driver/Src/stm32f4xx_hal_rcc.c ****   * @note   Transition HSE Bypass to HSE On and HSE On to HSE Bypass are not
 217:../../../../dependencies/stm/STM32F4_Cube/Drivers/STM32F4xx_HAL_Driver/Src/stm32f4xx_hal_rcc.c ****   *         supported by this API. User should request a transition to HSE Off
 218:../../../../dependencies/stm/STM32F4_Cube/Drivers/STM32F4xx_HAL_Driver/Src/stm32f4xx_hal_rcc.c ****   *         first and then HSE On or HSE Bypass.
 219:../../../../dependencies/stm/STM32F4_Cube/Drivers/STM32F4xx_HAL_Driver/Src/stm32f4xx_hal_rcc.c ****   * @retval HAL status
 220:../../../../dependencies/stm/STM32F4_Cube/Drivers/STM32F4xx_HAL_Driver/Src/stm32f4xx_hal_rcc.c ****   */
 221:../../../../dependencies/stm/STM32F4_Cube/Drivers/STM32F4xx_HAL_Driver/Src/stm32f4xx_hal_rcc.c **** __weak HAL_StatusTypeDef HAL_RCC_OscConfig(RCC_OscInitTypeDef  *RCC_OscInitStruct)
 222:../../../../dependencies/stm/STM32F4_Cube/Drivers/STM32F4xx_HAL_Driver/Src/stm32f4xx_hal_rcc.c **** {
  65              		.loc 1 222 0
  66              		.cfi_startproc
ARM GAS  /var/folders/_8/_cw6l3nd335f_j6cn6z79m4m0000gn/T//ccTXFGg6.s 			page 6


  67              		@ args = 0, pretend = 0, frame = 24
  68              		@ frame_needed = 1, uses_anonymous_args = 0
  69 0000 80B5     		push	{r7, lr}
  70              	.LCFI4:
  71              		.cfi_def_cfa_offset 8
  72              		.cfi_offset 7, -8
  73              		.cfi_offset 14, -4
  74 0002 86B0     		sub	sp, sp, #24
  75              	.LCFI5:
  76              		.cfi_def_cfa_offset 32
  77 0004 00AF     		add	r7, sp, #0
  78              	.LCFI6:
  79              		.cfi_def_cfa_register 7
  80 0006 7860     		str	r0, [r7, #4]
 223:../../../../dependencies/stm/STM32F4_Cube/Drivers/STM32F4xx_HAL_Driver/Src/stm32f4xx_hal_rcc.c ****   uint32_t tickstart, pll_config;
 224:../../../../dependencies/stm/STM32F4_Cube/Drivers/STM32F4xx_HAL_Driver/Src/stm32f4xx_hal_rcc.c **** 
 225:../../../../dependencies/stm/STM32F4_Cube/Drivers/STM32F4xx_HAL_Driver/Src/stm32f4xx_hal_rcc.c ****   /* Check Null pointer */
 226:../../../../dependencies/stm/STM32F4_Cube/Drivers/STM32F4xx_HAL_Driver/Src/stm32f4xx_hal_rcc.c ****   if(RCC_OscInitStruct == NULL)
  81              		.loc 1 226 0
  82 0008 7B68     		ldr	r3, [r7, #4]
  83 000a 002B     		cmp	r3, #0
  84 000c 01D1     		bne	.L4
 227:../../../../dependencies/stm/STM32F4_Cube/Drivers/STM32F4xx_HAL_Driver/Src/stm32f4xx_hal_rcc.c ****   {
 228:../../../../dependencies/stm/STM32F4_Cube/Drivers/STM32F4xx_HAL_Driver/Src/stm32f4xx_hal_rcc.c ****     return HAL_ERROR;
  85              		.loc 1 228 0
  86 000e 0123     		movs	r3, #1
  87 0010 58E2     		b	.L5
  88              	.L4:
 229:../../../../dependencies/stm/STM32F4_Cube/Drivers/STM32F4xx_HAL_Driver/Src/stm32f4xx_hal_rcc.c ****   }
 230:../../../../dependencies/stm/STM32F4_Cube/Drivers/STM32F4xx_HAL_Driver/Src/stm32f4xx_hal_rcc.c **** 
 231:../../../../dependencies/stm/STM32F4_Cube/Drivers/STM32F4xx_HAL_Driver/Src/stm32f4xx_hal_rcc.c ****   /* Check the parameters */
 232:../../../../dependencies/stm/STM32F4_Cube/Drivers/STM32F4xx_HAL_Driver/Src/stm32f4xx_hal_rcc.c ****   assert_param(IS_RCC_OSCILLATORTYPE(RCC_OscInitStruct->OscillatorType));
 233:../../../../dependencies/stm/STM32F4_Cube/Drivers/STM32F4xx_HAL_Driver/Src/stm32f4xx_hal_rcc.c ****   /*------------------------------- HSE Configuration ------------------------*/
 234:../../../../dependencies/stm/STM32F4_Cube/Drivers/STM32F4xx_HAL_Driver/Src/stm32f4xx_hal_rcc.c ****   if(((RCC_OscInitStruct->OscillatorType) & RCC_OSCILLATORTYPE_HSE) == RCC_OSCILLATORTYPE_HSE)
  89              		.loc 1 234 0
  90 0012 7B68     		ldr	r3, [r7, #4]
  91 0014 1B68     		ldr	r3, [r3]
  92 0016 03F00103 		and	r3, r3, #1
  93 001a 002B     		cmp	r3, #0
  94 001c 73D0     		beq	.L6
 235:../../../../dependencies/stm/STM32F4_Cube/Drivers/STM32F4xx_HAL_Driver/Src/stm32f4xx_hal_rcc.c ****   {
 236:../../../../dependencies/stm/STM32F4_Cube/Drivers/STM32F4xx_HAL_Driver/Src/stm32f4xx_hal_rcc.c ****     /* Check the parameters */
 237:../../../../dependencies/stm/STM32F4_Cube/Drivers/STM32F4xx_HAL_Driver/Src/stm32f4xx_hal_rcc.c ****     assert_param(IS_RCC_HSE(RCC_OscInitStruct->HSEState));
 238:../../../../dependencies/stm/STM32F4_Cube/Drivers/STM32F4xx_HAL_Driver/Src/stm32f4xx_hal_rcc.c ****     /* When the HSE is used as system clock or clock source for PLL in these cases HSE will not dis
 239:../../../../dependencies/stm/STM32F4_Cube/Drivers/STM32F4xx_HAL_Driver/Src/stm32f4xx_hal_rcc.c ****     if((__HAL_RCC_GET_SYSCLK_SOURCE() == RCC_CFGR_SWS_HSE) ||\
  95              		.loc 1 239 0
  96 001e A64B     		ldr	r3, .L58
  97 0020 9B68     		ldr	r3, [r3, #8]
  98 0022 03F00C03 		and	r3, r3, #12
  99 0026 042B     		cmp	r3, #4
 100 0028 0BD0     		beq	.L7
 240:../../../../dependencies/stm/STM32F4_Cube/Drivers/STM32F4xx_HAL_Driver/Src/stm32f4xx_hal_rcc.c ****       ((__HAL_RCC_GET_SYSCLK_SOURCE() == RCC_CFGR_SWS_PLL) && ((RCC->PLLCFGR & RCC_PLLCFGR_PLLSRC) 
 101              		.loc 1 240 0 discriminator 1
 102 002a A34B     		ldr	r3, .L58
 103 002c 9B68     		ldr	r3, [r3, #8]
 104 002e 03F00C03 		and	r3, r3, #12
 239:../../../../dependencies/stm/STM32F4_Cube/Drivers/STM32F4xx_HAL_Driver/Src/stm32f4xx_hal_rcc.c ****       ((__HAL_RCC_GET_SYSCLK_SOURCE() == RCC_CFGR_SWS_PLL) && ((RCC->PLLCFGR & RCC_PLLCFGR_PLLSRC) 
ARM GAS  /var/folders/_8/_cw6l3nd335f_j6cn6z79m4m0000gn/T//ccTXFGg6.s 			page 7


 105              		.loc 1 239 0 discriminator 1
 106 0032 082B     		cmp	r3, #8
 107 0034 12D1     		bne	.L8
 108              		.loc 1 240 0
 109 0036 A04B     		ldr	r3, .L58
 110 0038 5B68     		ldr	r3, [r3, #4]
 111 003a 03F48003 		and	r3, r3, #4194304
 112 003e 002B     		cmp	r3, #0
 113 0040 0CD0     		beq	.L8
 114              	.L7:
 241:../../../../dependencies/stm/STM32F4_Cube/Drivers/STM32F4xx_HAL_Driver/Src/stm32f4xx_hal_rcc.c ****     {
 242:../../../../dependencies/stm/STM32F4_Cube/Drivers/STM32F4xx_HAL_Driver/Src/stm32f4xx_hal_rcc.c ****       if((__HAL_RCC_GET_FLAG(RCC_FLAG_HSERDY) != RESET) && (RCC_OscInitStruct->HSEState == RCC_HSE_
 115              		.loc 1 242 0
 116 0042 9D4B     		ldr	r3, .L58
 117 0044 1B68     		ldr	r3, [r3]
 118 0046 03F40033 		and	r3, r3, #131072
 119 004a 002B     		cmp	r3, #0
 120 004c 05D0     		beq	.L9
 121              		.loc 1 242 0 is_stmt 0 discriminator 1
 122 004e 7B68     		ldr	r3, [r7, #4]
 123 0050 5B68     		ldr	r3, [r3, #4]
 124 0052 002B     		cmp	r3, #0
 125 0054 01D1     		bne	.L9
 243:../../../../dependencies/stm/STM32F4_Cube/Drivers/STM32F4xx_HAL_Driver/Src/stm32f4xx_hal_rcc.c ****       {
 244:../../../../dependencies/stm/STM32F4_Cube/Drivers/STM32F4xx_HAL_Driver/Src/stm32f4xx_hal_rcc.c ****         return HAL_ERROR;
 126              		.loc 1 244 0 is_stmt 1
 127 0056 0123     		movs	r3, #1
 128 0058 34E2     		b	.L5
 129              	.L9:
 242:../../../../dependencies/stm/STM32F4_Cube/Drivers/STM32F4xx_HAL_Driver/Src/stm32f4xx_hal_rcc.c ****       {
 130              		.loc 1 242 0
 131 005a 54E0     		b	.L6
 132              	.L8:
 245:../../../../dependencies/stm/STM32F4_Cube/Drivers/STM32F4xx_HAL_Driver/Src/stm32f4xx_hal_rcc.c ****       }
 246:../../../../dependencies/stm/STM32F4_Cube/Drivers/STM32F4xx_HAL_Driver/Src/stm32f4xx_hal_rcc.c ****     }
 247:../../../../dependencies/stm/STM32F4_Cube/Drivers/STM32F4xx_HAL_Driver/Src/stm32f4xx_hal_rcc.c ****     else
 248:../../../../dependencies/stm/STM32F4_Cube/Drivers/STM32F4xx_HAL_Driver/Src/stm32f4xx_hal_rcc.c ****     {
 249:../../../../dependencies/stm/STM32F4_Cube/Drivers/STM32F4xx_HAL_Driver/Src/stm32f4xx_hal_rcc.c ****       /* Set the new HSE configuration ---------------------------------------*/
 250:../../../../dependencies/stm/STM32F4_Cube/Drivers/STM32F4xx_HAL_Driver/Src/stm32f4xx_hal_rcc.c ****       __HAL_RCC_HSE_CONFIG(RCC_OscInitStruct->HSEState);
 133              		.loc 1 250 0
 134 005c 7B68     		ldr	r3, [r7, #4]
 135 005e 5B68     		ldr	r3, [r3, #4]
 136 0060 B3F5803F 		cmp	r3, #65536
 137 0064 06D1     		bne	.L10
 138              		.loc 1 250 0 is_stmt 0 discriminator 1
 139 0066 944A     		ldr	r2, .L58
 140 0068 934B     		ldr	r3, .L58
 141 006a 1B68     		ldr	r3, [r3]
 142 006c 43F48033 		orr	r3, r3, #65536
 143 0070 1360     		str	r3, [r2]
 144 0072 1DE0     		b	.L11
 145              	.L10:
 146              		.loc 1 250 0 discriminator 2
 147 0074 7B68     		ldr	r3, [r7, #4]
 148 0076 5B68     		ldr	r3, [r3, #4]
 149 0078 B3F5A02F 		cmp	r3, #327680
 150 007c 0CD1     		bne	.L12
ARM GAS  /var/folders/_8/_cw6l3nd335f_j6cn6z79m4m0000gn/T//ccTXFGg6.s 			page 8


 151              		.loc 1 250 0 discriminator 3
 152 007e 8E4A     		ldr	r2, .L58
 153 0080 8D4B     		ldr	r3, .L58
 154 0082 1B68     		ldr	r3, [r3]
 155 0084 43F48023 		orr	r3, r3, #262144
 156 0088 1360     		str	r3, [r2]
 157 008a 8B4A     		ldr	r2, .L58
 158 008c 8A4B     		ldr	r3, .L58
 159 008e 1B68     		ldr	r3, [r3]
 160 0090 43F48033 		orr	r3, r3, #65536
 161 0094 1360     		str	r3, [r2]
 162 0096 0BE0     		b	.L11
 163              	.L12:
 164              		.loc 1 250 0 discriminator 4
 165 0098 874A     		ldr	r2, .L58
 166 009a 874B     		ldr	r3, .L58
 167 009c 1B68     		ldr	r3, [r3]
 168 009e 23F48033 		bic	r3, r3, #65536
 169 00a2 1360     		str	r3, [r2]
 170 00a4 844A     		ldr	r2, .L58
 171 00a6 844B     		ldr	r3, .L58
 172 00a8 1B68     		ldr	r3, [r3]
 173 00aa 23F48023 		bic	r3, r3, #262144
 174 00ae 1360     		str	r3, [r2]
 175              	.L11:
 251:../../../../dependencies/stm/STM32F4_Cube/Drivers/STM32F4xx_HAL_Driver/Src/stm32f4xx_hal_rcc.c **** 
 252:../../../../dependencies/stm/STM32F4_Cube/Drivers/STM32F4xx_HAL_Driver/Src/stm32f4xx_hal_rcc.c ****       /* Check the HSE State */
 253:../../../../dependencies/stm/STM32F4_Cube/Drivers/STM32F4xx_HAL_Driver/Src/stm32f4xx_hal_rcc.c ****       if((RCC_OscInitStruct->HSEState) != RCC_HSE_OFF)
 176              		.loc 1 253 0 is_stmt 1
 177 00b0 7B68     		ldr	r3, [r7, #4]
 178 00b2 5B68     		ldr	r3, [r3, #4]
 179 00b4 002B     		cmp	r3, #0
 180 00b6 13D0     		beq	.L13
 254:../../../../dependencies/stm/STM32F4_Cube/Drivers/STM32F4xx_HAL_Driver/Src/stm32f4xx_hal_rcc.c ****       {
 255:../../../../dependencies/stm/STM32F4_Cube/Drivers/STM32F4xx_HAL_Driver/Src/stm32f4xx_hal_rcc.c ****         /* Get Start Tick */
 256:../../../../dependencies/stm/STM32F4_Cube/Drivers/STM32F4xx_HAL_Driver/Src/stm32f4xx_hal_rcc.c ****         tickstart = HAL_GetTick();
 181              		.loc 1 256 0
 182 00b8 FFF7FEFF 		bl	HAL_GetTick
 183 00bc 3861     		str	r0, [r7, #16]
 257:../../../../dependencies/stm/STM32F4_Cube/Drivers/STM32F4xx_HAL_Driver/Src/stm32f4xx_hal_rcc.c **** 
 258:../../../../dependencies/stm/STM32F4_Cube/Drivers/STM32F4xx_HAL_Driver/Src/stm32f4xx_hal_rcc.c ****         /* Wait till HSE is ready */
 259:../../../../dependencies/stm/STM32F4_Cube/Drivers/STM32F4xx_HAL_Driver/Src/stm32f4xx_hal_rcc.c ****         while(__HAL_RCC_GET_FLAG(RCC_FLAG_HSERDY) == RESET)
 184              		.loc 1 259 0
 185 00be 08E0     		b	.L14
 186              	.L15:
 260:../../../../dependencies/stm/STM32F4_Cube/Drivers/STM32F4xx_HAL_Driver/Src/stm32f4xx_hal_rcc.c ****         {
 261:../../../../dependencies/stm/STM32F4_Cube/Drivers/STM32F4xx_HAL_Driver/Src/stm32f4xx_hal_rcc.c ****           if((HAL_GetTick() - tickstart ) > HSE_TIMEOUT_VALUE)
 187              		.loc 1 261 0
 188 00c0 FFF7FEFF 		bl	HAL_GetTick
 189 00c4 0246     		mov	r2, r0
 190 00c6 3B69     		ldr	r3, [r7, #16]
 191 00c8 D31A     		subs	r3, r2, r3
 192 00ca 642B     		cmp	r3, #100
 193 00cc 01D9     		bls	.L14
 262:../../../../dependencies/stm/STM32F4_Cube/Drivers/STM32F4xx_HAL_Driver/Src/stm32f4xx_hal_rcc.c ****           {
 263:../../../../dependencies/stm/STM32F4_Cube/Drivers/STM32F4xx_HAL_Driver/Src/stm32f4xx_hal_rcc.c ****             return HAL_TIMEOUT;
 194              		.loc 1 263 0
ARM GAS  /var/folders/_8/_cw6l3nd335f_j6cn6z79m4m0000gn/T//ccTXFGg6.s 			page 9


 195 00ce 0323     		movs	r3, #3
 196 00d0 F8E1     		b	.L5
 197              	.L14:
 259:../../../../dependencies/stm/STM32F4_Cube/Drivers/STM32F4xx_HAL_Driver/Src/stm32f4xx_hal_rcc.c ****         {
 198              		.loc 1 259 0
 199 00d2 794B     		ldr	r3, .L58
 200 00d4 1B68     		ldr	r3, [r3]
 201 00d6 03F40033 		and	r3, r3, #131072
 202 00da 002B     		cmp	r3, #0
 203 00dc F0D0     		beq	.L15
 204 00de 12E0     		b	.L6
 205              	.L13:
 264:../../../../dependencies/stm/STM32F4_Cube/Drivers/STM32F4xx_HAL_Driver/Src/stm32f4xx_hal_rcc.c ****           }
 265:../../../../dependencies/stm/STM32F4_Cube/Drivers/STM32F4xx_HAL_Driver/Src/stm32f4xx_hal_rcc.c ****         }
 266:../../../../dependencies/stm/STM32F4_Cube/Drivers/STM32F4xx_HAL_Driver/Src/stm32f4xx_hal_rcc.c ****       }
 267:../../../../dependencies/stm/STM32F4_Cube/Drivers/STM32F4xx_HAL_Driver/Src/stm32f4xx_hal_rcc.c ****       else
 268:../../../../dependencies/stm/STM32F4_Cube/Drivers/STM32F4xx_HAL_Driver/Src/stm32f4xx_hal_rcc.c ****       {
 269:../../../../dependencies/stm/STM32F4_Cube/Drivers/STM32F4xx_HAL_Driver/Src/stm32f4xx_hal_rcc.c ****         /* Get Start Tick */
 270:../../../../dependencies/stm/STM32F4_Cube/Drivers/STM32F4xx_HAL_Driver/Src/stm32f4xx_hal_rcc.c ****         tickstart = HAL_GetTick();
 206              		.loc 1 270 0
 207 00e0 FFF7FEFF 		bl	HAL_GetTick
 208 00e4 3861     		str	r0, [r7, #16]
 271:../../../../dependencies/stm/STM32F4_Cube/Drivers/STM32F4xx_HAL_Driver/Src/stm32f4xx_hal_rcc.c **** 
 272:../../../../dependencies/stm/STM32F4_Cube/Drivers/STM32F4xx_HAL_Driver/Src/stm32f4xx_hal_rcc.c ****         /* Wait till HSE is bypassed or disabled */
 273:../../../../dependencies/stm/STM32F4_Cube/Drivers/STM32F4xx_HAL_Driver/Src/stm32f4xx_hal_rcc.c ****         while(__HAL_RCC_GET_FLAG(RCC_FLAG_HSERDY) != RESET)
 209              		.loc 1 273 0
 210 00e6 08E0     		b	.L16
 211              	.L17:
 274:../../../../dependencies/stm/STM32F4_Cube/Drivers/STM32F4xx_HAL_Driver/Src/stm32f4xx_hal_rcc.c ****         {
 275:../../../../dependencies/stm/STM32F4_Cube/Drivers/STM32F4xx_HAL_Driver/Src/stm32f4xx_hal_rcc.c ****           if((HAL_GetTick() - tickstart ) > HSE_TIMEOUT_VALUE)
 212              		.loc 1 275 0
 213 00e8 FFF7FEFF 		bl	HAL_GetTick
 214 00ec 0246     		mov	r2, r0
 215 00ee 3B69     		ldr	r3, [r7, #16]
 216 00f0 D31A     		subs	r3, r2, r3
 217 00f2 642B     		cmp	r3, #100
 218 00f4 01D9     		bls	.L16
 276:../../../../dependencies/stm/STM32F4_Cube/Drivers/STM32F4xx_HAL_Driver/Src/stm32f4xx_hal_rcc.c ****           {
 277:../../../../dependencies/stm/STM32F4_Cube/Drivers/STM32F4xx_HAL_Driver/Src/stm32f4xx_hal_rcc.c ****             return HAL_TIMEOUT;
 219              		.loc 1 277 0
 220 00f6 0323     		movs	r3, #3
 221 00f8 E4E1     		b	.L5
 222              	.L16:
 273:../../../../dependencies/stm/STM32F4_Cube/Drivers/STM32F4xx_HAL_Driver/Src/stm32f4xx_hal_rcc.c ****         {
 223              		.loc 1 273 0
 224 00fa 6F4B     		ldr	r3, .L58
 225 00fc 1B68     		ldr	r3, [r3]
 226 00fe 03F40033 		and	r3, r3, #131072
 227 0102 002B     		cmp	r3, #0
 228 0104 F0D1     		bne	.L17
 229              	.L6:
 278:../../../../dependencies/stm/STM32F4_Cube/Drivers/STM32F4xx_HAL_Driver/Src/stm32f4xx_hal_rcc.c ****           }
 279:../../../../dependencies/stm/STM32F4_Cube/Drivers/STM32F4xx_HAL_Driver/Src/stm32f4xx_hal_rcc.c ****         }
 280:../../../../dependencies/stm/STM32F4_Cube/Drivers/STM32F4xx_HAL_Driver/Src/stm32f4xx_hal_rcc.c ****       }
 281:../../../../dependencies/stm/STM32F4_Cube/Drivers/STM32F4xx_HAL_Driver/Src/stm32f4xx_hal_rcc.c ****     }
 282:../../../../dependencies/stm/STM32F4_Cube/Drivers/STM32F4xx_HAL_Driver/Src/stm32f4xx_hal_rcc.c ****   }
 283:../../../../dependencies/stm/STM32F4_Cube/Drivers/STM32F4xx_HAL_Driver/Src/stm32f4xx_hal_rcc.c ****   /*----------------------------- HSI Configuration --------------------------*/
ARM GAS  /var/folders/_8/_cw6l3nd335f_j6cn6z79m4m0000gn/T//ccTXFGg6.s 			page 10


 284:../../../../dependencies/stm/STM32F4_Cube/Drivers/STM32F4xx_HAL_Driver/Src/stm32f4xx_hal_rcc.c ****   if(((RCC_OscInitStruct->OscillatorType) & RCC_OSCILLATORTYPE_HSI) == RCC_OSCILLATORTYPE_HSI)
 230              		.loc 1 284 0
 231 0106 7B68     		ldr	r3, [r7, #4]
 232 0108 1B68     		ldr	r3, [r3]
 233 010a 03F00203 		and	r3, r3, #2
 234 010e 002B     		cmp	r3, #0
 235 0110 63D0     		beq	.L18
 285:../../../../dependencies/stm/STM32F4_Cube/Drivers/STM32F4xx_HAL_Driver/Src/stm32f4xx_hal_rcc.c ****   {
 286:../../../../dependencies/stm/STM32F4_Cube/Drivers/STM32F4xx_HAL_Driver/Src/stm32f4xx_hal_rcc.c ****     /* Check the parameters */
 287:../../../../dependencies/stm/STM32F4_Cube/Drivers/STM32F4xx_HAL_Driver/Src/stm32f4xx_hal_rcc.c ****     assert_param(IS_RCC_HSI(RCC_OscInitStruct->HSIState));
 288:../../../../dependencies/stm/STM32F4_Cube/Drivers/STM32F4xx_HAL_Driver/Src/stm32f4xx_hal_rcc.c ****     assert_param(IS_RCC_CALIBRATION_VALUE(RCC_OscInitStruct->HSICalibrationValue));
 289:../../../../dependencies/stm/STM32F4_Cube/Drivers/STM32F4xx_HAL_Driver/Src/stm32f4xx_hal_rcc.c **** 
 290:../../../../dependencies/stm/STM32F4_Cube/Drivers/STM32F4xx_HAL_Driver/Src/stm32f4xx_hal_rcc.c ****     /* Check if HSI is used as system clock or as PLL source when PLL is selected as system clock *
 291:../../../../dependencies/stm/STM32F4_Cube/Drivers/STM32F4xx_HAL_Driver/Src/stm32f4xx_hal_rcc.c ****     if((__HAL_RCC_GET_SYSCLK_SOURCE() == RCC_CFGR_SWS_HSI) ||\
 236              		.loc 1 291 0
 237 0112 694B     		ldr	r3, .L58
 238 0114 9B68     		ldr	r3, [r3, #8]
 239 0116 03F00C03 		and	r3, r3, #12
 240 011a 002B     		cmp	r3, #0
 241 011c 0BD0     		beq	.L19
 292:../../../../dependencies/stm/STM32F4_Cube/Drivers/STM32F4xx_HAL_Driver/Src/stm32f4xx_hal_rcc.c ****       ((__HAL_RCC_GET_SYSCLK_SOURCE() == RCC_CFGR_SWS_PLL) && ((RCC->PLLCFGR & RCC_PLLCFGR_PLLSRC) 
 242              		.loc 1 292 0 discriminator 1
 243 011e 664B     		ldr	r3, .L58
 244 0120 9B68     		ldr	r3, [r3, #8]
 245 0122 03F00C03 		and	r3, r3, #12
 291:../../../../dependencies/stm/STM32F4_Cube/Drivers/STM32F4xx_HAL_Driver/Src/stm32f4xx_hal_rcc.c ****       ((__HAL_RCC_GET_SYSCLK_SOURCE() == RCC_CFGR_SWS_PLL) && ((RCC->PLLCFGR & RCC_PLLCFGR_PLLSRC) 
 246              		.loc 1 291 0 discriminator 1
 247 0126 082B     		cmp	r3, #8
 248 0128 1CD1     		bne	.L20
 249              		.loc 1 292 0
 250 012a 634B     		ldr	r3, .L58
 251 012c 5B68     		ldr	r3, [r3, #4]
 252 012e 03F48003 		and	r3, r3, #4194304
 253 0132 002B     		cmp	r3, #0
 254 0134 16D1     		bne	.L20
 255              	.L19:
 293:../../../../dependencies/stm/STM32F4_Cube/Drivers/STM32F4xx_HAL_Driver/Src/stm32f4xx_hal_rcc.c ****     {
 294:../../../../dependencies/stm/STM32F4_Cube/Drivers/STM32F4xx_HAL_Driver/Src/stm32f4xx_hal_rcc.c ****       /* When HSI is used as system clock it will not disabled */
 295:../../../../dependencies/stm/STM32F4_Cube/Drivers/STM32F4xx_HAL_Driver/Src/stm32f4xx_hal_rcc.c ****       if((__HAL_RCC_GET_FLAG(RCC_FLAG_HSIRDY) != RESET) && (RCC_OscInitStruct->HSIState != RCC_HSI_
 256              		.loc 1 295 0
 257 0136 604B     		ldr	r3, .L58
 258 0138 1B68     		ldr	r3, [r3]
 259 013a 03F00203 		and	r3, r3, #2
 260 013e 002B     		cmp	r3, #0
 261 0140 05D0     		beq	.L21
 262              		.loc 1 295 0 is_stmt 0 discriminator 1
 263 0142 7B68     		ldr	r3, [r7, #4]
 264 0144 DB68     		ldr	r3, [r3, #12]
 265 0146 012B     		cmp	r3, #1
 266 0148 01D0     		beq	.L21
 296:../../../../dependencies/stm/STM32F4_Cube/Drivers/STM32F4xx_HAL_Driver/Src/stm32f4xx_hal_rcc.c ****       {
 297:../../../../dependencies/stm/STM32F4_Cube/Drivers/STM32F4xx_HAL_Driver/Src/stm32f4xx_hal_rcc.c ****         return HAL_ERROR;
 267              		.loc 1 297 0 is_stmt 1
 268 014a 0123     		movs	r3, #1
 269 014c BAE1     		b	.L5
 270              	.L21:
 298:../../../../dependencies/stm/STM32F4_Cube/Drivers/STM32F4xx_HAL_Driver/Src/stm32f4xx_hal_rcc.c ****       }
ARM GAS  /var/folders/_8/_cw6l3nd335f_j6cn6z79m4m0000gn/T//ccTXFGg6.s 			page 11


 299:../../../../dependencies/stm/STM32F4_Cube/Drivers/STM32F4xx_HAL_Driver/Src/stm32f4xx_hal_rcc.c ****       /* Otherwise, just the calibration is allowed */
 300:../../../../dependencies/stm/STM32F4_Cube/Drivers/STM32F4xx_HAL_Driver/Src/stm32f4xx_hal_rcc.c ****       else
 301:../../../../dependencies/stm/STM32F4_Cube/Drivers/STM32F4xx_HAL_Driver/Src/stm32f4xx_hal_rcc.c ****       {
 302:../../../../dependencies/stm/STM32F4_Cube/Drivers/STM32F4xx_HAL_Driver/Src/stm32f4xx_hal_rcc.c ****         /* Adjusts the Internal High Speed oscillator (HSI) calibration value.*/
 303:../../../../dependencies/stm/STM32F4_Cube/Drivers/STM32F4xx_HAL_Driver/Src/stm32f4xx_hal_rcc.c ****         __HAL_RCC_HSI_CALIBRATIONVALUE_ADJUST(RCC_OscInitStruct->HSICalibrationValue);
 271              		.loc 1 303 0
 272 014e 5A49     		ldr	r1, .L58
 273 0150 594B     		ldr	r3, .L58
 274 0152 1B68     		ldr	r3, [r3]
 275 0154 23F0F802 		bic	r2, r3, #248
 276 0158 7B68     		ldr	r3, [r7, #4]
 277 015a 1B69     		ldr	r3, [r3, #16]
 278 015c DB00     		lsls	r3, r3, #3
 279 015e 1343     		orrs	r3, r3, r2
 280 0160 0B60     		str	r3, [r1]
 295:../../../../dependencies/stm/STM32F4_Cube/Drivers/STM32F4xx_HAL_Driver/Src/stm32f4xx_hal_rcc.c ****       {
 281              		.loc 1 295 0
 282 0162 3AE0     		b	.L18
 283              	.L20:
 304:../../../../dependencies/stm/STM32F4_Cube/Drivers/STM32F4xx_HAL_Driver/Src/stm32f4xx_hal_rcc.c ****       }
 305:../../../../dependencies/stm/STM32F4_Cube/Drivers/STM32F4xx_HAL_Driver/Src/stm32f4xx_hal_rcc.c ****     }
 306:../../../../dependencies/stm/STM32F4_Cube/Drivers/STM32F4xx_HAL_Driver/Src/stm32f4xx_hal_rcc.c ****     else
 307:../../../../dependencies/stm/STM32F4_Cube/Drivers/STM32F4xx_HAL_Driver/Src/stm32f4xx_hal_rcc.c ****     {
 308:../../../../dependencies/stm/STM32F4_Cube/Drivers/STM32F4xx_HAL_Driver/Src/stm32f4xx_hal_rcc.c ****       /* Check the HSI State */
 309:../../../../dependencies/stm/STM32F4_Cube/Drivers/STM32F4xx_HAL_Driver/Src/stm32f4xx_hal_rcc.c ****       if((RCC_OscInitStruct->HSIState)!= RCC_HSI_OFF)
 284              		.loc 1 309 0
 285 0164 7B68     		ldr	r3, [r7, #4]
 286 0166 DB68     		ldr	r3, [r3, #12]
 287 0168 002B     		cmp	r3, #0
 288 016a 20D0     		beq	.L22
 310:../../../../dependencies/stm/STM32F4_Cube/Drivers/STM32F4xx_HAL_Driver/Src/stm32f4xx_hal_rcc.c ****       {
 311:../../../../dependencies/stm/STM32F4_Cube/Drivers/STM32F4xx_HAL_Driver/Src/stm32f4xx_hal_rcc.c ****         /* Enable the Internal High Speed oscillator (HSI). */
 312:../../../../dependencies/stm/STM32F4_Cube/Drivers/STM32F4xx_HAL_Driver/Src/stm32f4xx_hal_rcc.c ****         __HAL_RCC_HSI_ENABLE();
 289              		.loc 1 312 0
 290 016c 534B     		ldr	r3, .L58+4
 291 016e 0122     		movs	r2, #1
 292 0170 1A60     		str	r2, [r3]
 313:../../../../dependencies/stm/STM32F4_Cube/Drivers/STM32F4xx_HAL_Driver/Src/stm32f4xx_hal_rcc.c **** 
 314:../../../../dependencies/stm/STM32F4_Cube/Drivers/STM32F4xx_HAL_Driver/Src/stm32f4xx_hal_rcc.c ****         /* Get Start Tick*/
 315:../../../../dependencies/stm/STM32F4_Cube/Drivers/STM32F4xx_HAL_Driver/Src/stm32f4xx_hal_rcc.c ****         tickstart = HAL_GetTick();
 293              		.loc 1 315 0
 294 0172 FFF7FEFF 		bl	HAL_GetTick
 295 0176 3861     		str	r0, [r7, #16]
 316:../../../../dependencies/stm/STM32F4_Cube/Drivers/STM32F4xx_HAL_Driver/Src/stm32f4xx_hal_rcc.c **** 
 317:../../../../dependencies/stm/STM32F4_Cube/Drivers/STM32F4xx_HAL_Driver/Src/stm32f4xx_hal_rcc.c ****         /* Wait till HSI is ready */
 318:../../../../dependencies/stm/STM32F4_Cube/Drivers/STM32F4xx_HAL_Driver/Src/stm32f4xx_hal_rcc.c ****         while(__HAL_RCC_GET_FLAG(RCC_FLAG_HSIRDY) == RESET)
 296              		.loc 1 318 0
 297 0178 08E0     		b	.L23
 298              	.L24:
 319:../../../../dependencies/stm/STM32F4_Cube/Drivers/STM32F4xx_HAL_Driver/Src/stm32f4xx_hal_rcc.c ****         {
 320:../../../../dependencies/stm/STM32F4_Cube/Drivers/STM32F4xx_HAL_Driver/Src/stm32f4xx_hal_rcc.c ****           if((HAL_GetTick() - tickstart ) > HSI_TIMEOUT_VALUE)
 299              		.loc 1 320 0
 300 017a FFF7FEFF 		bl	HAL_GetTick
 301 017e 0246     		mov	r2, r0
 302 0180 3B69     		ldr	r3, [r7, #16]
 303 0182 D31A     		subs	r3, r2, r3
 304 0184 022B     		cmp	r3, #2
ARM GAS  /var/folders/_8/_cw6l3nd335f_j6cn6z79m4m0000gn/T//ccTXFGg6.s 			page 12


 305 0186 01D9     		bls	.L23
 321:../../../../dependencies/stm/STM32F4_Cube/Drivers/STM32F4xx_HAL_Driver/Src/stm32f4xx_hal_rcc.c ****           {
 322:../../../../dependencies/stm/STM32F4_Cube/Drivers/STM32F4xx_HAL_Driver/Src/stm32f4xx_hal_rcc.c ****             return HAL_TIMEOUT;
 306              		.loc 1 322 0
 307 0188 0323     		movs	r3, #3
 308 018a 9BE1     		b	.L5
 309              	.L23:
 318:../../../../dependencies/stm/STM32F4_Cube/Drivers/STM32F4xx_HAL_Driver/Src/stm32f4xx_hal_rcc.c ****         {
 310              		.loc 1 318 0
 311 018c 4A4B     		ldr	r3, .L58
 312 018e 1B68     		ldr	r3, [r3]
 313 0190 03F00203 		and	r3, r3, #2
 314 0194 002B     		cmp	r3, #0
 315 0196 F0D0     		beq	.L24
 323:../../../../dependencies/stm/STM32F4_Cube/Drivers/STM32F4xx_HAL_Driver/Src/stm32f4xx_hal_rcc.c ****           }
 324:../../../../dependencies/stm/STM32F4_Cube/Drivers/STM32F4xx_HAL_Driver/Src/stm32f4xx_hal_rcc.c ****         }
 325:../../../../dependencies/stm/STM32F4_Cube/Drivers/STM32F4xx_HAL_Driver/Src/stm32f4xx_hal_rcc.c **** 
 326:../../../../dependencies/stm/STM32F4_Cube/Drivers/STM32F4xx_HAL_Driver/Src/stm32f4xx_hal_rcc.c ****         /* Adjusts the Internal High Speed oscillator (HSI) calibration value. */
 327:../../../../dependencies/stm/STM32F4_Cube/Drivers/STM32F4xx_HAL_Driver/Src/stm32f4xx_hal_rcc.c ****         __HAL_RCC_HSI_CALIBRATIONVALUE_ADJUST(RCC_OscInitStruct->HSICalibrationValue);
 316              		.loc 1 327 0
 317 0198 4749     		ldr	r1, .L58
 318 019a 474B     		ldr	r3, .L58
 319 019c 1B68     		ldr	r3, [r3]
 320 019e 23F0F802 		bic	r2, r3, #248
 321 01a2 7B68     		ldr	r3, [r7, #4]
 322 01a4 1B69     		ldr	r3, [r3, #16]
 323 01a6 DB00     		lsls	r3, r3, #3
 324 01a8 1343     		orrs	r3, r3, r2
 325 01aa 0B60     		str	r3, [r1]
 326 01ac 15E0     		b	.L18
 327              	.L22:
 328:../../../../dependencies/stm/STM32F4_Cube/Drivers/STM32F4xx_HAL_Driver/Src/stm32f4xx_hal_rcc.c ****       }
 329:../../../../dependencies/stm/STM32F4_Cube/Drivers/STM32F4xx_HAL_Driver/Src/stm32f4xx_hal_rcc.c ****       else
 330:../../../../dependencies/stm/STM32F4_Cube/Drivers/STM32F4xx_HAL_Driver/Src/stm32f4xx_hal_rcc.c ****       {
 331:../../../../dependencies/stm/STM32F4_Cube/Drivers/STM32F4xx_HAL_Driver/Src/stm32f4xx_hal_rcc.c ****         /* Disable the Internal High Speed oscillator (HSI). */
 332:../../../../dependencies/stm/STM32F4_Cube/Drivers/STM32F4xx_HAL_Driver/Src/stm32f4xx_hal_rcc.c ****         __HAL_RCC_HSI_DISABLE();
 328              		.loc 1 332 0
 329 01ae 434B     		ldr	r3, .L58+4
 330 01b0 0022     		movs	r2, #0
 331 01b2 1A60     		str	r2, [r3]
 333:../../../../dependencies/stm/STM32F4_Cube/Drivers/STM32F4xx_HAL_Driver/Src/stm32f4xx_hal_rcc.c **** 
 334:../../../../dependencies/stm/STM32F4_Cube/Drivers/STM32F4xx_HAL_Driver/Src/stm32f4xx_hal_rcc.c ****         /* Get Start Tick*/
 335:../../../../dependencies/stm/STM32F4_Cube/Drivers/STM32F4xx_HAL_Driver/Src/stm32f4xx_hal_rcc.c ****         tickstart = HAL_GetTick();
 332              		.loc 1 335 0
 333 01b4 FFF7FEFF 		bl	HAL_GetTick
 334 01b8 3861     		str	r0, [r7, #16]
 336:../../../../dependencies/stm/STM32F4_Cube/Drivers/STM32F4xx_HAL_Driver/Src/stm32f4xx_hal_rcc.c **** 
 337:../../../../dependencies/stm/STM32F4_Cube/Drivers/STM32F4xx_HAL_Driver/Src/stm32f4xx_hal_rcc.c ****         /* Wait till HSI is ready */
 338:../../../../dependencies/stm/STM32F4_Cube/Drivers/STM32F4xx_HAL_Driver/Src/stm32f4xx_hal_rcc.c ****         while(__HAL_RCC_GET_FLAG(RCC_FLAG_HSIRDY) != RESET)
 335              		.loc 1 338 0
 336 01ba 08E0     		b	.L25
 337              	.L26:
 339:../../../../dependencies/stm/STM32F4_Cube/Drivers/STM32F4xx_HAL_Driver/Src/stm32f4xx_hal_rcc.c ****         {
 340:../../../../dependencies/stm/STM32F4_Cube/Drivers/STM32F4xx_HAL_Driver/Src/stm32f4xx_hal_rcc.c ****           if((HAL_GetTick() - tickstart ) > HSI_TIMEOUT_VALUE)
 338              		.loc 1 340 0
 339 01bc FFF7FEFF 		bl	HAL_GetTick
 340 01c0 0246     		mov	r2, r0
ARM GAS  /var/folders/_8/_cw6l3nd335f_j6cn6z79m4m0000gn/T//ccTXFGg6.s 			page 13


 341 01c2 3B69     		ldr	r3, [r7, #16]
 342 01c4 D31A     		subs	r3, r2, r3
 343 01c6 022B     		cmp	r3, #2
 344 01c8 01D9     		bls	.L25
 341:../../../../dependencies/stm/STM32F4_Cube/Drivers/STM32F4xx_HAL_Driver/Src/stm32f4xx_hal_rcc.c ****           {
 342:../../../../dependencies/stm/STM32F4_Cube/Drivers/STM32F4xx_HAL_Driver/Src/stm32f4xx_hal_rcc.c ****             return HAL_TIMEOUT;
 345              		.loc 1 342 0
 346 01ca 0323     		movs	r3, #3
 347 01cc 7AE1     		b	.L5
 348              	.L25:
 338:../../../../dependencies/stm/STM32F4_Cube/Drivers/STM32F4xx_HAL_Driver/Src/stm32f4xx_hal_rcc.c ****         {
 349              		.loc 1 338 0
 350 01ce 3A4B     		ldr	r3, .L58
 351 01d0 1B68     		ldr	r3, [r3]
 352 01d2 03F00203 		and	r3, r3, #2
 353 01d6 002B     		cmp	r3, #0
 354 01d8 F0D1     		bne	.L26
 355              	.L18:
 343:../../../../dependencies/stm/STM32F4_Cube/Drivers/STM32F4xx_HAL_Driver/Src/stm32f4xx_hal_rcc.c ****           }
 344:../../../../dependencies/stm/STM32F4_Cube/Drivers/STM32F4xx_HAL_Driver/Src/stm32f4xx_hal_rcc.c ****         }
 345:../../../../dependencies/stm/STM32F4_Cube/Drivers/STM32F4xx_HAL_Driver/Src/stm32f4xx_hal_rcc.c ****       }
 346:../../../../dependencies/stm/STM32F4_Cube/Drivers/STM32F4xx_HAL_Driver/Src/stm32f4xx_hal_rcc.c ****     }
 347:../../../../dependencies/stm/STM32F4_Cube/Drivers/STM32F4xx_HAL_Driver/Src/stm32f4xx_hal_rcc.c ****   }
 348:../../../../dependencies/stm/STM32F4_Cube/Drivers/STM32F4xx_HAL_Driver/Src/stm32f4xx_hal_rcc.c ****   /*------------------------------ LSI Configuration -------------------------*/
 349:../../../../dependencies/stm/STM32F4_Cube/Drivers/STM32F4xx_HAL_Driver/Src/stm32f4xx_hal_rcc.c ****   if(((RCC_OscInitStruct->OscillatorType) & RCC_OSCILLATORTYPE_LSI) == RCC_OSCILLATORTYPE_LSI)
 356              		.loc 1 349 0
 357 01da 7B68     		ldr	r3, [r7, #4]
 358 01dc 1B68     		ldr	r3, [r3]
 359 01de 03F00803 		and	r3, r3, #8
 360 01e2 002B     		cmp	r3, #0
 361 01e4 30D0     		beq	.L27
 350:../../../../dependencies/stm/STM32F4_Cube/Drivers/STM32F4xx_HAL_Driver/Src/stm32f4xx_hal_rcc.c ****   {
 351:../../../../dependencies/stm/STM32F4_Cube/Drivers/STM32F4xx_HAL_Driver/Src/stm32f4xx_hal_rcc.c ****     /* Check the parameters */
 352:../../../../dependencies/stm/STM32F4_Cube/Drivers/STM32F4xx_HAL_Driver/Src/stm32f4xx_hal_rcc.c ****     assert_param(IS_RCC_LSI(RCC_OscInitStruct->LSIState));
 353:../../../../dependencies/stm/STM32F4_Cube/Drivers/STM32F4xx_HAL_Driver/Src/stm32f4xx_hal_rcc.c **** 
 354:../../../../dependencies/stm/STM32F4_Cube/Drivers/STM32F4xx_HAL_Driver/Src/stm32f4xx_hal_rcc.c ****     /* Check the LSI State */
 355:../../../../dependencies/stm/STM32F4_Cube/Drivers/STM32F4xx_HAL_Driver/Src/stm32f4xx_hal_rcc.c ****     if((RCC_OscInitStruct->LSIState)!= RCC_LSI_OFF)
 362              		.loc 1 355 0
 363 01e6 7B68     		ldr	r3, [r7, #4]
 364 01e8 5B69     		ldr	r3, [r3, #20]
 365 01ea 002B     		cmp	r3, #0
 366 01ec 16D0     		beq	.L28
 356:../../../../dependencies/stm/STM32F4_Cube/Drivers/STM32F4xx_HAL_Driver/Src/stm32f4xx_hal_rcc.c ****     {
 357:../../../../dependencies/stm/STM32F4_Cube/Drivers/STM32F4xx_HAL_Driver/Src/stm32f4xx_hal_rcc.c ****       /* Enable the Internal Low Speed oscillator (LSI). */
 358:../../../../dependencies/stm/STM32F4_Cube/Drivers/STM32F4xx_HAL_Driver/Src/stm32f4xx_hal_rcc.c ****       __HAL_RCC_LSI_ENABLE();
 367              		.loc 1 358 0
 368 01ee 344B     		ldr	r3, .L58+8
 369 01f0 0122     		movs	r2, #1
 370 01f2 1A60     		str	r2, [r3]
 359:../../../../dependencies/stm/STM32F4_Cube/Drivers/STM32F4xx_HAL_Driver/Src/stm32f4xx_hal_rcc.c **** 
 360:../../../../dependencies/stm/STM32F4_Cube/Drivers/STM32F4xx_HAL_Driver/Src/stm32f4xx_hal_rcc.c ****       /* Get Start Tick*/
 361:../../../../dependencies/stm/STM32F4_Cube/Drivers/STM32F4xx_HAL_Driver/Src/stm32f4xx_hal_rcc.c ****       tickstart = HAL_GetTick();
 371              		.loc 1 361 0
 372 01f4 FFF7FEFF 		bl	HAL_GetTick
 373 01f8 3861     		str	r0, [r7, #16]
 362:../../../../dependencies/stm/STM32F4_Cube/Drivers/STM32F4xx_HAL_Driver/Src/stm32f4xx_hal_rcc.c **** 
 363:../../../../dependencies/stm/STM32F4_Cube/Drivers/STM32F4xx_HAL_Driver/Src/stm32f4xx_hal_rcc.c ****       /* Wait till LSI is ready */
ARM GAS  /var/folders/_8/_cw6l3nd335f_j6cn6z79m4m0000gn/T//ccTXFGg6.s 			page 14


 364:../../../../dependencies/stm/STM32F4_Cube/Drivers/STM32F4xx_HAL_Driver/Src/stm32f4xx_hal_rcc.c ****       while(__HAL_RCC_GET_FLAG(RCC_FLAG_LSIRDY) == RESET)
 374              		.loc 1 364 0
 375 01fa 08E0     		b	.L29
 376              	.L30:
 365:../../../../dependencies/stm/STM32F4_Cube/Drivers/STM32F4xx_HAL_Driver/Src/stm32f4xx_hal_rcc.c ****       {
 366:../../../../dependencies/stm/STM32F4_Cube/Drivers/STM32F4xx_HAL_Driver/Src/stm32f4xx_hal_rcc.c ****         if((HAL_GetTick() - tickstart ) > LSI_TIMEOUT_VALUE)
 377              		.loc 1 366 0
 378 01fc FFF7FEFF 		bl	HAL_GetTick
 379 0200 0246     		mov	r2, r0
 380 0202 3B69     		ldr	r3, [r7, #16]
 381 0204 D31A     		subs	r3, r2, r3
 382 0206 022B     		cmp	r3, #2
 383 0208 01D9     		bls	.L29
 367:../../../../dependencies/stm/STM32F4_Cube/Drivers/STM32F4xx_HAL_Driver/Src/stm32f4xx_hal_rcc.c ****         {
 368:../../../../dependencies/stm/STM32F4_Cube/Drivers/STM32F4xx_HAL_Driver/Src/stm32f4xx_hal_rcc.c ****           return HAL_TIMEOUT;
 384              		.loc 1 368 0
 385 020a 0323     		movs	r3, #3
 386 020c 5AE1     		b	.L5
 387              	.L29:
 364:../../../../dependencies/stm/STM32F4_Cube/Drivers/STM32F4xx_HAL_Driver/Src/stm32f4xx_hal_rcc.c ****       {
 388              		.loc 1 364 0
 389 020e 2A4B     		ldr	r3, .L58
 390 0210 5B6F     		ldr	r3, [r3, #116]
 391 0212 03F00203 		and	r3, r3, #2
 392 0216 002B     		cmp	r3, #0
 393 0218 F0D0     		beq	.L30
 394 021a 15E0     		b	.L27
 395              	.L28:
 369:../../../../dependencies/stm/STM32F4_Cube/Drivers/STM32F4xx_HAL_Driver/Src/stm32f4xx_hal_rcc.c ****         }
 370:../../../../dependencies/stm/STM32F4_Cube/Drivers/STM32F4xx_HAL_Driver/Src/stm32f4xx_hal_rcc.c ****       }
 371:../../../../dependencies/stm/STM32F4_Cube/Drivers/STM32F4xx_HAL_Driver/Src/stm32f4xx_hal_rcc.c ****     }
 372:../../../../dependencies/stm/STM32F4_Cube/Drivers/STM32F4xx_HAL_Driver/Src/stm32f4xx_hal_rcc.c ****     else
 373:../../../../dependencies/stm/STM32F4_Cube/Drivers/STM32F4xx_HAL_Driver/Src/stm32f4xx_hal_rcc.c ****     {
 374:../../../../dependencies/stm/STM32F4_Cube/Drivers/STM32F4xx_HAL_Driver/Src/stm32f4xx_hal_rcc.c ****       /* Disable the Internal Low Speed oscillator (LSI). */
 375:../../../../dependencies/stm/STM32F4_Cube/Drivers/STM32F4xx_HAL_Driver/Src/stm32f4xx_hal_rcc.c ****       __HAL_RCC_LSI_DISABLE();
 396              		.loc 1 375 0
 397 021c 284B     		ldr	r3, .L58+8
 398 021e 0022     		movs	r2, #0
 399 0220 1A60     		str	r2, [r3]
 376:../../../../dependencies/stm/STM32F4_Cube/Drivers/STM32F4xx_HAL_Driver/Src/stm32f4xx_hal_rcc.c **** 
 377:../../../../dependencies/stm/STM32F4_Cube/Drivers/STM32F4xx_HAL_Driver/Src/stm32f4xx_hal_rcc.c ****       /* Get Start Tick */
 378:../../../../dependencies/stm/STM32F4_Cube/Drivers/STM32F4xx_HAL_Driver/Src/stm32f4xx_hal_rcc.c ****       tickstart = HAL_GetTick();
 400              		.loc 1 378 0
 401 0222 FFF7FEFF 		bl	HAL_GetTick
 402 0226 3861     		str	r0, [r7, #16]
 379:../../../../dependencies/stm/STM32F4_Cube/Drivers/STM32F4xx_HAL_Driver/Src/stm32f4xx_hal_rcc.c **** 
 380:../../../../dependencies/stm/STM32F4_Cube/Drivers/STM32F4xx_HAL_Driver/Src/stm32f4xx_hal_rcc.c ****       /* Wait till LSI is ready */
 381:../../../../dependencies/stm/STM32F4_Cube/Drivers/STM32F4xx_HAL_Driver/Src/stm32f4xx_hal_rcc.c ****       while(__HAL_RCC_GET_FLAG(RCC_FLAG_LSIRDY) != RESET)
 403              		.loc 1 381 0
 404 0228 08E0     		b	.L31
 405              	.L32:
 382:../../../../dependencies/stm/STM32F4_Cube/Drivers/STM32F4xx_HAL_Driver/Src/stm32f4xx_hal_rcc.c ****       {
 383:../../../../dependencies/stm/STM32F4_Cube/Drivers/STM32F4xx_HAL_Driver/Src/stm32f4xx_hal_rcc.c ****         if((HAL_GetTick() - tickstart ) > LSI_TIMEOUT_VALUE)
 406              		.loc 1 383 0
 407 022a FFF7FEFF 		bl	HAL_GetTick
 408 022e 0246     		mov	r2, r0
 409 0230 3B69     		ldr	r3, [r7, #16]
ARM GAS  /var/folders/_8/_cw6l3nd335f_j6cn6z79m4m0000gn/T//ccTXFGg6.s 			page 15


 410 0232 D31A     		subs	r3, r2, r3
 411 0234 022B     		cmp	r3, #2
 412 0236 01D9     		bls	.L31
 384:../../../../dependencies/stm/STM32F4_Cube/Drivers/STM32F4xx_HAL_Driver/Src/stm32f4xx_hal_rcc.c ****         {
 385:../../../../dependencies/stm/STM32F4_Cube/Drivers/STM32F4xx_HAL_Driver/Src/stm32f4xx_hal_rcc.c ****           return HAL_TIMEOUT;
 413              		.loc 1 385 0
 414 0238 0323     		movs	r3, #3
 415 023a 43E1     		b	.L5
 416              	.L31:
 381:../../../../dependencies/stm/STM32F4_Cube/Drivers/STM32F4xx_HAL_Driver/Src/stm32f4xx_hal_rcc.c ****       {
 417              		.loc 1 381 0
 418 023c 1E4B     		ldr	r3, .L58
 419 023e 5B6F     		ldr	r3, [r3, #116]
 420 0240 03F00203 		and	r3, r3, #2
 421 0244 002B     		cmp	r3, #0
 422 0246 F0D1     		bne	.L32
 423              	.L27:
 386:../../../../dependencies/stm/STM32F4_Cube/Drivers/STM32F4xx_HAL_Driver/Src/stm32f4xx_hal_rcc.c ****         }
 387:../../../../dependencies/stm/STM32F4_Cube/Drivers/STM32F4xx_HAL_Driver/Src/stm32f4xx_hal_rcc.c ****       }
 388:../../../../dependencies/stm/STM32F4_Cube/Drivers/STM32F4xx_HAL_Driver/Src/stm32f4xx_hal_rcc.c ****     }
 389:../../../../dependencies/stm/STM32F4_Cube/Drivers/STM32F4xx_HAL_Driver/Src/stm32f4xx_hal_rcc.c ****   }
 390:../../../../dependencies/stm/STM32F4_Cube/Drivers/STM32F4xx_HAL_Driver/Src/stm32f4xx_hal_rcc.c ****   /*------------------------------ LSE Configuration -------------------------*/
 391:../../../../dependencies/stm/STM32F4_Cube/Drivers/STM32F4xx_HAL_Driver/Src/stm32f4xx_hal_rcc.c ****   if(((RCC_OscInitStruct->OscillatorType) & RCC_OSCILLATORTYPE_LSE) == RCC_OSCILLATORTYPE_LSE)
 424              		.loc 1 391 0
 425 0248 7B68     		ldr	r3, [r7, #4]
 426 024a 1B68     		ldr	r3, [r3]
 427 024c 03F00403 		and	r3, r3, #4
 428 0250 002B     		cmp	r3, #0
 429 0252 00F09F80 		beq	.L33
 430              	.LBB2:
 392:../../../../dependencies/stm/STM32F4_Cube/Drivers/STM32F4xx_HAL_Driver/Src/stm32f4xx_hal_rcc.c ****   {
 393:../../../../dependencies/stm/STM32F4_Cube/Drivers/STM32F4xx_HAL_Driver/Src/stm32f4xx_hal_rcc.c ****     FlagStatus       pwrclkchanged = RESET;
 431              		.loc 1 393 0
 432 0256 0023     		movs	r3, #0
 433 0258 FB75     		strb	r3, [r7, #23]
 394:../../../../dependencies/stm/STM32F4_Cube/Drivers/STM32F4xx_HAL_Driver/Src/stm32f4xx_hal_rcc.c **** 
 395:../../../../dependencies/stm/STM32F4_Cube/Drivers/STM32F4xx_HAL_Driver/Src/stm32f4xx_hal_rcc.c ****     /* Check the parameters */
 396:../../../../dependencies/stm/STM32F4_Cube/Drivers/STM32F4xx_HAL_Driver/Src/stm32f4xx_hal_rcc.c ****     assert_param(IS_RCC_LSE(RCC_OscInitStruct->LSEState));
 397:../../../../dependencies/stm/STM32F4_Cube/Drivers/STM32F4xx_HAL_Driver/Src/stm32f4xx_hal_rcc.c **** 
 398:../../../../dependencies/stm/STM32F4_Cube/Drivers/STM32F4xx_HAL_Driver/Src/stm32f4xx_hal_rcc.c ****     /* Update LSE configuration in Backup Domain control register    */
 399:../../../../dependencies/stm/STM32F4_Cube/Drivers/STM32F4xx_HAL_Driver/Src/stm32f4xx_hal_rcc.c ****     /* Requires to enable write access to Backup Domain of necessary */
 400:../../../../dependencies/stm/STM32F4_Cube/Drivers/STM32F4xx_HAL_Driver/Src/stm32f4xx_hal_rcc.c ****     if(__HAL_RCC_PWR_IS_CLK_DISABLED())
 434              		.loc 1 400 0
 435 025a 174B     		ldr	r3, .L58
 436 025c 1B6C     		ldr	r3, [r3, #64]
 437 025e 03F08053 		and	r3, r3, #268435456
 438 0262 002B     		cmp	r3, #0
 439 0264 0FD1     		bne	.L34
 440              	.LBB3:
 401:../../../../dependencies/stm/STM32F4_Cube/Drivers/STM32F4xx_HAL_Driver/Src/stm32f4xx_hal_rcc.c ****     {
 402:../../../../dependencies/stm/STM32F4_Cube/Drivers/STM32F4xx_HAL_Driver/Src/stm32f4xx_hal_rcc.c ****       __HAL_RCC_PWR_CLK_ENABLE();
 441              		.loc 1 402 0
 442 0266 0023     		movs	r3, #0
 443 0268 BB60     		str	r3, [r7, #8]
 444 026a 134A     		ldr	r2, .L58
 445 026c 124B     		ldr	r3, .L58
 446 026e 1B6C     		ldr	r3, [r3, #64]
ARM GAS  /var/folders/_8/_cw6l3nd335f_j6cn6z79m4m0000gn/T//ccTXFGg6.s 			page 16


 447 0270 43F08053 		orr	r3, r3, #268435456
 448 0274 1364     		str	r3, [r2, #64]
 449 0276 104B     		ldr	r3, .L58
 450 0278 1B6C     		ldr	r3, [r3, #64]
 451 027a 03F08053 		and	r3, r3, #268435456
 452 027e BB60     		str	r3, [r7, #8]
 453 0280 BB68     		ldr	r3, [r7, #8]
 454              	.LBE3:
 403:../../../../dependencies/stm/STM32F4_Cube/Drivers/STM32F4xx_HAL_Driver/Src/stm32f4xx_hal_rcc.c ****       pwrclkchanged = SET;
 455              		.loc 1 403 0
 456 0282 0123     		movs	r3, #1
 457 0284 FB75     		strb	r3, [r7, #23]
 458              	.L34:
 404:../../../../dependencies/stm/STM32F4_Cube/Drivers/STM32F4xx_HAL_Driver/Src/stm32f4xx_hal_rcc.c ****     }
 405:../../../../dependencies/stm/STM32F4_Cube/Drivers/STM32F4xx_HAL_Driver/Src/stm32f4xx_hal_rcc.c **** 
 406:../../../../dependencies/stm/STM32F4_Cube/Drivers/STM32F4xx_HAL_Driver/Src/stm32f4xx_hal_rcc.c ****     if(HAL_IS_BIT_CLR(PWR->CR, PWR_CR_DBP))
 459              		.loc 1 406 0
 460 0286 0F4B     		ldr	r3, .L58+12
 461 0288 1B68     		ldr	r3, [r3]
 462 028a 03F48073 		and	r3, r3, #256
 463 028e 002B     		cmp	r3, #0
 464 0290 20D1     		bne	.L35
 407:../../../../dependencies/stm/STM32F4_Cube/Drivers/STM32F4xx_HAL_Driver/Src/stm32f4xx_hal_rcc.c ****     {
 408:../../../../dependencies/stm/STM32F4_Cube/Drivers/STM32F4xx_HAL_Driver/Src/stm32f4xx_hal_rcc.c ****       /* Enable write access to Backup domain */
 409:../../../../dependencies/stm/STM32F4_Cube/Drivers/STM32F4xx_HAL_Driver/Src/stm32f4xx_hal_rcc.c ****       SET_BIT(PWR->CR, PWR_CR_DBP);
 465              		.loc 1 409 0
 466 0292 0C4A     		ldr	r2, .L58+12
 467 0294 0B4B     		ldr	r3, .L58+12
 468 0296 1B68     		ldr	r3, [r3]
 469 0298 43F48073 		orr	r3, r3, #256
 470 029c 1360     		str	r3, [r2]
 410:../../../../dependencies/stm/STM32F4_Cube/Drivers/STM32F4xx_HAL_Driver/Src/stm32f4xx_hal_rcc.c **** 
 411:../../../../dependencies/stm/STM32F4_Cube/Drivers/STM32F4xx_HAL_Driver/Src/stm32f4xx_hal_rcc.c ****       /* Wait for Backup domain Write protection disable */
 412:../../../../dependencies/stm/STM32F4_Cube/Drivers/STM32F4xx_HAL_Driver/Src/stm32f4xx_hal_rcc.c ****       tickstart = HAL_GetTick();
 471              		.loc 1 412 0
 472 029e FFF7FEFF 		bl	HAL_GetTick
 473 02a2 3861     		str	r0, [r7, #16]
 413:../../../../dependencies/stm/STM32F4_Cube/Drivers/STM32F4xx_HAL_Driver/Src/stm32f4xx_hal_rcc.c **** 
 414:../../../../dependencies/stm/STM32F4_Cube/Drivers/STM32F4xx_HAL_Driver/Src/stm32f4xx_hal_rcc.c ****       while(HAL_IS_BIT_CLR(PWR->CR, PWR_CR_DBP))
 474              		.loc 1 414 0
 475 02a4 10E0     		b	.L36
 476              	.L37:
 415:../../../../dependencies/stm/STM32F4_Cube/Drivers/STM32F4xx_HAL_Driver/Src/stm32f4xx_hal_rcc.c ****       {
 416:../../../../dependencies/stm/STM32F4_Cube/Drivers/STM32F4xx_HAL_Driver/Src/stm32f4xx_hal_rcc.c ****         if((HAL_GetTick() - tickstart) > RCC_DBP_TIMEOUT_VALUE)
 477              		.loc 1 416 0
 478 02a6 FFF7FEFF 		bl	HAL_GetTick
 479 02aa 0246     		mov	r2, r0
 480 02ac 3B69     		ldr	r3, [r7, #16]
 481 02ae D31A     		subs	r3, r2, r3
 482 02b0 022B     		cmp	r3, #2
 483 02b2 09D9     		bls	.L36
 417:../../../../dependencies/stm/STM32F4_Cube/Drivers/STM32F4xx_HAL_Driver/Src/stm32f4xx_hal_rcc.c ****         {
 418:../../../../dependencies/stm/STM32F4_Cube/Drivers/STM32F4xx_HAL_Driver/Src/stm32f4xx_hal_rcc.c ****           return HAL_TIMEOUT;
 484              		.loc 1 418 0
 485 02b4 0323     		movs	r3, #3
 486 02b6 05E1     		b	.L5
 487              	.L59:
ARM GAS  /var/folders/_8/_cw6l3nd335f_j6cn6z79m4m0000gn/T//ccTXFGg6.s 			page 17


 488              		.align	2
 489              	.L58:
 490 02b8 00380240 		.word	1073887232
 491 02bc 00004742 		.word	1111949312
 492 02c0 800E4742 		.word	1111953024
 493 02c4 00700040 		.word	1073770496
 494              	.L36:
 414:../../../../dependencies/stm/STM32F4_Cube/Drivers/STM32F4xx_HAL_Driver/Src/stm32f4xx_hal_rcc.c ****       {
 495              		.loc 1 414 0
 496 02c8 804B     		ldr	r3, .L60
 497 02ca 1B68     		ldr	r3, [r3]
 498 02cc 03F48073 		and	r3, r3, #256
 499 02d0 002B     		cmp	r3, #0
 500 02d2 E8D0     		beq	.L37
 501              	.L35:
 419:../../../../dependencies/stm/STM32F4_Cube/Drivers/STM32F4xx_HAL_Driver/Src/stm32f4xx_hal_rcc.c ****         }
 420:../../../../dependencies/stm/STM32F4_Cube/Drivers/STM32F4xx_HAL_Driver/Src/stm32f4xx_hal_rcc.c ****       }
 421:../../../../dependencies/stm/STM32F4_Cube/Drivers/STM32F4xx_HAL_Driver/Src/stm32f4xx_hal_rcc.c ****     }
 422:../../../../dependencies/stm/STM32F4_Cube/Drivers/STM32F4xx_HAL_Driver/Src/stm32f4xx_hal_rcc.c **** 
 423:../../../../dependencies/stm/STM32F4_Cube/Drivers/STM32F4xx_HAL_Driver/Src/stm32f4xx_hal_rcc.c ****     /* Set the new LSE configuration -----------------------------------------*/
 424:../../../../dependencies/stm/STM32F4_Cube/Drivers/STM32F4xx_HAL_Driver/Src/stm32f4xx_hal_rcc.c ****     __HAL_RCC_LSE_CONFIG(RCC_OscInitStruct->LSEState);
 502              		.loc 1 424 0
 503 02d4 7B68     		ldr	r3, [r7, #4]
 504 02d6 9B68     		ldr	r3, [r3, #8]
 505 02d8 012B     		cmp	r3, #1
 506 02da 06D1     		bne	.L38
 507              		.loc 1 424 0 is_stmt 0 discriminator 1
 508 02dc 7C4A     		ldr	r2, .L60+4
 509 02de 7C4B     		ldr	r3, .L60+4
 510 02e0 1B6F     		ldr	r3, [r3, #112]
 511 02e2 43F00103 		orr	r3, r3, #1
 512 02e6 1367     		str	r3, [r2, #112]
 513 02e8 1CE0     		b	.L39
 514              	.L38:
 515              		.loc 1 424 0 discriminator 2
 516 02ea 7B68     		ldr	r3, [r7, #4]
 517 02ec 9B68     		ldr	r3, [r3, #8]
 518 02ee 052B     		cmp	r3, #5
 519 02f0 0CD1     		bne	.L40
 520              		.loc 1 424 0 discriminator 3
 521 02f2 774A     		ldr	r2, .L60+4
 522 02f4 764B     		ldr	r3, .L60+4
 523 02f6 1B6F     		ldr	r3, [r3, #112]
 524 02f8 43F00403 		orr	r3, r3, #4
 525 02fc 1367     		str	r3, [r2, #112]
 526 02fe 744A     		ldr	r2, .L60+4
 527 0300 734B     		ldr	r3, .L60+4
 528 0302 1B6F     		ldr	r3, [r3, #112]
 529 0304 43F00103 		orr	r3, r3, #1
 530 0308 1367     		str	r3, [r2, #112]
 531 030a 0BE0     		b	.L39
 532              	.L40:
 533              		.loc 1 424 0 discriminator 4
 534 030c 704A     		ldr	r2, .L60+4
 535 030e 704B     		ldr	r3, .L60+4
 536 0310 1B6F     		ldr	r3, [r3, #112]
 537 0312 23F00103 		bic	r3, r3, #1
ARM GAS  /var/folders/_8/_cw6l3nd335f_j6cn6z79m4m0000gn/T//ccTXFGg6.s 			page 18


 538 0316 1367     		str	r3, [r2, #112]
 539 0318 6D4A     		ldr	r2, .L60+4
 540 031a 6D4B     		ldr	r3, .L60+4
 541 031c 1B6F     		ldr	r3, [r3, #112]
 542 031e 23F00403 		bic	r3, r3, #4
 543 0322 1367     		str	r3, [r2, #112]
 544              	.L39:
 425:../../../../dependencies/stm/STM32F4_Cube/Drivers/STM32F4xx_HAL_Driver/Src/stm32f4xx_hal_rcc.c ****     /* Check the LSE State */
 426:../../../../dependencies/stm/STM32F4_Cube/Drivers/STM32F4xx_HAL_Driver/Src/stm32f4xx_hal_rcc.c ****     if((RCC_OscInitStruct->LSEState) != RCC_LSE_OFF)
 545              		.loc 1 426 0 is_stmt 1
 546 0324 7B68     		ldr	r3, [r7, #4]
 547 0326 9B68     		ldr	r3, [r3, #8]
 548 0328 002B     		cmp	r3, #0
 549 032a 15D0     		beq	.L41
 427:../../../../dependencies/stm/STM32F4_Cube/Drivers/STM32F4xx_HAL_Driver/Src/stm32f4xx_hal_rcc.c ****     {
 428:../../../../dependencies/stm/STM32F4_Cube/Drivers/STM32F4xx_HAL_Driver/Src/stm32f4xx_hal_rcc.c ****       /* Get Start Tick*/
 429:../../../../dependencies/stm/STM32F4_Cube/Drivers/STM32F4xx_HAL_Driver/Src/stm32f4xx_hal_rcc.c ****       tickstart = HAL_GetTick();
 550              		.loc 1 429 0
 551 032c FFF7FEFF 		bl	HAL_GetTick
 552 0330 3861     		str	r0, [r7, #16]
 430:../../../../dependencies/stm/STM32F4_Cube/Drivers/STM32F4xx_HAL_Driver/Src/stm32f4xx_hal_rcc.c **** 
 431:../../../../dependencies/stm/STM32F4_Cube/Drivers/STM32F4xx_HAL_Driver/Src/stm32f4xx_hal_rcc.c ****       /* Wait till LSE is ready */
 432:../../../../dependencies/stm/STM32F4_Cube/Drivers/STM32F4xx_HAL_Driver/Src/stm32f4xx_hal_rcc.c ****       while(__HAL_RCC_GET_FLAG(RCC_FLAG_LSERDY) == RESET)
 553              		.loc 1 432 0
 554 0332 0AE0     		b	.L42
 555              	.L43:
 433:../../../../dependencies/stm/STM32F4_Cube/Drivers/STM32F4xx_HAL_Driver/Src/stm32f4xx_hal_rcc.c ****       {
 434:../../../../dependencies/stm/STM32F4_Cube/Drivers/STM32F4xx_HAL_Driver/Src/stm32f4xx_hal_rcc.c ****         if((HAL_GetTick() - tickstart ) > RCC_LSE_TIMEOUT_VALUE)
 556              		.loc 1 434 0
 557 0334 FFF7FEFF 		bl	HAL_GetTick
 558 0338 0246     		mov	r2, r0
 559 033a 3B69     		ldr	r3, [r7, #16]
 560 033c D31A     		subs	r3, r2, r3
 561 033e 41F28832 		movw	r2, #5000
 562 0342 9342     		cmp	r3, r2
 563 0344 01D9     		bls	.L42
 435:../../../../dependencies/stm/STM32F4_Cube/Drivers/STM32F4xx_HAL_Driver/Src/stm32f4xx_hal_rcc.c ****         {
 436:../../../../dependencies/stm/STM32F4_Cube/Drivers/STM32F4xx_HAL_Driver/Src/stm32f4xx_hal_rcc.c ****           return HAL_TIMEOUT;
 564              		.loc 1 436 0
 565 0346 0323     		movs	r3, #3
 566 0348 BCE0     		b	.L5
 567              	.L42:
 432:../../../../dependencies/stm/STM32F4_Cube/Drivers/STM32F4xx_HAL_Driver/Src/stm32f4xx_hal_rcc.c ****       {
 568              		.loc 1 432 0
 569 034a 614B     		ldr	r3, .L60+4
 570 034c 1B6F     		ldr	r3, [r3, #112]
 571 034e 03F00203 		and	r3, r3, #2
 572 0352 002B     		cmp	r3, #0
 573 0354 EED0     		beq	.L43
 574 0356 14E0     		b	.L44
 575              	.L41:
 437:../../../../dependencies/stm/STM32F4_Cube/Drivers/STM32F4xx_HAL_Driver/Src/stm32f4xx_hal_rcc.c ****         }
 438:../../../../dependencies/stm/STM32F4_Cube/Drivers/STM32F4xx_HAL_Driver/Src/stm32f4xx_hal_rcc.c ****       }
 439:../../../../dependencies/stm/STM32F4_Cube/Drivers/STM32F4xx_HAL_Driver/Src/stm32f4xx_hal_rcc.c ****     }
 440:../../../../dependencies/stm/STM32F4_Cube/Drivers/STM32F4xx_HAL_Driver/Src/stm32f4xx_hal_rcc.c ****     else
 441:../../../../dependencies/stm/STM32F4_Cube/Drivers/STM32F4xx_HAL_Driver/Src/stm32f4xx_hal_rcc.c ****     {
 442:../../../../dependencies/stm/STM32F4_Cube/Drivers/STM32F4xx_HAL_Driver/Src/stm32f4xx_hal_rcc.c ****       /* Get Start Tick */
ARM GAS  /var/folders/_8/_cw6l3nd335f_j6cn6z79m4m0000gn/T//ccTXFGg6.s 			page 19


 443:../../../../dependencies/stm/STM32F4_Cube/Drivers/STM32F4xx_HAL_Driver/Src/stm32f4xx_hal_rcc.c ****       tickstart = HAL_GetTick();
 576              		.loc 1 443 0
 577 0358 FFF7FEFF 		bl	HAL_GetTick
 578 035c 3861     		str	r0, [r7, #16]
 444:../../../../dependencies/stm/STM32F4_Cube/Drivers/STM32F4xx_HAL_Driver/Src/stm32f4xx_hal_rcc.c **** 
 445:../../../../dependencies/stm/STM32F4_Cube/Drivers/STM32F4xx_HAL_Driver/Src/stm32f4xx_hal_rcc.c ****       /* Wait till LSE is ready */
 446:../../../../dependencies/stm/STM32F4_Cube/Drivers/STM32F4xx_HAL_Driver/Src/stm32f4xx_hal_rcc.c ****       while(__HAL_RCC_GET_FLAG(RCC_FLAG_LSERDY) != RESET)
 579              		.loc 1 446 0
 580 035e 0AE0     		b	.L45
 581              	.L46:
 447:../../../../dependencies/stm/STM32F4_Cube/Drivers/STM32F4xx_HAL_Driver/Src/stm32f4xx_hal_rcc.c ****       {
 448:../../../../dependencies/stm/STM32F4_Cube/Drivers/STM32F4xx_HAL_Driver/Src/stm32f4xx_hal_rcc.c ****         if((HAL_GetTick() - tickstart ) > RCC_LSE_TIMEOUT_VALUE)
 582              		.loc 1 448 0
 583 0360 FFF7FEFF 		bl	HAL_GetTick
 584 0364 0246     		mov	r2, r0
 585 0366 3B69     		ldr	r3, [r7, #16]
 586 0368 D31A     		subs	r3, r2, r3
 587 036a 41F28832 		movw	r2, #5000
 588 036e 9342     		cmp	r3, r2
 589 0370 01D9     		bls	.L45
 449:../../../../dependencies/stm/STM32F4_Cube/Drivers/STM32F4xx_HAL_Driver/Src/stm32f4xx_hal_rcc.c ****         {
 450:../../../../dependencies/stm/STM32F4_Cube/Drivers/STM32F4xx_HAL_Driver/Src/stm32f4xx_hal_rcc.c ****           return HAL_TIMEOUT;
 590              		.loc 1 450 0
 591 0372 0323     		movs	r3, #3
 592 0374 A6E0     		b	.L5
 593              	.L45:
 446:../../../../dependencies/stm/STM32F4_Cube/Drivers/STM32F4xx_HAL_Driver/Src/stm32f4xx_hal_rcc.c ****       {
 594              		.loc 1 446 0
 595 0376 564B     		ldr	r3, .L60+4
 596 0378 1B6F     		ldr	r3, [r3, #112]
 597 037a 03F00203 		and	r3, r3, #2
 598 037e 002B     		cmp	r3, #0
 599 0380 EED1     		bne	.L46
 600              	.L44:
 451:../../../../dependencies/stm/STM32F4_Cube/Drivers/STM32F4xx_HAL_Driver/Src/stm32f4xx_hal_rcc.c ****         }
 452:../../../../dependencies/stm/STM32F4_Cube/Drivers/STM32F4xx_HAL_Driver/Src/stm32f4xx_hal_rcc.c ****       }
 453:../../../../dependencies/stm/STM32F4_Cube/Drivers/STM32F4xx_HAL_Driver/Src/stm32f4xx_hal_rcc.c ****     }
 454:../../../../dependencies/stm/STM32F4_Cube/Drivers/STM32F4xx_HAL_Driver/Src/stm32f4xx_hal_rcc.c **** 
 455:../../../../dependencies/stm/STM32F4_Cube/Drivers/STM32F4xx_HAL_Driver/Src/stm32f4xx_hal_rcc.c ****     /* Restore clock configuration if changed */
 456:../../../../dependencies/stm/STM32F4_Cube/Drivers/STM32F4xx_HAL_Driver/Src/stm32f4xx_hal_rcc.c ****     if(pwrclkchanged == SET)
 601              		.loc 1 456 0
 602 0382 FB7D     		ldrb	r3, [r7, #23]	@ zero_extendqisi2
 603 0384 012B     		cmp	r3, #1
 604 0386 05D1     		bne	.L33
 457:../../../../dependencies/stm/STM32F4_Cube/Drivers/STM32F4xx_HAL_Driver/Src/stm32f4xx_hal_rcc.c ****     {
 458:../../../../dependencies/stm/STM32F4_Cube/Drivers/STM32F4xx_HAL_Driver/Src/stm32f4xx_hal_rcc.c ****       __HAL_RCC_PWR_CLK_DISABLE();
 605              		.loc 1 458 0
 606 0388 514A     		ldr	r2, .L60+4
 607 038a 514B     		ldr	r3, .L60+4
 608 038c 1B6C     		ldr	r3, [r3, #64]
 609 038e 23F08053 		bic	r3, r3, #268435456
 610 0392 1364     		str	r3, [r2, #64]
 611              	.L33:
 612              	.LBE2:
 459:../../../../dependencies/stm/STM32F4_Cube/Drivers/STM32F4xx_HAL_Driver/Src/stm32f4xx_hal_rcc.c ****     }
 460:../../../../dependencies/stm/STM32F4_Cube/Drivers/STM32F4xx_HAL_Driver/Src/stm32f4xx_hal_rcc.c ****   }
 461:../../../../dependencies/stm/STM32F4_Cube/Drivers/STM32F4xx_HAL_Driver/Src/stm32f4xx_hal_rcc.c ****   /*-------------------------------- PLL Configuration -----------------------*/
ARM GAS  /var/folders/_8/_cw6l3nd335f_j6cn6z79m4m0000gn/T//ccTXFGg6.s 			page 20


 462:../../../../dependencies/stm/STM32F4_Cube/Drivers/STM32F4xx_HAL_Driver/Src/stm32f4xx_hal_rcc.c ****   /* Check the parameters */
 463:../../../../dependencies/stm/STM32F4_Cube/Drivers/STM32F4xx_HAL_Driver/Src/stm32f4xx_hal_rcc.c ****   assert_param(IS_RCC_PLL(RCC_OscInitStruct->PLL.PLLState));
 464:../../../../dependencies/stm/STM32F4_Cube/Drivers/STM32F4xx_HAL_Driver/Src/stm32f4xx_hal_rcc.c ****   if ((RCC_OscInitStruct->PLL.PLLState) != RCC_PLL_NONE)
 613              		.loc 1 464 0
 614 0394 7B68     		ldr	r3, [r7, #4]
 615 0396 9B69     		ldr	r3, [r3, #24]
 616 0398 002B     		cmp	r3, #0
 617 039a 00F09280 		beq	.L47
 465:../../../../dependencies/stm/STM32F4_Cube/Drivers/STM32F4xx_HAL_Driver/Src/stm32f4xx_hal_rcc.c ****   {
 466:../../../../dependencies/stm/STM32F4_Cube/Drivers/STM32F4xx_HAL_Driver/Src/stm32f4xx_hal_rcc.c ****     /* Check if the PLL is used as system clock or not */
 467:../../../../dependencies/stm/STM32F4_Cube/Drivers/STM32F4xx_HAL_Driver/Src/stm32f4xx_hal_rcc.c ****     if(__HAL_RCC_GET_SYSCLK_SOURCE() != RCC_CFGR_SWS_PLL)
 618              		.loc 1 467 0
 619 039e 4C4B     		ldr	r3, .L60+4
 620 03a0 9B68     		ldr	r3, [r3, #8]
 621 03a2 03F00C03 		and	r3, r3, #12
 622 03a6 082B     		cmp	r3, #8
 623 03a8 5CD0     		beq	.L48
 468:../../../../dependencies/stm/STM32F4_Cube/Drivers/STM32F4xx_HAL_Driver/Src/stm32f4xx_hal_rcc.c ****     {
 469:../../../../dependencies/stm/STM32F4_Cube/Drivers/STM32F4xx_HAL_Driver/Src/stm32f4xx_hal_rcc.c ****       if((RCC_OscInitStruct->PLL.PLLState) == RCC_PLL_ON)
 624              		.loc 1 469 0
 625 03aa 7B68     		ldr	r3, [r7, #4]
 626 03ac 9B69     		ldr	r3, [r3, #24]
 627 03ae 022B     		cmp	r3, #2
 628 03b0 41D1     		bne	.L49
 470:../../../../dependencies/stm/STM32F4_Cube/Drivers/STM32F4xx_HAL_Driver/Src/stm32f4xx_hal_rcc.c ****       {
 471:../../../../dependencies/stm/STM32F4_Cube/Drivers/STM32F4xx_HAL_Driver/Src/stm32f4xx_hal_rcc.c ****         /* Check the parameters */
 472:../../../../dependencies/stm/STM32F4_Cube/Drivers/STM32F4xx_HAL_Driver/Src/stm32f4xx_hal_rcc.c ****         assert_param(IS_RCC_PLLSOURCE(RCC_OscInitStruct->PLL.PLLSource));
 473:../../../../dependencies/stm/STM32F4_Cube/Drivers/STM32F4xx_HAL_Driver/Src/stm32f4xx_hal_rcc.c ****         assert_param(IS_RCC_PLLM_VALUE(RCC_OscInitStruct->PLL.PLLM));
 474:../../../../dependencies/stm/STM32F4_Cube/Drivers/STM32F4xx_HAL_Driver/Src/stm32f4xx_hal_rcc.c ****         assert_param(IS_RCC_PLLN_VALUE(RCC_OscInitStruct->PLL.PLLN));
 475:../../../../dependencies/stm/STM32F4_Cube/Drivers/STM32F4xx_HAL_Driver/Src/stm32f4xx_hal_rcc.c ****         assert_param(IS_RCC_PLLP_VALUE(RCC_OscInitStruct->PLL.PLLP));
 476:../../../../dependencies/stm/STM32F4_Cube/Drivers/STM32F4xx_HAL_Driver/Src/stm32f4xx_hal_rcc.c ****         assert_param(IS_RCC_PLLQ_VALUE(RCC_OscInitStruct->PLL.PLLQ));
 477:../../../../dependencies/stm/STM32F4_Cube/Drivers/STM32F4xx_HAL_Driver/Src/stm32f4xx_hal_rcc.c **** 
 478:../../../../dependencies/stm/STM32F4_Cube/Drivers/STM32F4xx_HAL_Driver/Src/stm32f4xx_hal_rcc.c ****         /* Disable the main PLL. */
 479:../../../../dependencies/stm/STM32F4_Cube/Drivers/STM32F4xx_HAL_Driver/Src/stm32f4xx_hal_rcc.c ****         __HAL_RCC_PLL_DISABLE();
 629              		.loc 1 479 0
 630 03b2 484B     		ldr	r3, .L60+8
 631 03b4 0022     		movs	r2, #0
 632 03b6 1A60     		str	r2, [r3]
 480:../../../../dependencies/stm/STM32F4_Cube/Drivers/STM32F4xx_HAL_Driver/Src/stm32f4xx_hal_rcc.c **** 
 481:../../../../dependencies/stm/STM32F4_Cube/Drivers/STM32F4xx_HAL_Driver/Src/stm32f4xx_hal_rcc.c ****         /* Get Start Tick */
 482:../../../../dependencies/stm/STM32F4_Cube/Drivers/STM32F4xx_HAL_Driver/Src/stm32f4xx_hal_rcc.c ****         tickstart = HAL_GetTick();
 633              		.loc 1 482 0
 634 03b8 FFF7FEFF 		bl	HAL_GetTick
 635 03bc 3861     		str	r0, [r7, #16]
 483:../../../../dependencies/stm/STM32F4_Cube/Drivers/STM32F4xx_HAL_Driver/Src/stm32f4xx_hal_rcc.c **** 
 484:../../../../dependencies/stm/STM32F4_Cube/Drivers/STM32F4xx_HAL_Driver/Src/stm32f4xx_hal_rcc.c ****         /* Wait till PLL is ready */
 485:../../../../dependencies/stm/STM32F4_Cube/Drivers/STM32F4xx_HAL_Driver/Src/stm32f4xx_hal_rcc.c ****         while(__HAL_RCC_GET_FLAG(RCC_FLAG_PLLRDY) != RESET)
 636              		.loc 1 485 0
 637 03be 08E0     		b	.L50
 638              	.L51:
 486:../../../../dependencies/stm/STM32F4_Cube/Drivers/STM32F4xx_HAL_Driver/Src/stm32f4xx_hal_rcc.c ****         {
 487:../../../../dependencies/stm/STM32F4_Cube/Drivers/STM32F4xx_HAL_Driver/Src/stm32f4xx_hal_rcc.c ****           if((HAL_GetTick() - tickstart ) > PLL_TIMEOUT_VALUE)
 639              		.loc 1 487 0
 640 03c0 FFF7FEFF 		bl	HAL_GetTick
 641 03c4 0246     		mov	r2, r0
 642 03c6 3B69     		ldr	r3, [r7, #16]
 643 03c8 D31A     		subs	r3, r2, r3
ARM GAS  /var/folders/_8/_cw6l3nd335f_j6cn6z79m4m0000gn/T//ccTXFGg6.s 			page 21


 644 03ca 022B     		cmp	r3, #2
 645 03cc 01D9     		bls	.L50
 488:../../../../dependencies/stm/STM32F4_Cube/Drivers/STM32F4xx_HAL_Driver/Src/stm32f4xx_hal_rcc.c ****           {
 489:../../../../dependencies/stm/STM32F4_Cube/Drivers/STM32F4xx_HAL_Driver/Src/stm32f4xx_hal_rcc.c ****             return HAL_TIMEOUT;
 646              		.loc 1 489 0
 647 03ce 0323     		movs	r3, #3
 648 03d0 78E0     		b	.L5
 649              	.L50:
 485:../../../../dependencies/stm/STM32F4_Cube/Drivers/STM32F4xx_HAL_Driver/Src/stm32f4xx_hal_rcc.c ****         {
 650              		.loc 1 485 0
 651 03d2 3F4B     		ldr	r3, .L60+4
 652 03d4 1B68     		ldr	r3, [r3]
 653 03d6 03F00073 		and	r3, r3, #33554432
 654 03da 002B     		cmp	r3, #0
 655 03dc F0D1     		bne	.L51
 490:../../../../dependencies/stm/STM32F4_Cube/Drivers/STM32F4xx_HAL_Driver/Src/stm32f4xx_hal_rcc.c ****           }
 491:../../../../dependencies/stm/STM32F4_Cube/Drivers/STM32F4xx_HAL_Driver/Src/stm32f4xx_hal_rcc.c ****         }
 492:../../../../dependencies/stm/STM32F4_Cube/Drivers/STM32F4xx_HAL_Driver/Src/stm32f4xx_hal_rcc.c **** 
 493:../../../../dependencies/stm/STM32F4_Cube/Drivers/STM32F4xx_HAL_Driver/Src/stm32f4xx_hal_rcc.c ****         /* Configure the main PLL clock source, multiplication and division factors. */
 494:../../../../dependencies/stm/STM32F4_Cube/Drivers/STM32F4xx_HAL_Driver/Src/stm32f4xx_hal_rcc.c ****         WRITE_REG(RCC->PLLCFGR, (RCC_OscInitStruct->PLL.PLLSource                                  
 656              		.loc 1 494 0
 657 03de 3C49     		ldr	r1, .L60+4
 658 03e0 7B68     		ldr	r3, [r7, #4]
 659 03e2 DA69     		ldr	r2, [r3, #28]
 660 03e4 7B68     		ldr	r3, [r7, #4]
 661 03e6 1B6A     		ldr	r3, [r3, #32]
 662 03e8 1A43     		orrs	r2, r2, r3
 663 03ea 7B68     		ldr	r3, [r7, #4]
 664 03ec 5B6A     		ldr	r3, [r3, #36]
 665 03ee 9B01     		lsls	r3, r3, #6
 666 03f0 1A43     		orrs	r2, r2, r3
 667 03f2 7B68     		ldr	r3, [r7, #4]
 668 03f4 9B6A     		ldr	r3, [r3, #40]
 669 03f6 5B08     		lsrs	r3, r3, #1
 670 03f8 013B     		subs	r3, r3, #1
 671 03fa 1B04     		lsls	r3, r3, #16
 672 03fc 1A43     		orrs	r2, r2, r3
 673 03fe 7B68     		ldr	r3, [r7, #4]
 674 0400 DB6A     		ldr	r3, [r3, #44]
 675 0402 1B06     		lsls	r3, r3, #24
 676 0404 1343     		orrs	r3, r3, r2
 677 0406 4B60     		str	r3, [r1, #4]
 495:../../../../dependencies/stm/STM32F4_Cube/Drivers/STM32F4xx_HAL_Driver/Src/stm32f4xx_hal_rcc.c ****                                  RCC_OscInitStruct->PLL.PLLM                                       
 496:../../../../dependencies/stm/STM32F4_Cube/Drivers/STM32F4xx_HAL_Driver/Src/stm32f4xx_hal_rcc.c ****                                  (RCC_OscInitStruct->PLL.PLLN << RCC_PLLCFGR_PLLN_Pos)             
 497:../../../../dependencies/stm/STM32F4_Cube/Drivers/STM32F4xx_HAL_Driver/Src/stm32f4xx_hal_rcc.c ****                                  (((RCC_OscInitStruct->PLL.PLLP >> 1U) - 1U) << RCC_PLLCFGR_PLLP_Po
 498:../../../../dependencies/stm/STM32F4_Cube/Drivers/STM32F4xx_HAL_Driver/Src/stm32f4xx_hal_rcc.c ****                                  (RCC_OscInitStruct->PLL.PLLQ << RCC_PLLCFGR_PLLQ_Pos)));
 499:../../../../dependencies/stm/STM32F4_Cube/Drivers/STM32F4xx_HAL_Driver/Src/stm32f4xx_hal_rcc.c ****         /* Enable the main PLL. */
 500:../../../../dependencies/stm/STM32F4_Cube/Drivers/STM32F4xx_HAL_Driver/Src/stm32f4xx_hal_rcc.c ****         __HAL_RCC_PLL_ENABLE();
 678              		.loc 1 500 0
 679 0408 324B     		ldr	r3, .L60+8
 680 040a 0122     		movs	r2, #1
 681 040c 1A60     		str	r2, [r3]
 501:../../../../dependencies/stm/STM32F4_Cube/Drivers/STM32F4xx_HAL_Driver/Src/stm32f4xx_hal_rcc.c **** 
 502:../../../../dependencies/stm/STM32F4_Cube/Drivers/STM32F4xx_HAL_Driver/Src/stm32f4xx_hal_rcc.c ****         /* Get Start Tick */
 503:../../../../dependencies/stm/STM32F4_Cube/Drivers/STM32F4xx_HAL_Driver/Src/stm32f4xx_hal_rcc.c ****         tickstart = HAL_GetTick();
 682              		.loc 1 503 0
 683 040e FFF7FEFF 		bl	HAL_GetTick
ARM GAS  /var/folders/_8/_cw6l3nd335f_j6cn6z79m4m0000gn/T//ccTXFGg6.s 			page 22


 684 0412 3861     		str	r0, [r7, #16]
 504:../../../../dependencies/stm/STM32F4_Cube/Drivers/STM32F4xx_HAL_Driver/Src/stm32f4xx_hal_rcc.c **** 
 505:../../../../dependencies/stm/STM32F4_Cube/Drivers/STM32F4xx_HAL_Driver/Src/stm32f4xx_hal_rcc.c ****         /* Wait till PLL is ready */
 506:../../../../dependencies/stm/STM32F4_Cube/Drivers/STM32F4xx_HAL_Driver/Src/stm32f4xx_hal_rcc.c ****         while(__HAL_RCC_GET_FLAG(RCC_FLAG_PLLRDY) == RESET)
 685              		.loc 1 506 0
 686 0414 08E0     		b	.L52
 687              	.L53:
 507:../../../../dependencies/stm/STM32F4_Cube/Drivers/STM32F4xx_HAL_Driver/Src/stm32f4xx_hal_rcc.c ****         {
 508:../../../../dependencies/stm/STM32F4_Cube/Drivers/STM32F4xx_HAL_Driver/Src/stm32f4xx_hal_rcc.c ****           if((HAL_GetTick() - tickstart ) > PLL_TIMEOUT_VALUE)
 688              		.loc 1 508 0
 689 0416 FFF7FEFF 		bl	HAL_GetTick
 690 041a 0246     		mov	r2, r0
 691 041c 3B69     		ldr	r3, [r7, #16]
 692 041e D31A     		subs	r3, r2, r3
 693 0420 022B     		cmp	r3, #2
 694 0422 01D9     		bls	.L52
 509:../../../../dependencies/stm/STM32F4_Cube/Drivers/STM32F4xx_HAL_Driver/Src/stm32f4xx_hal_rcc.c ****           {
 510:../../../../dependencies/stm/STM32F4_Cube/Drivers/STM32F4xx_HAL_Driver/Src/stm32f4xx_hal_rcc.c ****             return HAL_TIMEOUT;
 695              		.loc 1 510 0
 696 0424 0323     		movs	r3, #3
 697 0426 4DE0     		b	.L5
 698              	.L52:
 506:../../../../dependencies/stm/STM32F4_Cube/Drivers/STM32F4xx_HAL_Driver/Src/stm32f4xx_hal_rcc.c ****         {
 699              		.loc 1 506 0
 700 0428 294B     		ldr	r3, .L60+4
 701 042a 1B68     		ldr	r3, [r3]
 702 042c 03F00073 		and	r3, r3, #33554432
 703 0430 002B     		cmp	r3, #0
 704 0432 F0D0     		beq	.L53
 705 0434 45E0     		b	.L47
 706              	.L49:
 511:../../../../dependencies/stm/STM32F4_Cube/Drivers/STM32F4xx_HAL_Driver/Src/stm32f4xx_hal_rcc.c ****           }
 512:../../../../dependencies/stm/STM32F4_Cube/Drivers/STM32F4xx_HAL_Driver/Src/stm32f4xx_hal_rcc.c ****         }
 513:../../../../dependencies/stm/STM32F4_Cube/Drivers/STM32F4xx_HAL_Driver/Src/stm32f4xx_hal_rcc.c ****       }
 514:../../../../dependencies/stm/STM32F4_Cube/Drivers/STM32F4xx_HAL_Driver/Src/stm32f4xx_hal_rcc.c ****       else
 515:../../../../dependencies/stm/STM32F4_Cube/Drivers/STM32F4xx_HAL_Driver/Src/stm32f4xx_hal_rcc.c ****       {
 516:../../../../dependencies/stm/STM32F4_Cube/Drivers/STM32F4xx_HAL_Driver/Src/stm32f4xx_hal_rcc.c ****         /* Disable the main PLL. */
 517:../../../../dependencies/stm/STM32F4_Cube/Drivers/STM32F4xx_HAL_Driver/Src/stm32f4xx_hal_rcc.c ****         __HAL_RCC_PLL_DISABLE();
 707              		.loc 1 517 0
 708 0436 274B     		ldr	r3, .L60+8
 709 0438 0022     		movs	r2, #0
 710 043a 1A60     		str	r2, [r3]
 518:../../../../dependencies/stm/STM32F4_Cube/Drivers/STM32F4xx_HAL_Driver/Src/stm32f4xx_hal_rcc.c **** 
 519:../../../../dependencies/stm/STM32F4_Cube/Drivers/STM32F4xx_HAL_Driver/Src/stm32f4xx_hal_rcc.c ****         /* Get Start Tick */
 520:../../../../dependencies/stm/STM32F4_Cube/Drivers/STM32F4xx_HAL_Driver/Src/stm32f4xx_hal_rcc.c ****         tickstart = HAL_GetTick();
 711              		.loc 1 520 0
 712 043c FFF7FEFF 		bl	HAL_GetTick
 713 0440 3861     		str	r0, [r7, #16]
 521:../../../../dependencies/stm/STM32F4_Cube/Drivers/STM32F4xx_HAL_Driver/Src/stm32f4xx_hal_rcc.c **** 
 522:../../../../dependencies/stm/STM32F4_Cube/Drivers/STM32F4xx_HAL_Driver/Src/stm32f4xx_hal_rcc.c ****         /* Wait till PLL is ready */
 523:../../../../dependencies/stm/STM32F4_Cube/Drivers/STM32F4xx_HAL_Driver/Src/stm32f4xx_hal_rcc.c ****         while(__HAL_RCC_GET_FLAG(RCC_FLAG_PLLRDY) != RESET)
 714              		.loc 1 523 0
 715 0442 08E0     		b	.L54
 716              	.L55:
 524:../../../../dependencies/stm/STM32F4_Cube/Drivers/STM32F4xx_HAL_Driver/Src/stm32f4xx_hal_rcc.c ****         {
 525:../../../../dependencies/stm/STM32F4_Cube/Drivers/STM32F4xx_HAL_Driver/Src/stm32f4xx_hal_rcc.c ****           if((HAL_GetTick() - tickstart ) > PLL_TIMEOUT_VALUE)
 717              		.loc 1 525 0
ARM GAS  /var/folders/_8/_cw6l3nd335f_j6cn6z79m4m0000gn/T//ccTXFGg6.s 			page 23


 718 0444 FFF7FEFF 		bl	HAL_GetTick
 719 0448 0246     		mov	r2, r0
 720 044a 3B69     		ldr	r3, [r7, #16]
 721 044c D31A     		subs	r3, r2, r3
 722 044e 022B     		cmp	r3, #2
 723 0450 01D9     		bls	.L54
 526:../../../../dependencies/stm/STM32F4_Cube/Drivers/STM32F4xx_HAL_Driver/Src/stm32f4xx_hal_rcc.c ****           {
 527:../../../../dependencies/stm/STM32F4_Cube/Drivers/STM32F4xx_HAL_Driver/Src/stm32f4xx_hal_rcc.c ****             return HAL_TIMEOUT;
 724              		.loc 1 527 0
 725 0452 0323     		movs	r3, #3
 726 0454 36E0     		b	.L5
 727              	.L54:
 523:../../../../dependencies/stm/STM32F4_Cube/Drivers/STM32F4xx_HAL_Driver/Src/stm32f4xx_hal_rcc.c ****         {
 728              		.loc 1 523 0
 729 0456 1E4B     		ldr	r3, .L60+4
 730 0458 1B68     		ldr	r3, [r3]
 731 045a 03F00073 		and	r3, r3, #33554432
 732 045e 002B     		cmp	r3, #0
 733 0460 F0D1     		bne	.L55
 734 0462 2EE0     		b	.L47
 735              	.L48:
 528:../../../../dependencies/stm/STM32F4_Cube/Drivers/STM32F4xx_HAL_Driver/Src/stm32f4xx_hal_rcc.c ****           }
 529:../../../../dependencies/stm/STM32F4_Cube/Drivers/STM32F4xx_HAL_Driver/Src/stm32f4xx_hal_rcc.c ****         }
 530:../../../../dependencies/stm/STM32F4_Cube/Drivers/STM32F4xx_HAL_Driver/Src/stm32f4xx_hal_rcc.c ****       }
 531:../../../../dependencies/stm/STM32F4_Cube/Drivers/STM32F4xx_HAL_Driver/Src/stm32f4xx_hal_rcc.c ****     }
 532:../../../../dependencies/stm/STM32F4_Cube/Drivers/STM32F4xx_HAL_Driver/Src/stm32f4xx_hal_rcc.c ****     else
 533:../../../../dependencies/stm/STM32F4_Cube/Drivers/STM32F4xx_HAL_Driver/Src/stm32f4xx_hal_rcc.c ****     {
 534:../../../../dependencies/stm/STM32F4_Cube/Drivers/STM32F4xx_HAL_Driver/Src/stm32f4xx_hal_rcc.c ****       /* Check if there is a request to disable the PLL used as System clock source */
 535:../../../../dependencies/stm/STM32F4_Cube/Drivers/STM32F4xx_HAL_Driver/Src/stm32f4xx_hal_rcc.c ****       if((RCC_OscInitStruct->PLL.PLLState) == RCC_PLL_OFF)
 736              		.loc 1 535 0
 737 0464 7B68     		ldr	r3, [r7, #4]
 738 0466 9B69     		ldr	r3, [r3, #24]
 739 0468 012B     		cmp	r3, #1
 740 046a 01D1     		bne	.L56
 536:../../../../dependencies/stm/STM32F4_Cube/Drivers/STM32F4xx_HAL_Driver/Src/stm32f4xx_hal_rcc.c ****       {
 537:../../../../dependencies/stm/STM32F4_Cube/Drivers/STM32F4xx_HAL_Driver/Src/stm32f4xx_hal_rcc.c ****         return HAL_ERROR;
 741              		.loc 1 537 0
 742 046c 0123     		movs	r3, #1
 743 046e 29E0     		b	.L5
 744              	.L56:
 538:../../../../dependencies/stm/STM32F4_Cube/Drivers/STM32F4xx_HAL_Driver/Src/stm32f4xx_hal_rcc.c ****       }
 539:../../../../dependencies/stm/STM32F4_Cube/Drivers/STM32F4xx_HAL_Driver/Src/stm32f4xx_hal_rcc.c ****       else
 540:../../../../dependencies/stm/STM32F4_Cube/Drivers/STM32F4xx_HAL_Driver/Src/stm32f4xx_hal_rcc.c ****       {
 541:../../../../dependencies/stm/STM32F4_Cube/Drivers/STM32F4xx_HAL_Driver/Src/stm32f4xx_hal_rcc.c ****         /* Do not return HAL_ERROR if request repeats the current configuration */
 542:../../../../dependencies/stm/STM32F4_Cube/Drivers/STM32F4xx_HAL_Driver/Src/stm32f4xx_hal_rcc.c ****         pll_config = RCC->PLLCFGR;
 745              		.loc 1 542 0
 746 0470 174B     		ldr	r3, .L60+4
 747 0472 5B68     		ldr	r3, [r3, #4]
 748 0474 FB60     		str	r3, [r7, #12]
 543:../../../../dependencies/stm/STM32F4_Cube/Drivers/STM32F4xx_HAL_Driver/Src/stm32f4xx_hal_rcc.c ****         if((READ_BIT(pll_config, RCC_PLLCFGR_PLLSRC) != RCC_OscInitStruct->PLL.PLLSource) ||
 749              		.loc 1 543 0
 750 0476 FB68     		ldr	r3, [r7, #12]
 751 0478 03F48002 		and	r2, r3, #4194304
 752 047c 7B68     		ldr	r3, [r7, #4]
 753 047e DB69     		ldr	r3, [r3, #28]
 754 0480 9A42     		cmp	r2, r3
 755 0482 1CD1     		bne	.L57
ARM GAS  /var/folders/_8/_cw6l3nd335f_j6cn6z79m4m0000gn/T//ccTXFGg6.s 			page 24


 544:../../../../dependencies/stm/STM32F4_Cube/Drivers/STM32F4xx_HAL_Driver/Src/stm32f4xx_hal_rcc.c ****            (READ_BIT(pll_config, RCC_PLLCFGR_PLLM) != RCC_OscInitStruct->PLL.PLLM) ||
 756              		.loc 1 544 0 discriminator 1
 757 0484 FB68     		ldr	r3, [r7, #12]
 758 0486 03F03F02 		and	r2, r3, #63
 759 048a 7B68     		ldr	r3, [r7, #4]
 760 048c 1B6A     		ldr	r3, [r3, #32]
 543:../../../../dependencies/stm/STM32F4_Cube/Drivers/STM32F4xx_HAL_Driver/Src/stm32f4xx_hal_rcc.c ****         if((READ_BIT(pll_config, RCC_PLLCFGR_PLLSRC) != RCC_OscInitStruct->PLL.PLLSource) ||
 761              		.loc 1 543 0 discriminator 1
 762 048e 9A42     		cmp	r2, r3
 763 0490 15D1     		bne	.L57
 545:../../../../dependencies/stm/STM32F4_Cube/Drivers/STM32F4xx_HAL_Driver/Src/stm32f4xx_hal_rcc.c ****            (READ_BIT(pll_config, RCC_PLLCFGR_PLLN) != RCC_OscInitStruct->PLL.PLLN) ||
 764              		.loc 1 545 0
 765 0492 FA68     		ldr	r2, [r7, #12]
 766 0494 47F6C073 		movw	r3, #32704
 767 0498 1340     		ands	r3, r3, r2
 768 049a 7A68     		ldr	r2, [r7, #4]
 769 049c 526A     		ldr	r2, [r2, #36]
 544:../../../../dependencies/stm/STM32F4_Cube/Drivers/STM32F4xx_HAL_Driver/Src/stm32f4xx_hal_rcc.c ****            (READ_BIT(pll_config, RCC_PLLCFGR_PLLM) != RCC_OscInitStruct->PLL.PLLM) ||
 770              		.loc 1 544 0
 771 049e 9342     		cmp	r3, r2
 772 04a0 0DD1     		bne	.L57
 546:../../../../dependencies/stm/STM32F4_Cube/Drivers/STM32F4xx_HAL_Driver/Src/stm32f4xx_hal_rcc.c ****            (READ_BIT(pll_config, RCC_PLLCFGR_PLLP) != RCC_OscInitStruct->PLL.PLLP) ||
 773              		.loc 1 546 0
 774 04a2 FB68     		ldr	r3, [r7, #12]
 775 04a4 03F44032 		and	r2, r3, #196608
 776 04a8 7B68     		ldr	r3, [r7, #4]
 777 04aa 9B6A     		ldr	r3, [r3, #40]
 545:../../../../dependencies/stm/STM32F4_Cube/Drivers/STM32F4xx_HAL_Driver/Src/stm32f4xx_hal_rcc.c ****            (READ_BIT(pll_config, RCC_PLLCFGR_PLLN) != RCC_OscInitStruct->PLL.PLLN) ||
 778              		.loc 1 545 0
 779 04ac 9A42     		cmp	r2, r3
 780 04ae 06D1     		bne	.L57
 547:../../../../dependencies/stm/STM32F4_Cube/Drivers/STM32F4xx_HAL_Driver/Src/stm32f4xx_hal_rcc.c ****            (READ_BIT(pll_config, RCC_PLLCFGR_PLLQ) != RCC_OscInitStruct->PLL.PLLQ))
 781              		.loc 1 547 0
 782 04b0 FB68     		ldr	r3, [r7, #12]
 783 04b2 03F07062 		and	r2, r3, #251658240
 784 04b6 7B68     		ldr	r3, [r7, #4]
 785 04b8 DB6A     		ldr	r3, [r3, #44]
 546:../../../../dependencies/stm/STM32F4_Cube/Drivers/STM32F4xx_HAL_Driver/Src/stm32f4xx_hal_rcc.c ****            (READ_BIT(pll_config, RCC_PLLCFGR_PLLP) != RCC_OscInitStruct->PLL.PLLP) ||
 786              		.loc 1 546 0
 787 04ba 9A42     		cmp	r2, r3
 788 04bc 01D0     		beq	.L47
 789              	.L57:
 548:../../../../dependencies/stm/STM32F4_Cube/Drivers/STM32F4xx_HAL_Driver/Src/stm32f4xx_hal_rcc.c ****         {
 549:../../../../dependencies/stm/STM32F4_Cube/Drivers/STM32F4xx_HAL_Driver/Src/stm32f4xx_hal_rcc.c ****           return HAL_ERROR;
 790              		.loc 1 549 0
 791 04be 0123     		movs	r3, #1
 792 04c0 00E0     		b	.L5
 793              	.L47:
 550:../../../../dependencies/stm/STM32F4_Cube/Drivers/STM32F4xx_HAL_Driver/Src/stm32f4xx_hal_rcc.c ****         }
 551:../../../../dependencies/stm/STM32F4_Cube/Drivers/STM32F4xx_HAL_Driver/Src/stm32f4xx_hal_rcc.c ****       }
 552:../../../../dependencies/stm/STM32F4_Cube/Drivers/STM32F4xx_HAL_Driver/Src/stm32f4xx_hal_rcc.c ****     }
 553:../../../../dependencies/stm/STM32F4_Cube/Drivers/STM32F4xx_HAL_Driver/Src/stm32f4xx_hal_rcc.c ****   }
 554:../../../../dependencies/stm/STM32F4_Cube/Drivers/STM32F4xx_HAL_Driver/Src/stm32f4xx_hal_rcc.c ****   return HAL_OK;
 794              		.loc 1 554 0
 795 04c2 0023     		movs	r3, #0
 796              	.L5:
 555:../../../../dependencies/stm/STM32F4_Cube/Drivers/STM32F4xx_HAL_Driver/Src/stm32f4xx_hal_rcc.c **** }
ARM GAS  /var/folders/_8/_cw6l3nd335f_j6cn6z79m4m0000gn/T//ccTXFGg6.s 			page 25


 797              		.loc 1 555 0
 798 04c4 1846     		mov	r0, r3
 799 04c6 1837     		adds	r7, r7, #24
 800              	.LCFI7:
 801              		.cfi_def_cfa_offset 8
 802 04c8 BD46     		mov	sp, r7
 803              	.LCFI8:
 804              		.cfi_def_cfa_register 13
 805              		@ sp needed
 806 04ca 80BD     		pop	{r7, pc}
 807              	.L61:
 808              		.align	2
 809              	.L60:
 810 04cc 00700040 		.word	1073770496
 811 04d0 00380240 		.word	1073887232
 812 04d4 60004742 		.word	1111949408
 813              		.cfi_endproc
 814              	.LFE131:
 816              		.section	.text.HAL_RCC_ClockConfig,"ax",%progbits
 817              		.align	2
 818              		.global	HAL_RCC_ClockConfig
 819              		.thumb
 820              		.thumb_func
 822              	HAL_RCC_ClockConfig:
 823              	.LFB132:
 556:../../../../dependencies/stm/STM32F4_Cube/Drivers/STM32F4xx_HAL_Driver/Src/stm32f4xx_hal_rcc.c **** 
 557:../../../../dependencies/stm/STM32F4_Cube/Drivers/STM32F4xx_HAL_Driver/Src/stm32f4xx_hal_rcc.c **** /**
 558:../../../../dependencies/stm/STM32F4_Cube/Drivers/STM32F4xx_HAL_Driver/Src/stm32f4xx_hal_rcc.c ****   * @brief  Initializes the CPU, AHB and APB busses clocks according to the specified
 559:../../../../dependencies/stm/STM32F4_Cube/Drivers/STM32F4xx_HAL_Driver/Src/stm32f4xx_hal_rcc.c ****   *         parameters in the RCC_ClkInitStruct.
 560:../../../../dependencies/stm/STM32F4_Cube/Drivers/STM32F4xx_HAL_Driver/Src/stm32f4xx_hal_rcc.c ****   * @param  RCC_ClkInitStruct pointer to an RCC_OscInitTypeDef structure that
 561:../../../../dependencies/stm/STM32F4_Cube/Drivers/STM32F4xx_HAL_Driver/Src/stm32f4xx_hal_rcc.c ****   *         contains the configuration information for the RCC peripheral.
 562:../../../../dependencies/stm/STM32F4_Cube/Drivers/STM32F4xx_HAL_Driver/Src/stm32f4xx_hal_rcc.c ****   * @param  FLatency FLASH Latency, this parameter depend on device selected
 563:../../../../dependencies/stm/STM32F4_Cube/Drivers/STM32F4xx_HAL_Driver/Src/stm32f4xx_hal_rcc.c ****   *
 564:../../../../dependencies/stm/STM32F4_Cube/Drivers/STM32F4xx_HAL_Driver/Src/stm32f4xx_hal_rcc.c ****   * @note   The SystemCoreClock CMSIS variable is used to store System Clock Frequency
 565:../../../../dependencies/stm/STM32F4_Cube/Drivers/STM32F4xx_HAL_Driver/Src/stm32f4xx_hal_rcc.c ****   *         and updated by HAL_RCC_GetHCLKFreq() function called within this function
 566:../../../../dependencies/stm/STM32F4_Cube/Drivers/STM32F4xx_HAL_Driver/Src/stm32f4xx_hal_rcc.c ****   *
 567:../../../../dependencies/stm/STM32F4_Cube/Drivers/STM32F4xx_HAL_Driver/Src/stm32f4xx_hal_rcc.c ****   * @note   The HSI is used (enabled by hardware) as system clock source after
 568:../../../../dependencies/stm/STM32F4_Cube/Drivers/STM32F4xx_HAL_Driver/Src/stm32f4xx_hal_rcc.c ****   *         startup from Reset, wake-up from STOP and STANDBY mode, or in case
 569:../../../../dependencies/stm/STM32F4_Cube/Drivers/STM32F4xx_HAL_Driver/Src/stm32f4xx_hal_rcc.c ****   *         of failure of the HSE used directly or indirectly as system clock
 570:../../../../dependencies/stm/STM32F4_Cube/Drivers/STM32F4xx_HAL_Driver/Src/stm32f4xx_hal_rcc.c ****   *         (if the Clock Security System CSS is enabled).
 571:../../../../dependencies/stm/STM32F4_Cube/Drivers/STM32F4xx_HAL_Driver/Src/stm32f4xx_hal_rcc.c ****   *
 572:../../../../dependencies/stm/STM32F4_Cube/Drivers/STM32F4xx_HAL_Driver/Src/stm32f4xx_hal_rcc.c ****   * @note   A switch from one clock source to another occurs only if the target
 573:../../../../dependencies/stm/STM32F4_Cube/Drivers/STM32F4xx_HAL_Driver/Src/stm32f4xx_hal_rcc.c ****   *         clock source is ready (clock stable after startup delay or PLL locked).
 574:../../../../dependencies/stm/STM32F4_Cube/Drivers/STM32F4xx_HAL_Driver/Src/stm32f4xx_hal_rcc.c ****   *         If a clock source which is not yet ready is selected, the switch will
 575:../../../../dependencies/stm/STM32F4_Cube/Drivers/STM32F4xx_HAL_Driver/Src/stm32f4xx_hal_rcc.c ****   *         occur when the clock source will be ready.
 576:../../../../dependencies/stm/STM32F4_Cube/Drivers/STM32F4xx_HAL_Driver/Src/stm32f4xx_hal_rcc.c ****   *
 577:../../../../dependencies/stm/STM32F4_Cube/Drivers/STM32F4xx_HAL_Driver/Src/stm32f4xx_hal_rcc.c ****   * @note   Depending on the device voltage range, the software has to set correctly
 578:../../../../dependencies/stm/STM32F4_Cube/Drivers/STM32F4xx_HAL_Driver/Src/stm32f4xx_hal_rcc.c ****   *         HPRE[3:0] bits to ensure that HCLK not exceed the maximum allowed frequency
 579:../../../../dependencies/stm/STM32F4_Cube/Drivers/STM32F4xx_HAL_Driver/Src/stm32f4xx_hal_rcc.c ****   *         (for more details refer to section above "Initialization/de-initialization functions")
 580:../../../../dependencies/stm/STM32F4_Cube/Drivers/STM32F4xx_HAL_Driver/Src/stm32f4xx_hal_rcc.c ****   * @retval None
 581:../../../../dependencies/stm/STM32F4_Cube/Drivers/STM32F4xx_HAL_Driver/Src/stm32f4xx_hal_rcc.c ****   */
 582:../../../../dependencies/stm/STM32F4_Cube/Drivers/STM32F4xx_HAL_Driver/Src/stm32f4xx_hal_rcc.c **** HAL_StatusTypeDef HAL_RCC_ClockConfig(RCC_ClkInitTypeDef  *RCC_ClkInitStruct, uint32_t FLatency)
 583:../../../../dependencies/stm/STM32F4_Cube/Drivers/STM32F4xx_HAL_Driver/Src/stm32f4xx_hal_rcc.c **** {
 824              		.loc 1 583 0
 825              		.cfi_startproc
 826              		@ args = 0, pretend = 0, frame = 16
 827              		@ frame_needed = 1, uses_anonymous_args = 0
ARM GAS  /var/folders/_8/_cw6l3nd335f_j6cn6z79m4m0000gn/T//ccTXFGg6.s 			page 26


 828 0000 80B5     		push	{r7, lr}
 829              	.LCFI9:
 830              		.cfi_def_cfa_offset 8
 831              		.cfi_offset 7, -8
 832              		.cfi_offset 14, -4
 833 0002 84B0     		sub	sp, sp, #16
 834              	.LCFI10:
 835              		.cfi_def_cfa_offset 24
 836 0004 00AF     		add	r7, sp, #0
 837              	.LCFI11:
 838              		.cfi_def_cfa_register 7
 839 0006 7860     		str	r0, [r7, #4]
 840 0008 3960     		str	r1, [r7]
 584:../../../../dependencies/stm/STM32F4_Cube/Drivers/STM32F4xx_HAL_Driver/Src/stm32f4xx_hal_rcc.c ****   uint32_t tickstart;
 585:../../../../dependencies/stm/STM32F4_Cube/Drivers/STM32F4xx_HAL_Driver/Src/stm32f4xx_hal_rcc.c **** 
 586:../../../../dependencies/stm/STM32F4_Cube/Drivers/STM32F4xx_HAL_Driver/Src/stm32f4xx_hal_rcc.c ****   /* Check Null pointer */
 587:../../../../dependencies/stm/STM32F4_Cube/Drivers/STM32F4xx_HAL_Driver/Src/stm32f4xx_hal_rcc.c ****   if(RCC_ClkInitStruct == NULL)
 841              		.loc 1 587 0
 842 000a 7B68     		ldr	r3, [r7, #4]
 843 000c 002B     		cmp	r3, #0
 844 000e 01D1     		bne	.L63
 588:../../../../dependencies/stm/STM32F4_Cube/Drivers/STM32F4xx_HAL_Driver/Src/stm32f4xx_hal_rcc.c ****   {
 589:../../../../dependencies/stm/STM32F4_Cube/Drivers/STM32F4xx_HAL_Driver/Src/stm32f4xx_hal_rcc.c ****     return HAL_ERROR;
 845              		.loc 1 589 0
 846 0010 0123     		movs	r3, #1
 847 0012 CDE0     		b	.L64
 848              	.L63:
 590:../../../../dependencies/stm/STM32F4_Cube/Drivers/STM32F4xx_HAL_Driver/Src/stm32f4xx_hal_rcc.c ****   }
 591:../../../../dependencies/stm/STM32F4_Cube/Drivers/STM32F4xx_HAL_Driver/Src/stm32f4xx_hal_rcc.c **** 
 592:../../../../dependencies/stm/STM32F4_Cube/Drivers/STM32F4xx_HAL_Driver/Src/stm32f4xx_hal_rcc.c ****   /* Check the parameters */
 593:../../../../dependencies/stm/STM32F4_Cube/Drivers/STM32F4xx_HAL_Driver/Src/stm32f4xx_hal_rcc.c ****   assert_param(IS_RCC_CLOCKTYPE(RCC_ClkInitStruct->ClockType));
 594:../../../../dependencies/stm/STM32F4_Cube/Drivers/STM32F4xx_HAL_Driver/Src/stm32f4xx_hal_rcc.c ****   assert_param(IS_FLASH_LATENCY(FLatency));
 595:../../../../dependencies/stm/STM32F4_Cube/Drivers/STM32F4xx_HAL_Driver/Src/stm32f4xx_hal_rcc.c **** 
 596:../../../../dependencies/stm/STM32F4_Cube/Drivers/STM32F4xx_HAL_Driver/Src/stm32f4xx_hal_rcc.c ****   /* To correctly read data from FLASH memory, the number of wait states (LATENCY)
 597:../../../../dependencies/stm/STM32F4_Cube/Drivers/STM32F4xx_HAL_Driver/Src/stm32f4xx_hal_rcc.c ****     must be correctly programmed according to the frequency of the CPU clock
 598:../../../../dependencies/stm/STM32F4_Cube/Drivers/STM32F4xx_HAL_Driver/Src/stm32f4xx_hal_rcc.c ****     (HCLK) and the supply voltage of the device. */
 599:../../../../dependencies/stm/STM32F4_Cube/Drivers/STM32F4xx_HAL_Driver/Src/stm32f4xx_hal_rcc.c **** 
 600:../../../../dependencies/stm/STM32F4_Cube/Drivers/STM32F4xx_HAL_Driver/Src/stm32f4xx_hal_rcc.c ****   /* Increasing the number of wait states because of higher CPU frequency */
 601:../../../../dependencies/stm/STM32F4_Cube/Drivers/STM32F4xx_HAL_Driver/Src/stm32f4xx_hal_rcc.c ****   if(FLatency > __HAL_FLASH_GET_LATENCY())
 849              		.loc 1 601 0
 850 0014 684B     		ldr	r3, .L80
 851 0016 1B68     		ldr	r3, [r3]
 852 0018 03F00F02 		and	r2, r3, #15
 853 001c 3B68     		ldr	r3, [r7]
 854 001e 9A42     		cmp	r2, r3
 855 0020 0CD2     		bcs	.L65
 602:../../../../dependencies/stm/STM32F4_Cube/Drivers/STM32F4xx_HAL_Driver/Src/stm32f4xx_hal_rcc.c ****   {
 603:../../../../dependencies/stm/STM32F4_Cube/Drivers/STM32F4xx_HAL_Driver/Src/stm32f4xx_hal_rcc.c ****     /* Program the new number of wait states to the LATENCY bits in the FLASH_ACR register */
 604:../../../../dependencies/stm/STM32F4_Cube/Drivers/STM32F4xx_HAL_Driver/Src/stm32f4xx_hal_rcc.c ****     __HAL_FLASH_SET_LATENCY(FLatency);
 856              		.loc 1 604 0
 857 0022 654B     		ldr	r3, .L80
 858 0024 3A68     		ldr	r2, [r7]
 859 0026 D2B2     		uxtb	r2, r2
 860 0028 1A70     		strb	r2, [r3]
 605:../../../../dependencies/stm/STM32F4_Cube/Drivers/STM32F4xx_HAL_Driver/Src/stm32f4xx_hal_rcc.c **** 
 606:../../../../dependencies/stm/STM32F4_Cube/Drivers/STM32F4xx_HAL_Driver/Src/stm32f4xx_hal_rcc.c ****     /* Check that the new number of wait states is taken into account to access the Flash
 607:../../../../dependencies/stm/STM32F4_Cube/Drivers/STM32F4xx_HAL_Driver/Src/stm32f4xx_hal_rcc.c ****     memory by reading the FLASH_ACR register */
ARM GAS  /var/folders/_8/_cw6l3nd335f_j6cn6z79m4m0000gn/T//ccTXFGg6.s 			page 27


 608:../../../../dependencies/stm/STM32F4_Cube/Drivers/STM32F4xx_HAL_Driver/Src/stm32f4xx_hal_rcc.c ****     if(__HAL_FLASH_GET_LATENCY() != FLatency)
 861              		.loc 1 608 0
 862 002a 634B     		ldr	r3, .L80
 863 002c 1B68     		ldr	r3, [r3]
 864 002e 03F00F02 		and	r2, r3, #15
 865 0032 3B68     		ldr	r3, [r7]
 866 0034 9A42     		cmp	r2, r3
 867 0036 01D0     		beq	.L65
 609:../../../../dependencies/stm/STM32F4_Cube/Drivers/STM32F4xx_HAL_Driver/Src/stm32f4xx_hal_rcc.c ****     {
 610:../../../../dependencies/stm/STM32F4_Cube/Drivers/STM32F4xx_HAL_Driver/Src/stm32f4xx_hal_rcc.c ****       return HAL_ERROR;
 868              		.loc 1 610 0
 869 0038 0123     		movs	r3, #1
 870 003a B9E0     		b	.L64
 871              	.L65:
 611:../../../../dependencies/stm/STM32F4_Cube/Drivers/STM32F4xx_HAL_Driver/Src/stm32f4xx_hal_rcc.c ****     }
 612:../../../../dependencies/stm/STM32F4_Cube/Drivers/STM32F4xx_HAL_Driver/Src/stm32f4xx_hal_rcc.c ****   }
 613:../../../../dependencies/stm/STM32F4_Cube/Drivers/STM32F4xx_HAL_Driver/Src/stm32f4xx_hal_rcc.c **** 
 614:../../../../dependencies/stm/STM32F4_Cube/Drivers/STM32F4xx_HAL_Driver/Src/stm32f4xx_hal_rcc.c ****   /*-------------------------- HCLK Configuration --------------------------*/
 615:../../../../dependencies/stm/STM32F4_Cube/Drivers/STM32F4xx_HAL_Driver/Src/stm32f4xx_hal_rcc.c ****   if(((RCC_ClkInitStruct->ClockType) & RCC_CLOCKTYPE_HCLK) == RCC_CLOCKTYPE_HCLK)
 872              		.loc 1 615 0
 873 003c 7B68     		ldr	r3, [r7, #4]
 874 003e 1B68     		ldr	r3, [r3]
 875 0040 03F00203 		and	r3, r3, #2
 876 0044 002B     		cmp	r3, #0
 877 0046 20D0     		beq	.L66
 616:../../../../dependencies/stm/STM32F4_Cube/Drivers/STM32F4xx_HAL_Driver/Src/stm32f4xx_hal_rcc.c ****   {
 617:../../../../dependencies/stm/STM32F4_Cube/Drivers/STM32F4xx_HAL_Driver/Src/stm32f4xx_hal_rcc.c ****     /* Set the highest APBx dividers in order to ensure that we do not go through
 618:../../../../dependencies/stm/STM32F4_Cube/Drivers/STM32F4xx_HAL_Driver/Src/stm32f4xx_hal_rcc.c ****        a non-spec phase whatever we decrease or increase HCLK. */
 619:../../../../dependencies/stm/STM32F4_Cube/Drivers/STM32F4xx_HAL_Driver/Src/stm32f4xx_hal_rcc.c ****     if(((RCC_ClkInitStruct->ClockType) & RCC_CLOCKTYPE_PCLK1) == RCC_CLOCKTYPE_PCLK1)
 878              		.loc 1 619 0
 879 0048 7B68     		ldr	r3, [r7, #4]
 880 004a 1B68     		ldr	r3, [r3]
 881 004c 03F00403 		and	r3, r3, #4
 882 0050 002B     		cmp	r3, #0
 883 0052 05D0     		beq	.L67
 620:../../../../dependencies/stm/STM32F4_Cube/Drivers/STM32F4xx_HAL_Driver/Src/stm32f4xx_hal_rcc.c ****     {
 621:../../../../dependencies/stm/STM32F4_Cube/Drivers/STM32F4xx_HAL_Driver/Src/stm32f4xx_hal_rcc.c ****       MODIFY_REG(RCC->CFGR, RCC_CFGR_PPRE1, RCC_HCLK_DIV16);
 884              		.loc 1 621 0
 885 0054 594A     		ldr	r2, .L80+4
 886 0056 594B     		ldr	r3, .L80+4
 887 0058 9B68     		ldr	r3, [r3, #8]
 888 005a 43F4E053 		orr	r3, r3, #7168
 889 005e 9360     		str	r3, [r2, #8]
 890              	.L67:
 622:../../../../dependencies/stm/STM32F4_Cube/Drivers/STM32F4xx_HAL_Driver/Src/stm32f4xx_hal_rcc.c ****     }
 623:../../../../dependencies/stm/STM32F4_Cube/Drivers/STM32F4xx_HAL_Driver/Src/stm32f4xx_hal_rcc.c **** 
 624:../../../../dependencies/stm/STM32F4_Cube/Drivers/STM32F4xx_HAL_Driver/Src/stm32f4xx_hal_rcc.c ****     if(((RCC_ClkInitStruct->ClockType) & RCC_CLOCKTYPE_PCLK2) == RCC_CLOCKTYPE_PCLK2)
 891              		.loc 1 624 0
 892 0060 7B68     		ldr	r3, [r7, #4]
 893 0062 1B68     		ldr	r3, [r3]
 894 0064 03F00803 		and	r3, r3, #8
 895 0068 002B     		cmp	r3, #0
 896 006a 05D0     		beq	.L68
 625:../../../../dependencies/stm/STM32F4_Cube/Drivers/STM32F4xx_HAL_Driver/Src/stm32f4xx_hal_rcc.c ****     {
 626:../../../../dependencies/stm/STM32F4_Cube/Drivers/STM32F4xx_HAL_Driver/Src/stm32f4xx_hal_rcc.c ****       MODIFY_REG(RCC->CFGR, RCC_CFGR_PPRE2, (RCC_HCLK_DIV16 << 3));
 897              		.loc 1 626 0
 898 006c 534A     		ldr	r2, .L80+4
ARM GAS  /var/folders/_8/_cw6l3nd335f_j6cn6z79m4m0000gn/T//ccTXFGg6.s 			page 28


 899 006e 534B     		ldr	r3, .L80+4
 900 0070 9B68     		ldr	r3, [r3, #8]
 901 0072 43F46043 		orr	r3, r3, #57344
 902 0076 9360     		str	r3, [r2, #8]
 903              	.L68:
 627:../../../../dependencies/stm/STM32F4_Cube/Drivers/STM32F4xx_HAL_Driver/Src/stm32f4xx_hal_rcc.c ****     }
 628:../../../../dependencies/stm/STM32F4_Cube/Drivers/STM32F4xx_HAL_Driver/Src/stm32f4xx_hal_rcc.c **** 
 629:../../../../dependencies/stm/STM32F4_Cube/Drivers/STM32F4xx_HAL_Driver/Src/stm32f4xx_hal_rcc.c ****     assert_param(IS_RCC_HCLK(RCC_ClkInitStruct->AHBCLKDivider));
 630:../../../../dependencies/stm/STM32F4_Cube/Drivers/STM32F4xx_HAL_Driver/Src/stm32f4xx_hal_rcc.c ****     MODIFY_REG(RCC->CFGR, RCC_CFGR_HPRE, RCC_ClkInitStruct->AHBCLKDivider);
 904              		.loc 1 630 0
 905 0078 5049     		ldr	r1, .L80+4
 906 007a 504B     		ldr	r3, .L80+4
 907 007c 9B68     		ldr	r3, [r3, #8]
 908 007e 23F0F002 		bic	r2, r3, #240
 909 0082 7B68     		ldr	r3, [r7, #4]
 910 0084 9B68     		ldr	r3, [r3, #8]
 911 0086 1343     		orrs	r3, r3, r2
 912 0088 8B60     		str	r3, [r1, #8]
 913              	.L66:
 631:../../../../dependencies/stm/STM32F4_Cube/Drivers/STM32F4xx_HAL_Driver/Src/stm32f4xx_hal_rcc.c ****   }
 632:../../../../dependencies/stm/STM32F4_Cube/Drivers/STM32F4xx_HAL_Driver/Src/stm32f4xx_hal_rcc.c **** 
 633:../../../../dependencies/stm/STM32F4_Cube/Drivers/STM32F4xx_HAL_Driver/Src/stm32f4xx_hal_rcc.c ****   /*------------------------- SYSCLK Configuration ---------------------------*/
 634:../../../../dependencies/stm/STM32F4_Cube/Drivers/STM32F4xx_HAL_Driver/Src/stm32f4xx_hal_rcc.c ****   if(((RCC_ClkInitStruct->ClockType) & RCC_CLOCKTYPE_SYSCLK) == RCC_CLOCKTYPE_SYSCLK)
 914              		.loc 1 634 0
 915 008a 7B68     		ldr	r3, [r7, #4]
 916 008c 1B68     		ldr	r3, [r3]
 917 008e 03F00103 		and	r3, r3, #1
 918 0092 002B     		cmp	r3, #0
 919 0094 45D0     		beq	.L69
 635:../../../../dependencies/stm/STM32F4_Cube/Drivers/STM32F4xx_HAL_Driver/Src/stm32f4xx_hal_rcc.c ****   {
 636:../../../../dependencies/stm/STM32F4_Cube/Drivers/STM32F4xx_HAL_Driver/Src/stm32f4xx_hal_rcc.c ****     assert_param(IS_RCC_SYSCLKSOURCE(RCC_ClkInitStruct->SYSCLKSource));
 637:../../../../dependencies/stm/STM32F4_Cube/Drivers/STM32F4xx_HAL_Driver/Src/stm32f4xx_hal_rcc.c **** 
 638:../../../../dependencies/stm/STM32F4_Cube/Drivers/STM32F4xx_HAL_Driver/Src/stm32f4xx_hal_rcc.c ****     /* HSE is selected as System Clock Source */
 639:../../../../dependencies/stm/STM32F4_Cube/Drivers/STM32F4xx_HAL_Driver/Src/stm32f4xx_hal_rcc.c ****     if(RCC_ClkInitStruct->SYSCLKSource == RCC_SYSCLKSOURCE_HSE)
 920              		.loc 1 639 0
 921 0096 7B68     		ldr	r3, [r7, #4]
 922 0098 5B68     		ldr	r3, [r3, #4]
 923 009a 012B     		cmp	r3, #1
 924 009c 07D1     		bne	.L70
 640:../../../../dependencies/stm/STM32F4_Cube/Drivers/STM32F4xx_HAL_Driver/Src/stm32f4xx_hal_rcc.c ****     {
 641:../../../../dependencies/stm/STM32F4_Cube/Drivers/STM32F4xx_HAL_Driver/Src/stm32f4xx_hal_rcc.c ****       /* Check the HSE ready flag */
 642:../../../../dependencies/stm/STM32F4_Cube/Drivers/STM32F4xx_HAL_Driver/Src/stm32f4xx_hal_rcc.c ****       if(__HAL_RCC_GET_FLAG(RCC_FLAG_HSERDY) == RESET)
 925              		.loc 1 642 0
 926 009e 474B     		ldr	r3, .L80+4
 927 00a0 1B68     		ldr	r3, [r3]
 928 00a2 03F40033 		and	r3, r3, #131072
 929 00a6 002B     		cmp	r3, #0
 930 00a8 1AD1     		bne	.L71
 643:../../../../dependencies/stm/STM32F4_Cube/Drivers/STM32F4xx_HAL_Driver/Src/stm32f4xx_hal_rcc.c ****       {
 644:../../../../dependencies/stm/STM32F4_Cube/Drivers/STM32F4xx_HAL_Driver/Src/stm32f4xx_hal_rcc.c ****         return HAL_ERROR;
 931              		.loc 1 644 0
 932 00aa 0123     		movs	r3, #1
 933 00ac 80E0     		b	.L64
 934              	.L70:
 645:../../../../dependencies/stm/STM32F4_Cube/Drivers/STM32F4xx_HAL_Driver/Src/stm32f4xx_hal_rcc.c ****       }
 646:../../../../dependencies/stm/STM32F4_Cube/Drivers/STM32F4xx_HAL_Driver/Src/stm32f4xx_hal_rcc.c ****     }
 647:../../../../dependencies/stm/STM32F4_Cube/Drivers/STM32F4xx_HAL_Driver/Src/stm32f4xx_hal_rcc.c ****     /* PLL is selected as System Clock Source */
ARM GAS  /var/folders/_8/_cw6l3nd335f_j6cn6z79m4m0000gn/T//ccTXFGg6.s 			page 29


 648:../../../../dependencies/stm/STM32F4_Cube/Drivers/STM32F4xx_HAL_Driver/Src/stm32f4xx_hal_rcc.c ****     else if((RCC_ClkInitStruct->SYSCLKSource == RCC_SYSCLKSOURCE_PLLCLK)   ||
 935              		.loc 1 648 0
 936 00ae 7B68     		ldr	r3, [r7, #4]
 937 00b0 5B68     		ldr	r3, [r3, #4]
 938 00b2 022B     		cmp	r3, #2
 939 00b4 03D0     		beq	.L72
 649:../../../../dependencies/stm/STM32F4_Cube/Drivers/STM32F4xx_HAL_Driver/Src/stm32f4xx_hal_rcc.c ****             (RCC_ClkInitStruct->SYSCLKSource == RCC_SYSCLKSOURCE_PLLRCLK))
 940              		.loc 1 649 0 discriminator 1
 941 00b6 7B68     		ldr	r3, [r7, #4]
 942 00b8 5B68     		ldr	r3, [r3, #4]
 648:../../../../dependencies/stm/STM32F4_Cube/Drivers/STM32F4xx_HAL_Driver/Src/stm32f4xx_hal_rcc.c ****             (RCC_ClkInitStruct->SYSCLKSource == RCC_SYSCLKSOURCE_PLLRCLK))
 943              		.loc 1 648 0 discriminator 1
 944 00ba 032B     		cmp	r3, #3
 945 00bc 08D1     		bne	.L73
 946              	.L72:
 650:../../../../dependencies/stm/STM32F4_Cube/Drivers/STM32F4xx_HAL_Driver/Src/stm32f4xx_hal_rcc.c ****     {
 651:../../../../dependencies/stm/STM32F4_Cube/Drivers/STM32F4xx_HAL_Driver/Src/stm32f4xx_hal_rcc.c ****       /* Check the PLL ready flag */
 652:../../../../dependencies/stm/STM32F4_Cube/Drivers/STM32F4xx_HAL_Driver/Src/stm32f4xx_hal_rcc.c ****       if(__HAL_RCC_GET_FLAG(RCC_FLAG_PLLRDY) == RESET)
 947              		.loc 1 652 0
 948 00be 3F4B     		ldr	r3, .L80+4
 949 00c0 1B68     		ldr	r3, [r3]
 950 00c2 03F00073 		and	r3, r3, #33554432
 951 00c6 002B     		cmp	r3, #0
 952 00c8 01D1     		bne	.L74
 653:../../../../dependencies/stm/STM32F4_Cube/Drivers/STM32F4xx_HAL_Driver/Src/stm32f4xx_hal_rcc.c ****       {
 654:../../../../dependencies/stm/STM32F4_Cube/Drivers/STM32F4xx_HAL_Driver/Src/stm32f4xx_hal_rcc.c ****         return HAL_ERROR;
 953              		.loc 1 654 0
 954 00ca 0123     		movs	r3, #1
 955 00cc 70E0     		b	.L64
 956              	.L74:
 652:../../../../dependencies/stm/STM32F4_Cube/Drivers/STM32F4xx_HAL_Driver/Src/stm32f4xx_hal_rcc.c ****       {
 957              		.loc 1 652 0
 958 00ce 07E0     		b	.L71
 959              	.L73:
 655:../../../../dependencies/stm/STM32F4_Cube/Drivers/STM32F4xx_HAL_Driver/Src/stm32f4xx_hal_rcc.c ****       }
 656:../../../../dependencies/stm/STM32F4_Cube/Drivers/STM32F4xx_HAL_Driver/Src/stm32f4xx_hal_rcc.c ****     }
 657:../../../../dependencies/stm/STM32F4_Cube/Drivers/STM32F4xx_HAL_Driver/Src/stm32f4xx_hal_rcc.c ****     /* HSI is selected as System Clock Source */
 658:../../../../dependencies/stm/STM32F4_Cube/Drivers/STM32F4xx_HAL_Driver/Src/stm32f4xx_hal_rcc.c ****     else
 659:../../../../dependencies/stm/STM32F4_Cube/Drivers/STM32F4xx_HAL_Driver/Src/stm32f4xx_hal_rcc.c ****     {
 660:../../../../dependencies/stm/STM32F4_Cube/Drivers/STM32F4xx_HAL_Driver/Src/stm32f4xx_hal_rcc.c ****       /* Check the HSI ready flag */
 661:../../../../dependencies/stm/STM32F4_Cube/Drivers/STM32F4xx_HAL_Driver/Src/stm32f4xx_hal_rcc.c ****       if(__HAL_RCC_GET_FLAG(RCC_FLAG_HSIRDY) == RESET)
 960              		.loc 1 661 0
 961 00d0 3A4B     		ldr	r3, .L80+4
 962 00d2 1B68     		ldr	r3, [r3]
 963 00d4 03F00203 		and	r3, r3, #2
 964 00d8 002B     		cmp	r3, #0
 965 00da 01D1     		bne	.L71
 662:../../../../dependencies/stm/STM32F4_Cube/Drivers/STM32F4xx_HAL_Driver/Src/stm32f4xx_hal_rcc.c ****       {
 663:../../../../dependencies/stm/STM32F4_Cube/Drivers/STM32F4xx_HAL_Driver/Src/stm32f4xx_hal_rcc.c ****         return HAL_ERROR;
 966              		.loc 1 663 0
 967 00dc 0123     		movs	r3, #1
 968 00de 67E0     		b	.L64
 969              	.L71:
 664:../../../../dependencies/stm/STM32F4_Cube/Drivers/STM32F4xx_HAL_Driver/Src/stm32f4xx_hal_rcc.c ****       }
 665:../../../../dependencies/stm/STM32F4_Cube/Drivers/STM32F4xx_HAL_Driver/Src/stm32f4xx_hal_rcc.c ****     }
 666:../../../../dependencies/stm/STM32F4_Cube/Drivers/STM32F4xx_HAL_Driver/Src/stm32f4xx_hal_rcc.c **** 
 667:../../../../dependencies/stm/STM32F4_Cube/Drivers/STM32F4xx_HAL_Driver/Src/stm32f4xx_hal_rcc.c ****     __HAL_RCC_SYSCLK_CONFIG(RCC_ClkInitStruct->SYSCLKSource);
ARM GAS  /var/folders/_8/_cw6l3nd335f_j6cn6z79m4m0000gn/T//ccTXFGg6.s 			page 30


 970              		.loc 1 667 0
 971 00e0 3649     		ldr	r1, .L80+4
 972 00e2 364B     		ldr	r3, .L80+4
 973 00e4 9B68     		ldr	r3, [r3, #8]
 974 00e6 23F00302 		bic	r2, r3, #3
 975 00ea 7B68     		ldr	r3, [r7, #4]
 976 00ec 5B68     		ldr	r3, [r3, #4]
 977 00ee 1343     		orrs	r3, r3, r2
 978 00f0 8B60     		str	r3, [r1, #8]
 668:../../../../dependencies/stm/STM32F4_Cube/Drivers/STM32F4xx_HAL_Driver/Src/stm32f4xx_hal_rcc.c **** 
 669:../../../../dependencies/stm/STM32F4_Cube/Drivers/STM32F4xx_HAL_Driver/Src/stm32f4xx_hal_rcc.c ****     /* Get Start Tick */
 670:../../../../dependencies/stm/STM32F4_Cube/Drivers/STM32F4xx_HAL_Driver/Src/stm32f4xx_hal_rcc.c ****     tickstart = HAL_GetTick();
 979              		.loc 1 670 0
 980 00f2 FFF7FEFF 		bl	HAL_GetTick
 981 00f6 F860     		str	r0, [r7, #12]
 671:../../../../dependencies/stm/STM32F4_Cube/Drivers/STM32F4xx_HAL_Driver/Src/stm32f4xx_hal_rcc.c **** 
 672:../../../../dependencies/stm/STM32F4_Cube/Drivers/STM32F4xx_HAL_Driver/Src/stm32f4xx_hal_rcc.c ****     while (__HAL_RCC_GET_SYSCLK_SOURCE() != (RCC_ClkInitStruct->SYSCLKSource << RCC_CFGR_SWS_Pos))
 982              		.loc 1 672 0
 983 00f8 0AE0     		b	.L75
 984              	.L76:
 673:../../../../dependencies/stm/STM32F4_Cube/Drivers/STM32F4xx_HAL_Driver/Src/stm32f4xx_hal_rcc.c ****     {
 674:../../../../dependencies/stm/STM32F4_Cube/Drivers/STM32F4xx_HAL_Driver/Src/stm32f4xx_hal_rcc.c ****       if ((HAL_GetTick() - tickstart) > CLOCKSWITCH_TIMEOUT_VALUE)
 985              		.loc 1 674 0
 986 00fa FFF7FEFF 		bl	HAL_GetTick
 987 00fe 0246     		mov	r2, r0
 988 0100 FB68     		ldr	r3, [r7, #12]
 989 0102 D31A     		subs	r3, r2, r3
 990 0104 41F28832 		movw	r2, #5000
 991 0108 9342     		cmp	r3, r2
 992 010a 01D9     		bls	.L75
 675:../../../../dependencies/stm/STM32F4_Cube/Drivers/STM32F4xx_HAL_Driver/Src/stm32f4xx_hal_rcc.c ****       {
 676:../../../../dependencies/stm/STM32F4_Cube/Drivers/STM32F4xx_HAL_Driver/Src/stm32f4xx_hal_rcc.c ****         return HAL_TIMEOUT;
 993              		.loc 1 676 0
 994 010c 0323     		movs	r3, #3
 995 010e 4FE0     		b	.L64
 996              	.L75:
 672:../../../../dependencies/stm/STM32F4_Cube/Drivers/STM32F4xx_HAL_Driver/Src/stm32f4xx_hal_rcc.c ****     {
 997              		.loc 1 672 0
 998 0110 2A4B     		ldr	r3, .L80+4
 999 0112 9B68     		ldr	r3, [r3, #8]
 1000 0114 03F00C02 		and	r2, r3, #12
 1001 0118 7B68     		ldr	r3, [r7, #4]
 1002 011a 5B68     		ldr	r3, [r3, #4]
 1003 011c 9B00     		lsls	r3, r3, #2
 1004 011e 9A42     		cmp	r2, r3
 1005 0120 EBD1     		bne	.L76
 1006              	.L69:
 677:../../../../dependencies/stm/STM32F4_Cube/Drivers/STM32F4xx_HAL_Driver/Src/stm32f4xx_hal_rcc.c ****       }
 678:../../../../dependencies/stm/STM32F4_Cube/Drivers/STM32F4xx_HAL_Driver/Src/stm32f4xx_hal_rcc.c ****     }
 679:../../../../dependencies/stm/STM32F4_Cube/Drivers/STM32F4xx_HAL_Driver/Src/stm32f4xx_hal_rcc.c ****   }
 680:../../../../dependencies/stm/STM32F4_Cube/Drivers/STM32F4xx_HAL_Driver/Src/stm32f4xx_hal_rcc.c **** 
 681:../../../../dependencies/stm/STM32F4_Cube/Drivers/STM32F4xx_HAL_Driver/Src/stm32f4xx_hal_rcc.c ****   /* Decreasing the number of wait states because of lower CPU frequency */
 682:../../../../dependencies/stm/STM32F4_Cube/Drivers/STM32F4xx_HAL_Driver/Src/stm32f4xx_hal_rcc.c ****   if(FLatency < __HAL_FLASH_GET_LATENCY())
 1007              		.loc 1 682 0
 1008 0122 254B     		ldr	r3, .L80
 1009 0124 1B68     		ldr	r3, [r3]
 1010 0126 03F00F02 		and	r2, r3, #15
ARM GAS  /var/folders/_8/_cw6l3nd335f_j6cn6z79m4m0000gn/T//ccTXFGg6.s 			page 31


 1011 012a 3B68     		ldr	r3, [r7]
 1012 012c 9A42     		cmp	r2, r3
 1013 012e 0CD9     		bls	.L77
 683:../../../../dependencies/stm/STM32F4_Cube/Drivers/STM32F4xx_HAL_Driver/Src/stm32f4xx_hal_rcc.c ****   {
 684:../../../../dependencies/stm/STM32F4_Cube/Drivers/STM32F4xx_HAL_Driver/Src/stm32f4xx_hal_rcc.c ****      /* Program the new number of wait states to the LATENCY bits in the FLASH_ACR register */
 685:../../../../dependencies/stm/STM32F4_Cube/Drivers/STM32F4xx_HAL_Driver/Src/stm32f4xx_hal_rcc.c ****     __HAL_FLASH_SET_LATENCY(FLatency);
 1014              		.loc 1 685 0
 1015 0130 214B     		ldr	r3, .L80
 1016 0132 3A68     		ldr	r2, [r7]
 1017 0134 D2B2     		uxtb	r2, r2
 1018 0136 1A70     		strb	r2, [r3]
 686:../../../../dependencies/stm/STM32F4_Cube/Drivers/STM32F4xx_HAL_Driver/Src/stm32f4xx_hal_rcc.c **** 
 687:../../../../dependencies/stm/STM32F4_Cube/Drivers/STM32F4xx_HAL_Driver/Src/stm32f4xx_hal_rcc.c ****     /* Check that the new number of wait states is taken into account to access the Flash
 688:../../../../dependencies/stm/STM32F4_Cube/Drivers/STM32F4xx_HAL_Driver/Src/stm32f4xx_hal_rcc.c ****     memory by reading the FLASH_ACR register */
 689:../../../../dependencies/stm/STM32F4_Cube/Drivers/STM32F4xx_HAL_Driver/Src/stm32f4xx_hal_rcc.c ****     if(__HAL_FLASH_GET_LATENCY() != FLatency)
 1019              		.loc 1 689 0
 1020 0138 1F4B     		ldr	r3, .L80
 1021 013a 1B68     		ldr	r3, [r3]
 1022 013c 03F00F02 		and	r2, r3, #15
 1023 0140 3B68     		ldr	r3, [r7]
 1024 0142 9A42     		cmp	r2, r3
 1025 0144 01D0     		beq	.L77
 690:../../../../dependencies/stm/STM32F4_Cube/Drivers/STM32F4xx_HAL_Driver/Src/stm32f4xx_hal_rcc.c ****     {
 691:../../../../dependencies/stm/STM32F4_Cube/Drivers/STM32F4xx_HAL_Driver/Src/stm32f4xx_hal_rcc.c ****       return HAL_ERROR;
 1026              		.loc 1 691 0
 1027 0146 0123     		movs	r3, #1
 1028 0148 32E0     		b	.L64
 1029              	.L77:
 692:../../../../dependencies/stm/STM32F4_Cube/Drivers/STM32F4xx_HAL_Driver/Src/stm32f4xx_hal_rcc.c ****     }
 693:../../../../dependencies/stm/STM32F4_Cube/Drivers/STM32F4xx_HAL_Driver/Src/stm32f4xx_hal_rcc.c ****   }
 694:../../../../dependencies/stm/STM32F4_Cube/Drivers/STM32F4xx_HAL_Driver/Src/stm32f4xx_hal_rcc.c **** 
 695:../../../../dependencies/stm/STM32F4_Cube/Drivers/STM32F4xx_HAL_Driver/Src/stm32f4xx_hal_rcc.c ****   /*-------------------------- PCLK1 Configuration ---------------------------*/
 696:../../../../dependencies/stm/STM32F4_Cube/Drivers/STM32F4xx_HAL_Driver/Src/stm32f4xx_hal_rcc.c ****   if(((RCC_ClkInitStruct->ClockType) & RCC_CLOCKTYPE_PCLK1) == RCC_CLOCKTYPE_PCLK1)
 1030              		.loc 1 696 0
 1031 014a 7B68     		ldr	r3, [r7, #4]
 1032 014c 1B68     		ldr	r3, [r3]
 1033 014e 03F00403 		and	r3, r3, #4
 1034 0152 002B     		cmp	r3, #0
 1035 0154 08D0     		beq	.L78
 697:../../../../dependencies/stm/STM32F4_Cube/Drivers/STM32F4xx_HAL_Driver/Src/stm32f4xx_hal_rcc.c ****   {
 698:../../../../dependencies/stm/STM32F4_Cube/Drivers/STM32F4xx_HAL_Driver/Src/stm32f4xx_hal_rcc.c ****     assert_param(IS_RCC_PCLK(RCC_ClkInitStruct->APB1CLKDivider));
 699:../../../../dependencies/stm/STM32F4_Cube/Drivers/STM32F4xx_HAL_Driver/Src/stm32f4xx_hal_rcc.c ****     MODIFY_REG(RCC->CFGR, RCC_CFGR_PPRE1, RCC_ClkInitStruct->APB1CLKDivider);
 1036              		.loc 1 699 0
 1037 0156 1949     		ldr	r1, .L80+4
 1038 0158 184B     		ldr	r3, .L80+4
 1039 015a 9B68     		ldr	r3, [r3, #8]
 1040 015c 23F4E052 		bic	r2, r3, #7168
 1041 0160 7B68     		ldr	r3, [r7, #4]
 1042 0162 DB68     		ldr	r3, [r3, #12]
 1043 0164 1343     		orrs	r3, r3, r2
 1044 0166 8B60     		str	r3, [r1, #8]
 1045              	.L78:
 700:../../../../dependencies/stm/STM32F4_Cube/Drivers/STM32F4xx_HAL_Driver/Src/stm32f4xx_hal_rcc.c ****   }
 701:../../../../dependencies/stm/STM32F4_Cube/Drivers/STM32F4xx_HAL_Driver/Src/stm32f4xx_hal_rcc.c **** 
 702:../../../../dependencies/stm/STM32F4_Cube/Drivers/STM32F4xx_HAL_Driver/Src/stm32f4xx_hal_rcc.c ****   /*-------------------------- PCLK2 Configuration ---------------------------*/
 703:../../../../dependencies/stm/STM32F4_Cube/Drivers/STM32F4xx_HAL_Driver/Src/stm32f4xx_hal_rcc.c ****   if(((RCC_ClkInitStruct->ClockType) & RCC_CLOCKTYPE_PCLK2) == RCC_CLOCKTYPE_PCLK2)
 1046              		.loc 1 703 0
ARM GAS  /var/folders/_8/_cw6l3nd335f_j6cn6z79m4m0000gn/T//ccTXFGg6.s 			page 32


 1047 0168 7B68     		ldr	r3, [r7, #4]
 1048 016a 1B68     		ldr	r3, [r3]
 1049 016c 03F00803 		and	r3, r3, #8
 1050 0170 002B     		cmp	r3, #0
 1051 0172 09D0     		beq	.L79
 704:../../../../dependencies/stm/STM32F4_Cube/Drivers/STM32F4xx_HAL_Driver/Src/stm32f4xx_hal_rcc.c ****   {
 705:../../../../dependencies/stm/STM32F4_Cube/Drivers/STM32F4xx_HAL_Driver/Src/stm32f4xx_hal_rcc.c ****     assert_param(IS_RCC_PCLK(RCC_ClkInitStruct->APB2CLKDivider));
 706:../../../../dependencies/stm/STM32F4_Cube/Drivers/STM32F4xx_HAL_Driver/Src/stm32f4xx_hal_rcc.c ****     MODIFY_REG(RCC->CFGR, RCC_CFGR_PPRE2, ((RCC_ClkInitStruct->APB2CLKDivider) << 3U));
 1052              		.loc 1 706 0
 1053 0174 1149     		ldr	r1, .L80+4
 1054 0176 114B     		ldr	r3, .L80+4
 1055 0178 9B68     		ldr	r3, [r3, #8]
 1056 017a 23F46042 		bic	r2, r3, #57344
 1057 017e 7B68     		ldr	r3, [r7, #4]
 1058 0180 1B69     		ldr	r3, [r3, #16]
 1059 0182 DB00     		lsls	r3, r3, #3
 1060 0184 1343     		orrs	r3, r3, r2
 1061 0186 8B60     		str	r3, [r1, #8]
 1062              	.L79:
 707:../../../../dependencies/stm/STM32F4_Cube/Drivers/STM32F4xx_HAL_Driver/Src/stm32f4xx_hal_rcc.c ****   }
 708:../../../../dependencies/stm/STM32F4_Cube/Drivers/STM32F4xx_HAL_Driver/Src/stm32f4xx_hal_rcc.c **** 
 709:../../../../dependencies/stm/STM32F4_Cube/Drivers/STM32F4xx_HAL_Driver/Src/stm32f4xx_hal_rcc.c ****   /* Update the SystemCoreClock global variable */
 710:../../../../dependencies/stm/STM32F4_Cube/Drivers/STM32F4xx_HAL_Driver/Src/stm32f4xx_hal_rcc.c ****   SystemCoreClock = HAL_RCC_GetSysClockFreq() >> AHBPrescTable[(RCC->CFGR & RCC_CFGR_HPRE)>> RCC_CF
 1063              		.loc 1 710 0
 1064 0188 FFF7FEFF 		bl	HAL_RCC_GetSysClockFreq
 1065 018c 0146     		mov	r1, r0
 1066 018e 0B4B     		ldr	r3, .L80+4
 1067 0190 9B68     		ldr	r3, [r3, #8]
 1068 0192 03F0F003 		and	r3, r3, #240
 1069 0196 1B09     		lsrs	r3, r3, #4
 1070 0198 094A     		ldr	r2, .L80+8
 1071 019a D35C     		ldrb	r3, [r2, r3]	@ zero_extendqisi2
 1072 019c 21FA03F3 		lsr	r3, r1, r3
 1073 01a0 084A     		ldr	r2, .L80+12
 1074 01a2 1360     		str	r3, [r2]
 711:../../../../dependencies/stm/STM32F4_Cube/Drivers/STM32F4xx_HAL_Driver/Src/stm32f4xx_hal_rcc.c **** 
 712:../../../../dependencies/stm/STM32F4_Cube/Drivers/STM32F4xx_HAL_Driver/Src/stm32f4xx_hal_rcc.c ****   /* Configure the source of time base considering new system clocks settings */
 713:../../../../dependencies/stm/STM32F4_Cube/Drivers/STM32F4xx_HAL_Driver/Src/stm32f4xx_hal_rcc.c ****   HAL_InitTick (uwTickPrio);
 1075              		.loc 1 713 0
 1076 01a4 084B     		ldr	r3, .L80+16
 1077 01a6 1B68     		ldr	r3, [r3]
 1078 01a8 1846     		mov	r0, r3
 1079 01aa FFF7FEFF 		bl	HAL_InitTick
 714:../../../../dependencies/stm/STM32F4_Cube/Drivers/STM32F4xx_HAL_Driver/Src/stm32f4xx_hal_rcc.c **** 
 715:../../../../dependencies/stm/STM32F4_Cube/Drivers/STM32F4xx_HAL_Driver/Src/stm32f4xx_hal_rcc.c ****   return HAL_OK;
 1080              		.loc 1 715 0
 1081 01ae 0023     		movs	r3, #0
 1082              	.L64:
 716:../../../../dependencies/stm/STM32F4_Cube/Drivers/STM32F4xx_HAL_Driver/Src/stm32f4xx_hal_rcc.c **** }
 1083              		.loc 1 716 0
 1084 01b0 1846     		mov	r0, r3
 1085 01b2 1037     		adds	r7, r7, #16
 1086              	.LCFI12:
 1087              		.cfi_def_cfa_offset 8
 1088 01b4 BD46     		mov	sp, r7
 1089              	.LCFI13:
 1090              		.cfi_def_cfa_register 13
ARM GAS  /var/folders/_8/_cw6l3nd335f_j6cn6z79m4m0000gn/T//ccTXFGg6.s 			page 33


 1091              		@ sp needed
 1092 01b6 80BD     		pop	{r7, pc}
 1093              	.L81:
 1094              		.align	2
 1095              	.L80:
 1096 01b8 003C0240 		.word	1073888256
 1097 01bc 00380240 		.word	1073887232
 1098 01c0 00000000 		.word	AHBPrescTable
 1099 01c4 00000000 		.word	SystemCoreClock
 1100 01c8 00000000 		.word	uwTickPrio
 1101              		.cfi_endproc
 1102              	.LFE132:
 1104              		.section	.text.HAL_RCC_MCOConfig,"ax",%progbits
 1105              		.align	2
 1106              		.global	HAL_RCC_MCOConfig
 1107              		.thumb
 1108              		.thumb_func
 1110              	HAL_RCC_MCOConfig:
 1111              	.LFB133:
 717:../../../../dependencies/stm/STM32F4_Cube/Drivers/STM32F4xx_HAL_Driver/Src/stm32f4xx_hal_rcc.c **** 
 718:../../../../dependencies/stm/STM32F4_Cube/Drivers/STM32F4xx_HAL_Driver/Src/stm32f4xx_hal_rcc.c **** /**
 719:../../../../dependencies/stm/STM32F4_Cube/Drivers/STM32F4xx_HAL_Driver/Src/stm32f4xx_hal_rcc.c ****   * @}
 720:../../../../dependencies/stm/STM32F4_Cube/Drivers/STM32F4xx_HAL_Driver/Src/stm32f4xx_hal_rcc.c ****   */
 721:../../../../dependencies/stm/STM32F4_Cube/Drivers/STM32F4xx_HAL_Driver/Src/stm32f4xx_hal_rcc.c **** 
 722:../../../../dependencies/stm/STM32F4_Cube/Drivers/STM32F4xx_HAL_Driver/Src/stm32f4xx_hal_rcc.c **** /** @defgroup RCC_Exported_Functions_Group2 Peripheral Control functions
 723:../../../../dependencies/stm/STM32F4_Cube/Drivers/STM32F4xx_HAL_Driver/Src/stm32f4xx_hal_rcc.c ****  *  @brief   RCC clocks control functions
 724:../../../../dependencies/stm/STM32F4_Cube/Drivers/STM32F4xx_HAL_Driver/Src/stm32f4xx_hal_rcc.c ****  *
 725:../../../../dependencies/stm/STM32F4_Cube/Drivers/STM32F4xx_HAL_Driver/Src/stm32f4xx_hal_rcc.c **** @verbatim
 726:../../../../dependencies/stm/STM32F4_Cube/Drivers/STM32F4xx_HAL_Driver/Src/stm32f4xx_hal_rcc.c ****  ===============================================================================
 727:../../../../dependencies/stm/STM32F4_Cube/Drivers/STM32F4xx_HAL_Driver/Src/stm32f4xx_hal_rcc.c ****                       ##### Peripheral Control functions #####
 728:../../../../dependencies/stm/STM32F4_Cube/Drivers/STM32F4xx_HAL_Driver/Src/stm32f4xx_hal_rcc.c ****  ===============================================================================
 729:../../../../dependencies/stm/STM32F4_Cube/Drivers/STM32F4xx_HAL_Driver/Src/stm32f4xx_hal_rcc.c ****     [..]
 730:../../../../dependencies/stm/STM32F4_Cube/Drivers/STM32F4xx_HAL_Driver/Src/stm32f4xx_hal_rcc.c ****     This subsection provides a set of functions allowing to control the RCC Clocks
 731:../../../../dependencies/stm/STM32F4_Cube/Drivers/STM32F4xx_HAL_Driver/Src/stm32f4xx_hal_rcc.c ****     frequencies.
 732:../../../../dependencies/stm/STM32F4_Cube/Drivers/STM32F4xx_HAL_Driver/Src/stm32f4xx_hal_rcc.c **** 
 733:../../../../dependencies/stm/STM32F4_Cube/Drivers/STM32F4xx_HAL_Driver/Src/stm32f4xx_hal_rcc.c **** @endverbatim
 734:../../../../dependencies/stm/STM32F4_Cube/Drivers/STM32F4xx_HAL_Driver/Src/stm32f4xx_hal_rcc.c ****   * @{
 735:../../../../dependencies/stm/STM32F4_Cube/Drivers/STM32F4xx_HAL_Driver/Src/stm32f4xx_hal_rcc.c ****   */
 736:../../../../dependencies/stm/STM32F4_Cube/Drivers/STM32F4xx_HAL_Driver/Src/stm32f4xx_hal_rcc.c **** 
 737:../../../../dependencies/stm/STM32F4_Cube/Drivers/STM32F4xx_HAL_Driver/Src/stm32f4xx_hal_rcc.c **** /**
 738:../../../../dependencies/stm/STM32F4_Cube/Drivers/STM32F4xx_HAL_Driver/Src/stm32f4xx_hal_rcc.c ****   * @brief  Selects the clock source to output on MCO1 pin(PA8) or on MCO2 pin(PC9).
 739:../../../../dependencies/stm/STM32F4_Cube/Drivers/STM32F4xx_HAL_Driver/Src/stm32f4xx_hal_rcc.c ****   * @note   PA8/PC9 should be configured in alternate function mode.
 740:../../../../dependencies/stm/STM32F4_Cube/Drivers/STM32F4xx_HAL_Driver/Src/stm32f4xx_hal_rcc.c ****   * @param  RCC_MCOx specifies the output direction for the clock source.
 741:../../../../dependencies/stm/STM32F4_Cube/Drivers/STM32F4xx_HAL_Driver/Src/stm32f4xx_hal_rcc.c ****   *          This parameter can be one of the following values:
 742:../../../../dependencies/stm/STM32F4_Cube/Drivers/STM32F4xx_HAL_Driver/Src/stm32f4xx_hal_rcc.c ****   *            @arg RCC_MCO1: Clock source to output on MCO1 pin(PA8).
 743:../../../../dependencies/stm/STM32F4_Cube/Drivers/STM32F4xx_HAL_Driver/Src/stm32f4xx_hal_rcc.c ****   *            @arg RCC_MCO2: Clock source to output on MCO2 pin(PC9).
 744:../../../../dependencies/stm/STM32F4_Cube/Drivers/STM32F4xx_HAL_Driver/Src/stm32f4xx_hal_rcc.c ****   * @param  RCC_MCOSource specifies the clock source to output.
 745:../../../../dependencies/stm/STM32F4_Cube/Drivers/STM32F4xx_HAL_Driver/Src/stm32f4xx_hal_rcc.c ****   *          This parameter can be one of the following values:
 746:../../../../dependencies/stm/STM32F4_Cube/Drivers/STM32F4xx_HAL_Driver/Src/stm32f4xx_hal_rcc.c ****   *            @arg RCC_MCO1SOURCE_HSI: HSI clock selected as MCO1 source
 747:../../../../dependencies/stm/STM32F4_Cube/Drivers/STM32F4xx_HAL_Driver/Src/stm32f4xx_hal_rcc.c ****   *            @arg RCC_MCO1SOURCE_LSE: LSE clock selected as MCO1 source
 748:../../../../dependencies/stm/STM32F4_Cube/Drivers/STM32F4xx_HAL_Driver/Src/stm32f4xx_hal_rcc.c ****   *            @arg RCC_MCO1SOURCE_HSE: HSE clock selected as MCO1 source
 749:../../../../dependencies/stm/STM32F4_Cube/Drivers/STM32F4xx_HAL_Driver/Src/stm32f4xx_hal_rcc.c ****   *            @arg RCC_MCO1SOURCE_PLLCLK: main PLL clock selected as MCO1 source
 750:../../../../dependencies/stm/STM32F4_Cube/Drivers/STM32F4xx_HAL_Driver/Src/stm32f4xx_hal_rcc.c ****   *            @arg RCC_MCO2SOURCE_SYSCLK: System clock (SYSCLK) selected as MCO2 source
 751:../../../../dependencies/stm/STM32F4_Cube/Drivers/STM32F4xx_HAL_Driver/Src/stm32f4xx_hal_rcc.c ****   *            @arg RCC_MCO2SOURCE_PLLI2SCLK: PLLI2S clock selected as MCO2 source, available for a
 752:../../../../dependencies/stm/STM32F4_Cube/Drivers/STM32F4xx_HAL_Driver/Src/stm32f4xx_hal_rcc.c ****   *            @arg RCC_MCO2SOURCE_I2SCLK: I2SCLK clock selected as MCO2 source, available only for
 753:../../../../dependencies/stm/STM32F4_Cube/Drivers/STM32F4xx_HAL_Driver/Src/stm32f4xx_hal_rcc.c ****   *            @arg RCC_MCO2SOURCE_HSE: HSE clock selected as MCO2 source
 754:../../../../dependencies/stm/STM32F4_Cube/Drivers/STM32F4xx_HAL_Driver/Src/stm32f4xx_hal_rcc.c ****   *            @arg RCC_MCO2SOURCE_PLLCLK: main PLL clock selected as MCO2 source
ARM GAS  /var/folders/_8/_cw6l3nd335f_j6cn6z79m4m0000gn/T//ccTXFGg6.s 			page 34


 755:../../../../dependencies/stm/STM32F4_Cube/Drivers/STM32F4xx_HAL_Driver/Src/stm32f4xx_hal_rcc.c ****   * @param  RCC_MCODiv specifies the MCOx prescaler.
 756:../../../../dependencies/stm/STM32F4_Cube/Drivers/STM32F4xx_HAL_Driver/Src/stm32f4xx_hal_rcc.c ****   *          This parameter can be one of the following values:
 757:../../../../dependencies/stm/STM32F4_Cube/Drivers/STM32F4xx_HAL_Driver/Src/stm32f4xx_hal_rcc.c ****   *            @arg RCC_MCODIV_1: no division applied to MCOx clock
 758:../../../../dependencies/stm/STM32F4_Cube/Drivers/STM32F4xx_HAL_Driver/Src/stm32f4xx_hal_rcc.c ****   *            @arg RCC_MCODIV_2: division by 2 applied to MCOx clock
 759:../../../../dependencies/stm/STM32F4_Cube/Drivers/STM32F4xx_HAL_Driver/Src/stm32f4xx_hal_rcc.c ****   *            @arg RCC_MCODIV_3: division by 3 applied to MCOx clock
 760:../../../../dependencies/stm/STM32F4_Cube/Drivers/STM32F4xx_HAL_Driver/Src/stm32f4xx_hal_rcc.c ****   *            @arg RCC_MCODIV_4: division by 4 applied to MCOx clock
 761:../../../../dependencies/stm/STM32F4_Cube/Drivers/STM32F4xx_HAL_Driver/Src/stm32f4xx_hal_rcc.c ****   *            @arg RCC_MCODIV_5: division by 5 applied to MCOx clock
 762:../../../../dependencies/stm/STM32F4_Cube/Drivers/STM32F4xx_HAL_Driver/Src/stm32f4xx_hal_rcc.c ****   * @note  For STM32F410Rx devices to output I2SCLK clock on MCO2 you should have
 763:../../../../dependencies/stm/STM32F4_Cube/Drivers/STM32F4xx_HAL_Driver/Src/stm32f4xx_hal_rcc.c ****   *        at last one of the SPI clocks enabled (SPI1, SPI2 or SPI5).
 764:../../../../dependencies/stm/STM32F4_Cube/Drivers/STM32F4xx_HAL_Driver/Src/stm32f4xx_hal_rcc.c ****   * @retval None
 765:../../../../dependencies/stm/STM32F4_Cube/Drivers/STM32F4xx_HAL_Driver/Src/stm32f4xx_hal_rcc.c ****   */
 766:../../../../dependencies/stm/STM32F4_Cube/Drivers/STM32F4xx_HAL_Driver/Src/stm32f4xx_hal_rcc.c **** void HAL_RCC_MCOConfig(uint32_t RCC_MCOx, uint32_t RCC_MCOSource, uint32_t RCC_MCODiv)
 767:../../../../dependencies/stm/STM32F4_Cube/Drivers/STM32F4xx_HAL_Driver/Src/stm32f4xx_hal_rcc.c **** {
 1112              		.loc 1 767 0
 1113              		.cfi_startproc
 1114              		@ args = 0, pretend = 0, frame = 48
 1115              		@ frame_needed = 1, uses_anonymous_args = 0
 1116 0000 80B5     		push	{r7, lr}
 1117              	.LCFI14:
 1118              		.cfi_def_cfa_offset 8
 1119              		.cfi_offset 7, -8
 1120              		.cfi_offset 14, -4
 1121 0002 8CB0     		sub	sp, sp, #48
 1122              	.LCFI15:
 1123              		.cfi_def_cfa_offset 56
 1124 0004 00AF     		add	r7, sp, #0
 1125              	.LCFI16:
 1126              		.cfi_def_cfa_register 7
 1127 0006 F860     		str	r0, [r7, #12]
 1128 0008 B960     		str	r1, [r7, #8]
 1129 000a 7A60     		str	r2, [r7, #4]
 768:../../../../dependencies/stm/STM32F4_Cube/Drivers/STM32F4xx_HAL_Driver/Src/stm32f4xx_hal_rcc.c ****   GPIO_InitTypeDef GPIO_InitStruct;
 769:../../../../dependencies/stm/STM32F4_Cube/Drivers/STM32F4xx_HAL_Driver/Src/stm32f4xx_hal_rcc.c ****   /* Check the parameters */
 770:../../../../dependencies/stm/STM32F4_Cube/Drivers/STM32F4xx_HAL_Driver/Src/stm32f4xx_hal_rcc.c ****   assert_param(IS_RCC_MCO(RCC_MCOx));
 771:../../../../dependencies/stm/STM32F4_Cube/Drivers/STM32F4xx_HAL_Driver/Src/stm32f4xx_hal_rcc.c ****   assert_param(IS_RCC_MCODIV(RCC_MCODiv));
 772:../../../../dependencies/stm/STM32F4_Cube/Drivers/STM32F4xx_HAL_Driver/Src/stm32f4xx_hal_rcc.c ****   /* RCC_MCO1 */
 773:../../../../dependencies/stm/STM32F4_Cube/Drivers/STM32F4xx_HAL_Driver/Src/stm32f4xx_hal_rcc.c ****   if(RCC_MCOx == RCC_MCO1)
 1130              		.loc 1 773 0
 1131 000c FB68     		ldr	r3, [r7, #12]
 1132 000e 002B     		cmp	r3, #0
 1133 0010 29D1     		bne	.L83
 1134              	.LBB4:
 774:../../../../dependencies/stm/STM32F4_Cube/Drivers/STM32F4xx_HAL_Driver/Src/stm32f4xx_hal_rcc.c ****   {
 775:../../../../dependencies/stm/STM32F4_Cube/Drivers/STM32F4xx_HAL_Driver/Src/stm32f4xx_hal_rcc.c ****     assert_param(IS_RCC_MCO1SOURCE(RCC_MCOSource));
 776:../../../../dependencies/stm/STM32F4_Cube/Drivers/STM32F4xx_HAL_Driver/Src/stm32f4xx_hal_rcc.c **** 
 777:../../../../dependencies/stm/STM32F4_Cube/Drivers/STM32F4xx_HAL_Driver/Src/stm32f4xx_hal_rcc.c ****     /* MCO1 Clock Enable */
 778:../../../../dependencies/stm/STM32F4_Cube/Drivers/STM32F4xx_HAL_Driver/Src/stm32f4xx_hal_rcc.c ****     __MCO1_CLK_ENABLE();
 1135              		.loc 1 778 0
 1136 0012 0023     		movs	r3, #0
 1137 0014 BB61     		str	r3, [r7, #24]
 1138 0016 2A4A     		ldr	r2, .L85
 1139 0018 294B     		ldr	r3, .L85
 1140 001a 1B6B     		ldr	r3, [r3, #48]
 1141 001c 43F00103 		orr	r3, r3, #1
 1142 0020 1363     		str	r3, [r2, #48]
 1143 0022 274B     		ldr	r3, .L85
 1144 0024 1B6B     		ldr	r3, [r3, #48]
ARM GAS  /var/folders/_8/_cw6l3nd335f_j6cn6z79m4m0000gn/T//ccTXFGg6.s 			page 35


 1145 0026 03F00103 		and	r3, r3, #1
 1146 002a BB61     		str	r3, [r7, #24]
 1147 002c BB69     		ldr	r3, [r7, #24]
 1148              	.LBE4:
 779:../../../../dependencies/stm/STM32F4_Cube/Drivers/STM32F4xx_HAL_Driver/Src/stm32f4xx_hal_rcc.c **** 
 780:../../../../dependencies/stm/STM32F4_Cube/Drivers/STM32F4xx_HAL_Driver/Src/stm32f4xx_hal_rcc.c ****     /* Configure the MCO1 pin in alternate function mode */
 781:../../../../dependencies/stm/STM32F4_Cube/Drivers/STM32F4xx_HAL_Driver/Src/stm32f4xx_hal_rcc.c ****     GPIO_InitStruct.Pin = MCO1_PIN;
 1149              		.loc 1 781 0
 1150 002e 4FF48073 		mov	r3, #256
 1151 0032 FB61     		str	r3, [r7, #28]
 782:../../../../dependencies/stm/STM32F4_Cube/Drivers/STM32F4xx_HAL_Driver/Src/stm32f4xx_hal_rcc.c ****     GPIO_InitStruct.Mode = GPIO_MODE_AF_PP;
 1152              		.loc 1 782 0
 1153 0034 0223     		movs	r3, #2
 1154 0036 3B62     		str	r3, [r7, #32]
 783:../../../../dependencies/stm/STM32F4_Cube/Drivers/STM32F4xx_HAL_Driver/Src/stm32f4xx_hal_rcc.c ****     GPIO_InitStruct.Speed = GPIO_SPEED_FREQ_VERY_HIGH;
 1155              		.loc 1 783 0
 1156 0038 0323     		movs	r3, #3
 1157 003a BB62     		str	r3, [r7, #40]
 784:../../../../dependencies/stm/STM32F4_Cube/Drivers/STM32F4xx_HAL_Driver/Src/stm32f4xx_hal_rcc.c ****     GPIO_InitStruct.Pull = GPIO_NOPULL;
 1158              		.loc 1 784 0
 1159 003c 0023     		movs	r3, #0
 1160 003e 7B62     		str	r3, [r7, #36]
 785:../../../../dependencies/stm/STM32F4_Cube/Drivers/STM32F4xx_HAL_Driver/Src/stm32f4xx_hal_rcc.c ****     GPIO_InitStruct.Alternate = GPIO_AF0_MCO;
 1161              		.loc 1 785 0
 1162 0040 0023     		movs	r3, #0
 1163 0042 FB62     		str	r3, [r7, #44]
 786:../../../../dependencies/stm/STM32F4_Cube/Drivers/STM32F4xx_HAL_Driver/Src/stm32f4xx_hal_rcc.c ****     HAL_GPIO_Init(MCO1_GPIO_PORT, &GPIO_InitStruct);
 1164              		.loc 1 786 0
 1165 0044 07F11C03 		add	r3, r7, #28
 1166 0048 1E48     		ldr	r0, .L85+4
 1167 004a 1946     		mov	r1, r3
 1168 004c FFF7FEFF 		bl	HAL_GPIO_Init
 787:../../../../dependencies/stm/STM32F4_Cube/Drivers/STM32F4xx_HAL_Driver/Src/stm32f4xx_hal_rcc.c **** 
 788:../../../../dependencies/stm/STM32F4_Cube/Drivers/STM32F4xx_HAL_Driver/Src/stm32f4xx_hal_rcc.c ****     /* Mask MCO1 and MCO1PRE[2:0] bits then Select MCO1 clock source and prescaler */
 789:../../../../dependencies/stm/STM32F4_Cube/Drivers/STM32F4xx_HAL_Driver/Src/stm32f4xx_hal_rcc.c ****     MODIFY_REG(RCC->CFGR, (RCC_CFGR_MCO1 | RCC_CFGR_MCO1PRE), (RCC_MCOSource | RCC_MCODiv));
 1169              		.loc 1 789 0
 1170 0050 1B48     		ldr	r0, .L85
 1171 0052 1B4B     		ldr	r3, .L85
 1172 0054 9B68     		ldr	r3, [r3, #8]
 1173 0056 23F0EC62 		bic	r2, r3, #123731968
 1174 005a B968     		ldr	r1, [r7, #8]
 1175 005c 7B68     		ldr	r3, [r7, #4]
 1176 005e 0B43     		orrs	r3, r3, r1
 1177 0060 1343     		orrs	r3, r3, r2
 1178 0062 8360     		str	r3, [r0, #8]
 1179 0064 29E0     		b	.L82
 1180              	.L83:
 1181              	.LBB5:
 790:../../../../dependencies/stm/STM32F4_Cube/Drivers/STM32F4xx_HAL_Driver/Src/stm32f4xx_hal_rcc.c **** 
 791:../../../../dependencies/stm/STM32F4_Cube/Drivers/STM32F4xx_HAL_Driver/Src/stm32f4xx_hal_rcc.c ****    /* This RCC MCO1 enable feature is available only on STM32F410xx devices */
 792:../../../../dependencies/stm/STM32F4_Cube/Drivers/STM32F4xx_HAL_Driver/Src/stm32f4xx_hal_rcc.c **** #if defined(RCC_CFGR_MCO1EN)
 793:../../../../dependencies/stm/STM32F4_Cube/Drivers/STM32F4xx_HAL_Driver/Src/stm32f4xx_hal_rcc.c ****     __HAL_RCC_MCO1_ENABLE();
 794:../../../../dependencies/stm/STM32F4_Cube/Drivers/STM32F4xx_HAL_Driver/Src/stm32f4xx_hal_rcc.c **** #endif /* RCC_CFGR_MCO1EN */
 795:../../../../dependencies/stm/STM32F4_Cube/Drivers/STM32F4xx_HAL_Driver/Src/stm32f4xx_hal_rcc.c ****   }
 796:../../../../dependencies/stm/STM32F4_Cube/Drivers/STM32F4xx_HAL_Driver/Src/stm32f4xx_hal_rcc.c **** #if defined(RCC_CFGR_MCO2)
 797:../../../../dependencies/stm/STM32F4_Cube/Drivers/STM32F4xx_HAL_Driver/Src/stm32f4xx_hal_rcc.c ****   else
 798:../../../../dependencies/stm/STM32F4_Cube/Drivers/STM32F4xx_HAL_Driver/Src/stm32f4xx_hal_rcc.c ****   {
ARM GAS  /var/folders/_8/_cw6l3nd335f_j6cn6z79m4m0000gn/T//ccTXFGg6.s 			page 36


 799:../../../../dependencies/stm/STM32F4_Cube/Drivers/STM32F4xx_HAL_Driver/Src/stm32f4xx_hal_rcc.c ****     assert_param(IS_RCC_MCO2SOURCE(RCC_MCOSource));
 800:../../../../dependencies/stm/STM32F4_Cube/Drivers/STM32F4xx_HAL_Driver/Src/stm32f4xx_hal_rcc.c **** 
 801:../../../../dependencies/stm/STM32F4_Cube/Drivers/STM32F4xx_HAL_Driver/Src/stm32f4xx_hal_rcc.c ****     /* MCO2 Clock Enable */
 802:../../../../dependencies/stm/STM32F4_Cube/Drivers/STM32F4xx_HAL_Driver/Src/stm32f4xx_hal_rcc.c ****     __MCO2_CLK_ENABLE();
 1182              		.loc 1 802 0
 1183 0066 0023     		movs	r3, #0
 1184 0068 7B61     		str	r3, [r7, #20]
 1185 006a 154A     		ldr	r2, .L85
 1186 006c 144B     		ldr	r3, .L85
 1187 006e 1B6B     		ldr	r3, [r3, #48]
 1188 0070 43F00403 		orr	r3, r3, #4
 1189 0074 1363     		str	r3, [r2, #48]
 1190 0076 124B     		ldr	r3, .L85
 1191 0078 1B6B     		ldr	r3, [r3, #48]
 1192 007a 03F00403 		and	r3, r3, #4
 1193 007e 7B61     		str	r3, [r7, #20]
 1194 0080 7B69     		ldr	r3, [r7, #20]
 1195              	.LBE5:
 803:../../../../dependencies/stm/STM32F4_Cube/Drivers/STM32F4xx_HAL_Driver/Src/stm32f4xx_hal_rcc.c **** 
 804:../../../../dependencies/stm/STM32F4_Cube/Drivers/STM32F4xx_HAL_Driver/Src/stm32f4xx_hal_rcc.c ****     /* Configure the MCO2 pin in alternate function mode */
 805:../../../../dependencies/stm/STM32F4_Cube/Drivers/STM32F4xx_HAL_Driver/Src/stm32f4xx_hal_rcc.c ****     GPIO_InitStruct.Pin = MCO2_PIN;
 1196              		.loc 1 805 0
 1197 0082 4FF40073 		mov	r3, #512
 1198 0086 FB61     		str	r3, [r7, #28]
 806:../../../../dependencies/stm/STM32F4_Cube/Drivers/STM32F4xx_HAL_Driver/Src/stm32f4xx_hal_rcc.c ****     GPIO_InitStruct.Mode = GPIO_MODE_AF_PP;
 1199              		.loc 1 806 0
 1200 0088 0223     		movs	r3, #2
 1201 008a 3B62     		str	r3, [r7, #32]
 807:../../../../dependencies/stm/STM32F4_Cube/Drivers/STM32F4xx_HAL_Driver/Src/stm32f4xx_hal_rcc.c ****     GPIO_InitStruct.Speed = GPIO_SPEED_FREQ_VERY_HIGH;
 1202              		.loc 1 807 0
 1203 008c 0323     		movs	r3, #3
 1204 008e BB62     		str	r3, [r7, #40]
 808:../../../../dependencies/stm/STM32F4_Cube/Drivers/STM32F4xx_HAL_Driver/Src/stm32f4xx_hal_rcc.c ****     GPIO_InitStruct.Pull = GPIO_NOPULL;
 1205              		.loc 1 808 0
 1206 0090 0023     		movs	r3, #0
 1207 0092 7B62     		str	r3, [r7, #36]
 809:../../../../dependencies/stm/STM32F4_Cube/Drivers/STM32F4xx_HAL_Driver/Src/stm32f4xx_hal_rcc.c ****     GPIO_InitStruct.Alternate = GPIO_AF0_MCO;
 1208              		.loc 1 809 0
 1209 0094 0023     		movs	r3, #0
 1210 0096 FB62     		str	r3, [r7, #44]
 810:../../../../dependencies/stm/STM32F4_Cube/Drivers/STM32F4xx_HAL_Driver/Src/stm32f4xx_hal_rcc.c ****     HAL_GPIO_Init(MCO2_GPIO_PORT, &GPIO_InitStruct);
 1211              		.loc 1 810 0
 1212 0098 07F11C03 		add	r3, r7, #28
 1213 009c 0A48     		ldr	r0, .L85+8
 1214 009e 1946     		mov	r1, r3
 1215 00a0 FFF7FEFF 		bl	HAL_GPIO_Init
 811:../../../../dependencies/stm/STM32F4_Cube/Drivers/STM32F4xx_HAL_Driver/Src/stm32f4xx_hal_rcc.c **** 
 812:../../../../dependencies/stm/STM32F4_Cube/Drivers/STM32F4xx_HAL_Driver/Src/stm32f4xx_hal_rcc.c ****     /* Mask MCO2 and MCO2PRE[2:0] bits then Select MCO2 clock source and prescaler */
 813:../../../../dependencies/stm/STM32F4_Cube/Drivers/STM32F4xx_HAL_Driver/Src/stm32f4xx_hal_rcc.c ****     MODIFY_REG(RCC->CFGR, (RCC_CFGR_MCO2 | RCC_CFGR_MCO2PRE), (RCC_MCOSource | (RCC_MCODiv << 3U)))
 1216              		.loc 1 813 0
 1217 00a4 0648     		ldr	r0, .L85
 1218 00a6 064B     		ldr	r3, .L85
 1219 00a8 9B68     		ldr	r3, [r3, #8]
 1220 00aa 23F07842 		bic	r2, r3, #-134217728
 1221 00ae 7B68     		ldr	r3, [r7, #4]
 1222 00b0 D900     		lsls	r1, r3, #3
 1223 00b2 BB68     		ldr	r3, [r7, #8]
ARM GAS  /var/folders/_8/_cw6l3nd335f_j6cn6z79m4m0000gn/T//ccTXFGg6.s 			page 37


 1224 00b4 0B43     		orrs	r3, r3, r1
 1225 00b6 1343     		orrs	r3, r3, r2
 1226 00b8 8360     		str	r3, [r0, #8]
 1227              	.L82:
 814:../../../../dependencies/stm/STM32F4_Cube/Drivers/STM32F4xx_HAL_Driver/Src/stm32f4xx_hal_rcc.c **** 
 815:../../../../dependencies/stm/STM32F4_Cube/Drivers/STM32F4xx_HAL_Driver/Src/stm32f4xx_hal_rcc.c ****    /* This RCC MCO2 enable feature is available only on STM32F410Rx devices */
 816:../../../../dependencies/stm/STM32F4_Cube/Drivers/STM32F4xx_HAL_Driver/Src/stm32f4xx_hal_rcc.c **** #if defined(RCC_CFGR_MCO2EN)
 817:../../../../dependencies/stm/STM32F4_Cube/Drivers/STM32F4xx_HAL_Driver/Src/stm32f4xx_hal_rcc.c ****     __HAL_RCC_MCO2_ENABLE();
 818:../../../../dependencies/stm/STM32F4_Cube/Drivers/STM32F4xx_HAL_Driver/Src/stm32f4xx_hal_rcc.c **** #endif /* RCC_CFGR_MCO2EN */
 819:../../../../dependencies/stm/STM32F4_Cube/Drivers/STM32F4xx_HAL_Driver/Src/stm32f4xx_hal_rcc.c ****   }
 820:../../../../dependencies/stm/STM32F4_Cube/Drivers/STM32F4xx_HAL_Driver/Src/stm32f4xx_hal_rcc.c **** #endif /* RCC_CFGR_MCO2 */
 821:../../../../dependencies/stm/STM32F4_Cube/Drivers/STM32F4xx_HAL_Driver/Src/stm32f4xx_hal_rcc.c **** }
 1228              		.loc 1 821 0
 1229 00ba 3037     		adds	r7, r7, #48
 1230              	.LCFI17:
 1231              		.cfi_def_cfa_offset 8
 1232 00bc BD46     		mov	sp, r7
 1233              	.LCFI18:
 1234              		.cfi_def_cfa_register 13
 1235              		@ sp needed
 1236 00be 80BD     		pop	{r7, pc}
 1237              	.L86:
 1238              		.align	2
 1239              	.L85:
 1240 00c0 00380240 		.word	1073887232
 1241 00c4 00000240 		.word	1073872896
 1242 00c8 00080240 		.word	1073874944
 1243              		.cfi_endproc
 1244              	.LFE133:
 1246              		.section	.text.HAL_RCC_EnableCSS,"ax",%progbits
 1247              		.align	2
 1248              		.global	HAL_RCC_EnableCSS
 1249              		.thumb
 1250              		.thumb_func
 1252              	HAL_RCC_EnableCSS:
 1253              	.LFB134:
 822:../../../../dependencies/stm/STM32F4_Cube/Drivers/STM32F4xx_HAL_Driver/Src/stm32f4xx_hal_rcc.c **** 
 823:../../../../dependencies/stm/STM32F4_Cube/Drivers/STM32F4xx_HAL_Driver/Src/stm32f4xx_hal_rcc.c **** /**
 824:../../../../dependencies/stm/STM32F4_Cube/Drivers/STM32F4xx_HAL_Driver/Src/stm32f4xx_hal_rcc.c ****   * @brief  Enables the Clock Security System.
 825:../../../../dependencies/stm/STM32F4_Cube/Drivers/STM32F4xx_HAL_Driver/Src/stm32f4xx_hal_rcc.c ****   * @note   If a failure is detected on the HSE oscillator clock, this oscillator
 826:../../../../dependencies/stm/STM32F4_Cube/Drivers/STM32F4xx_HAL_Driver/Src/stm32f4xx_hal_rcc.c ****   *         is automatically disabled and an interrupt is generated to inform the
 827:../../../../dependencies/stm/STM32F4_Cube/Drivers/STM32F4xx_HAL_Driver/Src/stm32f4xx_hal_rcc.c ****   *         software about the failure (Clock Security System Interrupt, CSSI),
 828:../../../../dependencies/stm/STM32F4_Cube/Drivers/STM32F4xx_HAL_Driver/Src/stm32f4xx_hal_rcc.c ****   *         allowing the MCU to perform rescue operations. The CSSI is linked to
 829:../../../../dependencies/stm/STM32F4_Cube/Drivers/STM32F4xx_HAL_Driver/Src/stm32f4xx_hal_rcc.c ****   *         the Cortex-M4 NMI (Non-Maskable Interrupt) exception vector.
 830:../../../../dependencies/stm/STM32F4_Cube/Drivers/STM32F4xx_HAL_Driver/Src/stm32f4xx_hal_rcc.c ****   * @retval None
 831:../../../../dependencies/stm/STM32F4_Cube/Drivers/STM32F4xx_HAL_Driver/Src/stm32f4xx_hal_rcc.c ****   */
 832:../../../../dependencies/stm/STM32F4_Cube/Drivers/STM32F4xx_HAL_Driver/Src/stm32f4xx_hal_rcc.c **** void HAL_RCC_EnableCSS(void)
 833:../../../../dependencies/stm/STM32F4_Cube/Drivers/STM32F4xx_HAL_Driver/Src/stm32f4xx_hal_rcc.c **** {
 1254              		.loc 1 833 0
 1255              		.cfi_startproc
 1256              		@ args = 0, pretend = 0, frame = 0
 1257              		@ frame_needed = 1, uses_anonymous_args = 0
 1258              		@ link register save eliminated.
 1259 0000 80B4     		push	{r7}
 1260              	.LCFI19:
 1261              		.cfi_def_cfa_offset 4
 1262              		.cfi_offset 7, -4
ARM GAS  /var/folders/_8/_cw6l3nd335f_j6cn6z79m4m0000gn/T//ccTXFGg6.s 			page 38


 1263 0002 00AF     		add	r7, sp, #0
 1264              	.LCFI20:
 1265              		.cfi_def_cfa_register 7
 834:../../../../dependencies/stm/STM32F4_Cube/Drivers/STM32F4xx_HAL_Driver/Src/stm32f4xx_hal_rcc.c ****   *(__IO uint32_t *) RCC_CR_CSSON_BB = (uint32_t)ENABLE;
 1266              		.loc 1 834 0
 1267 0004 034B     		ldr	r3, .L88
 1268 0006 0122     		movs	r2, #1
 1269 0008 1A60     		str	r2, [r3]
 835:../../../../dependencies/stm/STM32F4_Cube/Drivers/STM32F4xx_HAL_Driver/Src/stm32f4xx_hal_rcc.c **** }
 1270              		.loc 1 835 0
 1271 000a BD46     		mov	sp, r7
 1272              	.LCFI21:
 1273              		.cfi_def_cfa_register 13
 1274              		@ sp needed
 1275 000c 5DF8047B 		ldr	r7, [sp], #4
 1276              	.LCFI22:
 1277              		.cfi_restore 7
 1278              		.cfi_def_cfa_offset 0
 1279 0010 7047     		bx	lr
 1280              	.L89:
 1281 0012 00BF     		.align	2
 1282              	.L88:
 1283 0014 4C004742 		.word	1111949388
 1284              		.cfi_endproc
 1285              	.LFE134:
 1287              		.section	.text.HAL_RCC_DisableCSS,"ax",%progbits
 1288              		.align	2
 1289              		.global	HAL_RCC_DisableCSS
 1290              		.thumb
 1291              		.thumb_func
 1293              	HAL_RCC_DisableCSS:
 1294              	.LFB135:
 836:../../../../dependencies/stm/STM32F4_Cube/Drivers/STM32F4xx_HAL_Driver/Src/stm32f4xx_hal_rcc.c **** 
 837:../../../../dependencies/stm/STM32F4_Cube/Drivers/STM32F4xx_HAL_Driver/Src/stm32f4xx_hal_rcc.c **** /**
 838:../../../../dependencies/stm/STM32F4_Cube/Drivers/STM32F4xx_HAL_Driver/Src/stm32f4xx_hal_rcc.c ****   * @brief  Disables the Clock Security System.
 839:../../../../dependencies/stm/STM32F4_Cube/Drivers/STM32F4xx_HAL_Driver/Src/stm32f4xx_hal_rcc.c ****   * @retval None
 840:../../../../dependencies/stm/STM32F4_Cube/Drivers/STM32F4xx_HAL_Driver/Src/stm32f4xx_hal_rcc.c ****   */
 841:../../../../dependencies/stm/STM32F4_Cube/Drivers/STM32F4xx_HAL_Driver/Src/stm32f4xx_hal_rcc.c **** void HAL_RCC_DisableCSS(void)
 842:../../../../dependencies/stm/STM32F4_Cube/Drivers/STM32F4xx_HAL_Driver/Src/stm32f4xx_hal_rcc.c **** {
 1295              		.loc 1 842 0
 1296              		.cfi_startproc
 1297              		@ args = 0, pretend = 0, frame = 0
 1298              		@ frame_needed = 1, uses_anonymous_args = 0
 1299              		@ link register save eliminated.
 1300 0000 80B4     		push	{r7}
 1301              	.LCFI23:
 1302              		.cfi_def_cfa_offset 4
 1303              		.cfi_offset 7, -4
 1304 0002 00AF     		add	r7, sp, #0
 1305              	.LCFI24:
 1306              		.cfi_def_cfa_register 7
 843:../../../../dependencies/stm/STM32F4_Cube/Drivers/STM32F4xx_HAL_Driver/Src/stm32f4xx_hal_rcc.c ****   *(__IO uint32_t *) RCC_CR_CSSON_BB = (uint32_t)DISABLE;
 1307              		.loc 1 843 0
 1308 0004 034B     		ldr	r3, .L91
 1309 0006 0022     		movs	r2, #0
 1310 0008 1A60     		str	r2, [r3]
 844:../../../../dependencies/stm/STM32F4_Cube/Drivers/STM32F4xx_HAL_Driver/Src/stm32f4xx_hal_rcc.c **** }
ARM GAS  /var/folders/_8/_cw6l3nd335f_j6cn6z79m4m0000gn/T//ccTXFGg6.s 			page 39


 1311              		.loc 1 844 0
 1312 000a BD46     		mov	sp, r7
 1313              	.LCFI25:
 1314              		.cfi_def_cfa_register 13
 1315              		@ sp needed
 1316 000c 5DF8047B 		ldr	r7, [sp], #4
 1317              	.LCFI26:
 1318              		.cfi_restore 7
 1319              		.cfi_def_cfa_offset 0
 1320 0010 7047     		bx	lr
 1321              	.L92:
 1322 0012 00BF     		.align	2
 1323              	.L91:
 1324 0014 4C004742 		.word	1111949388
 1325              		.cfi_endproc
 1326              	.LFE135:
 1328              		.global	__aeabi_uldivmod
 1329              		.section	.text.HAL_RCC_GetSysClockFreq,"ax",%progbits
 1330              		.align	2
 1331              		.weak	HAL_RCC_GetSysClockFreq
 1332              		.thumb
 1333              		.thumb_func
 1335              	HAL_RCC_GetSysClockFreq:
 1336              	.LFB136:
 845:../../../../dependencies/stm/STM32F4_Cube/Drivers/STM32F4xx_HAL_Driver/Src/stm32f4xx_hal_rcc.c **** 
 846:../../../../dependencies/stm/STM32F4_Cube/Drivers/STM32F4xx_HAL_Driver/Src/stm32f4xx_hal_rcc.c **** /**
 847:../../../../dependencies/stm/STM32F4_Cube/Drivers/STM32F4xx_HAL_Driver/Src/stm32f4xx_hal_rcc.c ****   * @brief  Returns the SYSCLK frequency
 848:../../../../dependencies/stm/STM32F4_Cube/Drivers/STM32F4xx_HAL_Driver/Src/stm32f4xx_hal_rcc.c ****   *
 849:../../../../dependencies/stm/STM32F4_Cube/Drivers/STM32F4xx_HAL_Driver/Src/stm32f4xx_hal_rcc.c ****   * @note   The system frequency computed by this function is not the real
 850:../../../../dependencies/stm/STM32F4_Cube/Drivers/STM32F4xx_HAL_Driver/Src/stm32f4xx_hal_rcc.c ****   *         frequency in the chip. It is calculated based on the predefined
 851:../../../../dependencies/stm/STM32F4_Cube/Drivers/STM32F4xx_HAL_Driver/Src/stm32f4xx_hal_rcc.c ****   *         constant and the selected clock source:
 852:../../../../dependencies/stm/STM32F4_Cube/Drivers/STM32F4xx_HAL_Driver/Src/stm32f4xx_hal_rcc.c ****   * @note     If SYSCLK source is HSI, function returns values based on HSI_VALUE(*)
 853:../../../../dependencies/stm/STM32F4_Cube/Drivers/STM32F4xx_HAL_Driver/Src/stm32f4xx_hal_rcc.c ****   * @note     If SYSCLK source is HSE, function returns values based on HSE_VALUE(**)
 854:../../../../dependencies/stm/STM32F4_Cube/Drivers/STM32F4xx_HAL_Driver/Src/stm32f4xx_hal_rcc.c ****   * @note     If SYSCLK source is PLL, function returns values based on HSE_VALUE(**)
 855:../../../../dependencies/stm/STM32F4_Cube/Drivers/STM32F4xx_HAL_Driver/Src/stm32f4xx_hal_rcc.c ****   *           or HSI_VALUE(*) multiplied/divided by the PLL factors.
 856:../../../../dependencies/stm/STM32F4_Cube/Drivers/STM32F4xx_HAL_Driver/Src/stm32f4xx_hal_rcc.c ****   * @note     (*) HSI_VALUE is a constant defined in stm32f4xx_hal_conf.h file (default value
 857:../../../../dependencies/stm/STM32F4_Cube/Drivers/STM32F4xx_HAL_Driver/Src/stm32f4xx_hal_rcc.c ****   *               16 MHz) but the real value may vary depending on the variations
 858:../../../../dependencies/stm/STM32F4_Cube/Drivers/STM32F4xx_HAL_Driver/Src/stm32f4xx_hal_rcc.c ****   *               in voltage and temperature.
 859:../../../../dependencies/stm/STM32F4_Cube/Drivers/STM32F4xx_HAL_Driver/Src/stm32f4xx_hal_rcc.c ****   * @note     (**) HSE_VALUE is a constant defined in stm32f4xx_hal_conf.h file (default value
 860:../../../../dependencies/stm/STM32F4_Cube/Drivers/STM32F4xx_HAL_Driver/Src/stm32f4xx_hal_rcc.c ****   *                25 MHz), user has to ensure that HSE_VALUE is same as the real
 861:../../../../dependencies/stm/STM32F4_Cube/Drivers/STM32F4xx_HAL_Driver/Src/stm32f4xx_hal_rcc.c ****   *                frequency of the crystal used. Otherwise, this function may
 862:../../../../dependencies/stm/STM32F4_Cube/Drivers/STM32F4xx_HAL_Driver/Src/stm32f4xx_hal_rcc.c ****   *                have wrong result.
 863:../../../../dependencies/stm/STM32F4_Cube/Drivers/STM32F4xx_HAL_Driver/Src/stm32f4xx_hal_rcc.c ****   *
 864:../../../../dependencies/stm/STM32F4_Cube/Drivers/STM32F4xx_HAL_Driver/Src/stm32f4xx_hal_rcc.c ****   * @note   The result of this function could be not correct when using fractional
 865:../../../../dependencies/stm/STM32F4_Cube/Drivers/STM32F4xx_HAL_Driver/Src/stm32f4xx_hal_rcc.c ****   *         value for HSE crystal.
 866:../../../../dependencies/stm/STM32F4_Cube/Drivers/STM32F4xx_HAL_Driver/Src/stm32f4xx_hal_rcc.c ****   *
 867:../../../../dependencies/stm/STM32F4_Cube/Drivers/STM32F4xx_HAL_Driver/Src/stm32f4xx_hal_rcc.c ****   * @note   This function can be used by the user application to compute the
 868:../../../../dependencies/stm/STM32F4_Cube/Drivers/STM32F4xx_HAL_Driver/Src/stm32f4xx_hal_rcc.c ****   *         baudrate for the communication peripherals or configure other parameters.
 869:../../../../dependencies/stm/STM32F4_Cube/Drivers/STM32F4xx_HAL_Driver/Src/stm32f4xx_hal_rcc.c ****   *
 870:../../../../dependencies/stm/STM32F4_Cube/Drivers/STM32F4xx_HAL_Driver/Src/stm32f4xx_hal_rcc.c ****   * @note   Each time SYSCLK changes, this function must be called to update the
 871:../../../../dependencies/stm/STM32F4_Cube/Drivers/STM32F4xx_HAL_Driver/Src/stm32f4xx_hal_rcc.c ****   *         right SYSCLK value. Otherwise, any configuration based on this function will be incorre
 872:../../../../dependencies/stm/STM32F4_Cube/Drivers/STM32F4xx_HAL_Driver/Src/stm32f4xx_hal_rcc.c ****   *
 873:../../../../dependencies/stm/STM32F4_Cube/Drivers/STM32F4xx_HAL_Driver/Src/stm32f4xx_hal_rcc.c ****   *
 874:../../../../dependencies/stm/STM32F4_Cube/Drivers/STM32F4xx_HAL_Driver/Src/stm32f4xx_hal_rcc.c ****   * @retval SYSCLK frequency
 875:../../../../dependencies/stm/STM32F4_Cube/Drivers/STM32F4xx_HAL_Driver/Src/stm32f4xx_hal_rcc.c ****   */
 876:../../../../dependencies/stm/STM32F4_Cube/Drivers/STM32F4xx_HAL_Driver/Src/stm32f4xx_hal_rcc.c **** __weak uint32_t HAL_RCC_GetSysClockFreq(void)
 877:../../../../dependencies/stm/STM32F4_Cube/Drivers/STM32F4xx_HAL_Driver/Src/stm32f4xx_hal_rcc.c **** {
ARM GAS  /var/folders/_8/_cw6l3nd335f_j6cn6z79m4m0000gn/T//ccTXFGg6.s 			page 40


 1337              		.loc 1 877 0
 1338              		.cfi_startproc
 1339              		@ args = 0, pretend = 0, frame = 56
 1340              		@ frame_needed = 1, uses_anonymous_args = 0
 1341 0000 2DE9F04F 		push	{r4, r5, r6, r7, r8, r9, r10, fp, lr}
 1342              	.LCFI27:
 1343              		.cfi_def_cfa_offset 36
 1344              		.cfi_offset 4, -36
 1345              		.cfi_offset 5, -32
 1346              		.cfi_offset 6, -28
 1347              		.cfi_offset 7, -24
 1348              		.cfi_offset 8, -20
 1349              		.cfi_offset 9, -16
 1350              		.cfi_offset 10, -12
 1351              		.cfi_offset 11, -8
 1352              		.cfi_offset 14, -4
 1353 0004 8FB0     		sub	sp, sp, #60
 1354              	.LCFI28:
 1355              		.cfi_def_cfa_offset 96
 1356 0006 00AF     		add	r7, sp, #0
 1357              	.LCFI29:
 1358              		.cfi_def_cfa_register 7
 878:../../../../dependencies/stm/STM32F4_Cube/Drivers/STM32F4xx_HAL_Driver/Src/stm32f4xx_hal_rcc.c ****   uint32_t pllm = 0U, pllvco = 0U, pllp = 0U;
 1359              		.loc 1 878 0
 1360 0008 0023     		movs	r3, #0
 1361 000a FB62     		str	r3, [r7, #44]
 1362 000c 0023     		movs	r3, #0
 1363 000e 7B63     		str	r3, [r7, #52]
 1364 0010 0023     		movs	r3, #0
 1365 0012 BB62     		str	r3, [r7, #40]
 879:../../../../dependencies/stm/STM32F4_Cube/Drivers/STM32F4xx_HAL_Driver/Src/stm32f4xx_hal_rcc.c ****   uint32_t sysclockfreq = 0U;
 1366              		.loc 1 879 0
 1367 0014 0023     		movs	r3, #0
 1368 0016 3B63     		str	r3, [r7, #48]
 880:../../../../dependencies/stm/STM32F4_Cube/Drivers/STM32F4xx_HAL_Driver/Src/stm32f4xx_hal_rcc.c **** 
 881:../../../../dependencies/stm/STM32F4_Cube/Drivers/STM32F4xx_HAL_Driver/Src/stm32f4xx_hal_rcc.c ****   /* Get SYSCLK source -------------------------------------------------------*/
 882:../../../../dependencies/stm/STM32F4_Cube/Drivers/STM32F4xx_HAL_Driver/Src/stm32f4xx_hal_rcc.c ****   switch (RCC->CFGR & RCC_CFGR_SWS)
 1369              		.loc 1 882 0
 1370 0018 614B     		ldr	r3, .L103
 1371 001a 9B68     		ldr	r3, [r3, #8]
 1372 001c 03F00C03 		and	r3, r3, #12
 1373 0020 042B     		cmp	r3, #4
 1374 0022 07D0     		beq	.L95
 1375 0024 082B     		cmp	r3, #8
 1376 0026 08D0     		beq	.L96
 1377 0028 002B     		cmp	r3, #0
 1378 002a 40F0AF80 		bne	.L102
 883:../../../../dependencies/stm/STM32F4_Cube/Drivers/STM32F4xx_HAL_Driver/Src/stm32f4xx_hal_rcc.c ****   {
 884:../../../../dependencies/stm/STM32F4_Cube/Drivers/STM32F4xx_HAL_Driver/Src/stm32f4xx_hal_rcc.c ****     case RCC_CFGR_SWS_HSI:  /* HSI used as system clock source */
 885:../../../../dependencies/stm/STM32F4_Cube/Drivers/STM32F4xx_HAL_Driver/Src/stm32f4xx_hal_rcc.c ****     {
 886:../../../../dependencies/stm/STM32F4_Cube/Drivers/STM32F4xx_HAL_Driver/Src/stm32f4xx_hal_rcc.c ****       sysclockfreq = HSI_VALUE;
 1379              		.loc 1 886 0
 1380 002e 5D4B     		ldr	r3, .L103+4
 1381 0030 3B63     		str	r3, [r7, #48]
 887:../../../../dependencies/stm/STM32F4_Cube/Drivers/STM32F4xx_HAL_Driver/Src/stm32f4xx_hal_rcc.c ****        break;
 1382              		.loc 1 887 0
 1383 0032 AEE0     		b	.L98
ARM GAS  /var/folders/_8/_cw6l3nd335f_j6cn6z79m4m0000gn/T//ccTXFGg6.s 			page 41


 1384              	.L95:
 888:../../../../dependencies/stm/STM32F4_Cube/Drivers/STM32F4xx_HAL_Driver/Src/stm32f4xx_hal_rcc.c ****     }
 889:../../../../dependencies/stm/STM32F4_Cube/Drivers/STM32F4xx_HAL_Driver/Src/stm32f4xx_hal_rcc.c ****     case RCC_CFGR_SWS_HSE:  /* HSE used as system clock  source */
 890:../../../../dependencies/stm/STM32F4_Cube/Drivers/STM32F4xx_HAL_Driver/Src/stm32f4xx_hal_rcc.c ****     {
 891:../../../../dependencies/stm/STM32F4_Cube/Drivers/STM32F4xx_HAL_Driver/Src/stm32f4xx_hal_rcc.c ****       sysclockfreq = HSE_VALUE;
 1385              		.loc 1 891 0
 1386 0034 5C4B     		ldr	r3, .L103+8
 1387 0036 3B63     		str	r3, [r7, #48]
 892:../../../../dependencies/stm/STM32F4_Cube/Drivers/STM32F4xx_HAL_Driver/Src/stm32f4xx_hal_rcc.c ****       break;
 1388              		.loc 1 892 0
 1389 0038 ABE0     		b	.L98
 1390              	.L96:
 893:../../../../dependencies/stm/STM32F4_Cube/Drivers/STM32F4xx_HAL_Driver/Src/stm32f4xx_hal_rcc.c ****     }
 894:../../../../dependencies/stm/STM32F4_Cube/Drivers/STM32F4xx_HAL_Driver/Src/stm32f4xx_hal_rcc.c ****     case RCC_CFGR_SWS_PLL:  /* PLL used as system clock  source */
 895:../../../../dependencies/stm/STM32F4_Cube/Drivers/STM32F4xx_HAL_Driver/Src/stm32f4xx_hal_rcc.c ****     {
 896:../../../../dependencies/stm/STM32F4_Cube/Drivers/STM32F4xx_HAL_Driver/Src/stm32f4xx_hal_rcc.c ****       /* PLL_VCO = (HSE_VALUE or HSI_VALUE / PLLM) * PLLN
 897:../../../../dependencies/stm/STM32F4_Cube/Drivers/STM32F4xx_HAL_Driver/Src/stm32f4xx_hal_rcc.c ****       SYSCLK = PLL_VCO / PLLP */
 898:../../../../dependencies/stm/STM32F4_Cube/Drivers/STM32F4xx_HAL_Driver/Src/stm32f4xx_hal_rcc.c ****       pllm = RCC->PLLCFGR & RCC_PLLCFGR_PLLM;
 1391              		.loc 1 898 0
 1392 003a 594B     		ldr	r3, .L103
 1393 003c 5B68     		ldr	r3, [r3, #4]
 1394 003e 03F03F03 		and	r3, r3, #63
 1395 0042 FB62     		str	r3, [r7, #44]
 899:../../../../dependencies/stm/STM32F4_Cube/Drivers/STM32F4xx_HAL_Driver/Src/stm32f4xx_hal_rcc.c ****       if(__HAL_RCC_GET_PLL_OSCSOURCE() != RCC_PLLSOURCE_HSI)
 1396              		.loc 1 899 0
 1397 0044 564B     		ldr	r3, .L103
 1398 0046 5B68     		ldr	r3, [r3, #4]
 1399 0048 03F48003 		and	r3, r3, #4194304
 1400 004c 002B     		cmp	r3, #0
 1401 004e 4DD0     		beq	.L99
 900:../../../../dependencies/stm/STM32F4_Cube/Drivers/STM32F4xx_HAL_Driver/Src/stm32f4xx_hal_rcc.c ****       {
 901:../../../../dependencies/stm/STM32F4_Cube/Drivers/STM32F4xx_HAL_Driver/Src/stm32f4xx_hal_rcc.c ****         /* HSE used as PLL clock source */
 902:../../../../dependencies/stm/STM32F4_Cube/Drivers/STM32F4xx_HAL_Driver/Src/stm32f4xx_hal_rcc.c ****         pllvco = (uint32_t) ((((uint64_t) HSE_VALUE * ((uint64_t) ((RCC->PLLCFGR & RCC_PLLCFGR_PLLN
 1402              		.loc 1 902 0
 1403 0050 534B     		ldr	r3, .L103
 1404 0052 5A68     		ldr	r2, [r3, #4]
 1405 0054 47F6C073 		movw	r3, #32704
 1406 0058 1340     		ands	r3, r3, r2
 1407 005a 9B09     		lsrs	r3, r3, #6
 1408 005c 1846     		mov	r0, r3
 1409 005e 4FF00001 		mov	r1, #0
 1410 0062 0246     		mov	r2, r0
 1411 0064 0B46     		mov	r3, r1
 1412 0066 DC00     		lsls	r4, r3, #3
 1413 0068 7C62     		str	r4, [r7, #36]
 1414 006a 7C6A     		ldr	r4, [r7, #36]
 1415 006c 44EA5274 		orr	r4, r4, r2, lsr #29
 1416 0070 7C62     		str	r4, [r7, #36]
 1417 0072 D300     		lsls	r3, r2, #3
 1418 0074 3B62     		str	r3, [r7, #32]
 1419 0076 D7E90823 		ldrd	r2, [r7, #32]
 1420 007a 5C01     		lsls	r4, r3, #5
 1421 007c FC61     		str	r4, [r7, #28]
 1422 007e FC69     		ldr	r4, [r7, #28]
 1423 0080 44EAD264 		orr	r4, r4, r2, lsr #27
 1424 0084 FC61     		str	r4, [r7, #28]
 1425 0086 5401     		lsls	r4, r2, #5
ARM GAS  /var/folders/_8/_cw6l3nd335f_j6cn6z79m4m0000gn/T//ccTXFGg6.s 			page 42


 1426 0088 BC61     		str	r4, [r7, #24]
 1427 008a D7E90645 		ldrd	r4, [r7, #24]
 1428 008e A41A     		subs	r4, r4, r2
 1429 0090 65EB0305 		sbc	r5, r5, r3
 1430 0094 2B46     		mov	r3, r5
 1431 0096 4FEA8319 		lsl	r9, r3, #6
 1432 009a 2346     		mov	r3, r4
 1433 009c 49EA9369 		orr	r9, r9, r3, lsr #26
 1434 00a0 2346     		mov	r3, r4
 1435 00a2 4FEA8318 		lsl	r8, r3, #6
 1436 00a6 B8EB0404 		subs	r4, r8, r4
 1437 00aa 69EB0505 		sbc	r5, r9, r5
 1438 00ae A046     		mov	r8, r4
 1439 00b0 A946     		mov	r9, r5
 1440 00b2 18EB0008 		adds	r8, r8, r0
 1441 00b6 49EB0109 		adc	r9, r9, r1
 1442 00ba 4FEA4923 		lsl	r3, r9, #9
 1443 00be 7B61     		str	r3, [r7, #20]
 1444 00c0 7B69     		ldr	r3, [r7, #20]
 1445 00c2 43EAD853 		orr	r3, r3, r8, lsr #23
 1446 00c6 7B61     		str	r3, [r7, #20]
 1447 00c8 4FEA4823 		lsl	r3, r8, #9
 1448 00cc 3B61     		str	r3, [r7, #16]
 1449 00ce D7E90489 		ldrd	r8, [r7, #16]
 1450 00d2 4046     		mov	r0, r8
 1451 00d4 4946     		mov	r1, r9
 1452 00d6 FB6A     		ldr	r3, [r7, #44]
 1453 00d8 1A46     		mov	r2, r3
 1454 00da 4FF00003 		mov	r3, #0
 1455 00de FFF7FEFF 		bl	__aeabi_uldivmod
 1456 00e2 0246     		mov	r2, r0
 1457 00e4 0B46     		mov	r3, r1
 1458 00e6 1346     		mov	r3, r2
 1459 00e8 7B63     		str	r3, [r7, #52]
 1460 00ea 41E0     		b	.L100
 1461              	.L99:
 903:../../../../dependencies/stm/STM32F4_Cube/Drivers/STM32F4xx_HAL_Driver/Src/stm32f4xx_hal_rcc.c ****       }
 904:../../../../dependencies/stm/STM32F4_Cube/Drivers/STM32F4xx_HAL_Driver/Src/stm32f4xx_hal_rcc.c ****       else
 905:../../../../dependencies/stm/STM32F4_Cube/Drivers/STM32F4xx_HAL_Driver/Src/stm32f4xx_hal_rcc.c ****       {
 906:../../../../dependencies/stm/STM32F4_Cube/Drivers/STM32F4xx_HAL_Driver/Src/stm32f4xx_hal_rcc.c ****         /* HSI used as PLL clock source */
 907:../../../../dependencies/stm/STM32F4_Cube/Drivers/STM32F4xx_HAL_Driver/Src/stm32f4xx_hal_rcc.c ****         pllvco = (uint32_t) ((((uint64_t) HSI_VALUE * ((uint64_t) ((RCC->PLLCFGR & RCC_PLLCFGR_PLLN
 1462              		.loc 1 907 0
 1463 00ec 2C4B     		ldr	r3, .L103
 1464 00ee 5A68     		ldr	r2, [r3, #4]
 1465 00f0 47F6C073 		movw	r3, #32704
 1466 00f4 1340     		ands	r3, r3, r2
 1467 00f6 9B09     		lsrs	r3, r3, #6
 1468 00f8 1846     		mov	r0, r3
 1469 00fa 4FF00001 		mov	r1, #0
 1470 00fe 0246     		mov	r2, r0
 1471 0100 0B46     		mov	r3, r1
 1472 0102 DE00     		lsls	r6, r3, #3
 1473 0104 FE60     		str	r6, [r7, #12]
 1474 0106 FE68     		ldr	r6, [r7, #12]
 1475 0108 46EA5276 		orr	r6, r6, r2, lsr #29
 1476 010c FE60     		str	r6, [r7, #12]
 1477 010e D300     		lsls	r3, r2, #3
ARM GAS  /var/folders/_8/_cw6l3nd335f_j6cn6z79m4m0000gn/T//ccTXFGg6.s 			page 43


 1478 0110 BB60     		str	r3, [r7, #8]
 1479 0112 D7E90223 		ldrd	r2, [r7, #8]
 1480 0116 4FEA431B 		lsl	fp, r3, #5
 1481 011a 4BEAD26B 		orr	fp, fp, r2, lsr #27
 1482 011e 4FEA421A 		lsl	r10, r2, #5
 1483 0122 BAEB020A 		subs	r10, r10, r2
 1484 0126 6BEB030B 		sbc	fp, fp, r3
 1485 012a 4FEA8B15 		lsl	r5, fp, #6
 1486 012e 45EA9A65 		orr	r5, r5, r10, lsr #26
 1487 0132 4FEA8A14 		lsl	r4, r10, #6
 1488 0136 B4EB0A04 		subs	r4, r4, r10
 1489 013a 65EB0B05 		sbc	r5, r5, fp
 1490 013e 2418     		adds	r4, r4, r0
 1491 0140 45EB0105 		adc	r5, r5, r1
 1492 0144 AB02     		lsls	r3, r5, #10
 1493 0146 7B60     		str	r3, [r7, #4]
 1494 0148 7B68     		ldr	r3, [r7, #4]
 1495 014a 43EA9453 		orr	r3, r3, r4, lsr #22
 1496 014e 7B60     		str	r3, [r7, #4]
 1497 0150 A302     		lsls	r3, r4, #10
 1498 0152 3B60     		str	r3, [r7]
 1499 0154 D7E90045 		ldrd	r4, [r7]
 1500 0158 2046     		mov	r0, r4
 1501 015a 2946     		mov	r1, r5
 1502 015c FB6A     		ldr	r3, [r7, #44]
 1503 015e 1A46     		mov	r2, r3
 1504 0160 4FF00003 		mov	r3, #0
 1505 0164 FFF7FEFF 		bl	__aeabi_uldivmod
 1506 0168 0246     		mov	r2, r0
 1507 016a 0B46     		mov	r3, r1
 1508 016c 1346     		mov	r3, r2
 1509 016e 7B63     		str	r3, [r7, #52]
 1510              	.L100:
 908:../../../../dependencies/stm/STM32F4_Cube/Drivers/STM32F4xx_HAL_Driver/Src/stm32f4xx_hal_rcc.c ****       }
 909:../../../../dependencies/stm/STM32F4_Cube/Drivers/STM32F4xx_HAL_Driver/Src/stm32f4xx_hal_rcc.c ****       pllp = ((((RCC->PLLCFGR & RCC_PLLCFGR_PLLP) >> RCC_PLLCFGR_PLLP_Pos) + 1U) *2U);
 1511              		.loc 1 909 0
 1512 0170 0B4B     		ldr	r3, .L103
 1513 0172 5B68     		ldr	r3, [r3, #4]
 1514 0174 03F44033 		and	r3, r3, #196608
 1515 0178 1B0C     		lsrs	r3, r3, #16
 1516 017a 0133     		adds	r3, r3, #1
 1517 017c 5B00     		lsls	r3, r3, #1
 1518 017e BB62     		str	r3, [r7, #40]
 910:../../../../dependencies/stm/STM32F4_Cube/Drivers/STM32F4xx_HAL_Driver/Src/stm32f4xx_hal_rcc.c **** 
 911:../../../../dependencies/stm/STM32F4_Cube/Drivers/STM32F4xx_HAL_Driver/Src/stm32f4xx_hal_rcc.c ****       sysclockfreq = pllvco/pllp;
 1519              		.loc 1 911 0
 1520 0180 7A6B     		ldr	r2, [r7, #52]
 1521 0182 BB6A     		ldr	r3, [r7, #40]
 1522 0184 B2FBF3F3 		udiv	r3, r2, r3
 1523 0188 3B63     		str	r3, [r7, #48]
 912:../../../../dependencies/stm/STM32F4_Cube/Drivers/STM32F4xx_HAL_Driver/Src/stm32f4xx_hal_rcc.c ****       break;
 1524              		.loc 1 912 0
 1525 018a 02E0     		b	.L98
 1526              	.L102:
 913:../../../../dependencies/stm/STM32F4_Cube/Drivers/STM32F4xx_HAL_Driver/Src/stm32f4xx_hal_rcc.c ****     }
 914:../../../../dependencies/stm/STM32F4_Cube/Drivers/STM32F4xx_HAL_Driver/Src/stm32f4xx_hal_rcc.c ****     default:
 915:../../../../dependencies/stm/STM32F4_Cube/Drivers/STM32F4xx_HAL_Driver/Src/stm32f4xx_hal_rcc.c ****     {
ARM GAS  /var/folders/_8/_cw6l3nd335f_j6cn6z79m4m0000gn/T//ccTXFGg6.s 			page 44


 916:../../../../dependencies/stm/STM32F4_Cube/Drivers/STM32F4xx_HAL_Driver/Src/stm32f4xx_hal_rcc.c ****       sysclockfreq = HSI_VALUE;
 1527              		.loc 1 916 0
 1528 018c 054B     		ldr	r3, .L103+4
 1529 018e 3B63     		str	r3, [r7, #48]
 917:../../../../dependencies/stm/STM32F4_Cube/Drivers/STM32F4xx_HAL_Driver/Src/stm32f4xx_hal_rcc.c ****       break;
 1530              		.loc 1 917 0
 1531 0190 00BF     		nop
 1532              	.L98:
 918:../../../../dependencies/stm/STM32F4_Cube/Drivers/STM32F4xx_HAL_Driver/Src/stm32f4xx_hal_rcc.c ****     }
 919:../../../../dependencies/stm/STM32F4_Cube/Drivers/STM32F4xx_HAL_Driver/Src/stm32f4xx_hal_rcc.c ****   }
 920:../../../../dependencies/stm/STM32F4_Cube/Drivers/STM32F4xx_HAL_Driver/Src/stm32f4xx_hal_rcc.c ****   return sysclockfreq;
 1533              		.loc 1 920 0
 1534 0192 3B6B     		ldr	r3, [r7, #48]
 921:../../../../dependencies/stm/STM32F4_Cube/Drivers/STM32F4xx_HAL_Driver/Src/stm32f4xx_hal_rcc.c **** }
 1535              		.loc 1 921 0
 1536 0194 1846     		mov	r0, r3
 1537 0196 3C37     		adds	r7, r7, #60
 1538              	.LCFI30:
 1539              		.cfi_def_cfa_offset 36
 1540 0198 BD46     		mov	sp, r7
 1541              	.LCFI31:
 1542              		.cfi_def_cfa_register 13
 1543              		@ sp needed
 1544 019a BDE8F08F 		pop	{r4, r5, r6, r7, r8, r9, r10, fp, pc}
 1545              	.L104:
 1546 019e 00BF     		.align	2
 1547              	.L103:
 1548 01a0 00380240 		.word	1073887232
 1549 01a4 0024F400 		.word	16000000
 1550 01a8 00127A00 		.word	8000000
 1551              		.cfi_endproc
 1552              	.LFE136:
 1554              		.section	.text.HAL_RCC_GetHCLKFreq,"ax",%progbits
 1555              		.align	2
 1556              		.global	HAL_RCC_GetHCLKFreq
 1557              		.thumb
 1558              		.thumb_func
 1560              	HAL_RCC_GetHCLKFreq:
 1561              	.LFB137:
 922:../../../../dependencies/stm/STM32F4_Cube/Drivers/STM32F4xx_HAL_Driver/Src/stm32f4xx_hal_rcc.c **** 
 923:../../../../dependencies/stm/STM32F4_Cube/Drivers/STM32F4xx_HAL_Driver/Src/stm32f4xx_hal_rcc.c **** /**
 924:../../../../dependencies/stm/STM32F4_Cube/Drivers/STM32F4xx_HAL_Driver/Src/stm32f4xx_hal_rcc.c ****   * @brief  Returns the HCLK frequency
 925:../../../../dependencies/stm/STM32F4_Cube/Drivers/STM32F4xx_HAL_Driver/Src/stm32f4xx_hal_rcc.c ****   * @note   Each time HCLK changes, this function must be called to update the
 926:../../../../dependencies/stm/STM32F4_Cube/Drivers/STM32F4xx_HAL_Driver/Src/stm32f4xx_hal_rcc.c ****   *         right HCLK value. Otherwise, any configuration based on this function will be incorrect
 927:../../../../dependencies/stm/STM32F4_Cube/Drivers/STM32F4xx_HAL_Driver/Src/stm32f4xx_hal_rcc.c ****   *
 928:../../../../dependencies/stm/STM32F4_Cube/Drivers/STM32F4xx_HAL_Driver/Src/stm32f4xx_hal_rcc.c ****   * @note   The SystemCoreClock CMSIS variable is used to store System Clock Frequency
 929:../../../../dependencies/stm/STM32F4_Cube/Drivers/STM32F4xx_HAL_Driver/Src/stm32f4xx_hal_rcc.c ****   *         and updated within this function
 930:../../../../dependencies/stm/STM32F4_Cube/Drivers/STM32F4xx_HAL_Driver/Src/stm32f4xx_hal_rcc.c ****   * @retval HCLK frequency
 931:../../../../dependencies/stm/STM32F4_Cube/Drivers/STM32F4xx_HAL_Driver/Src/stm32f4xx_hal_rcc.c ****   */
 932:../../../../dependencies/stm/STM32F4_Cube/Drivers/STM32F4xx_HAL_Driver/Src/stm32f4xx_hal_rcc.c **** uint32_t HAL_RCC_GetHCLKFreq(void)
 933:../../../../dependencies/stm/STM32F4_Cube/Drivers/STM32F4xx_HAL_Driver/Src/stm32f4xx_hal_rcc.c **** {
 1562              		.loc 1 933 0
 1563              		.cfi_startproc
 1564              		@ args = 0, pretend = 0, frame = 0
 1565              		@ frame_needed = 1, uses_anonymous_args = 0
 1566              		@ link register save eliminated.
 1567 0000 80B4     		push	{r7}
ARM GAS  /var/folders/_8/_cw6l3nd335f_j6cn6z79m4m0000gn/T//ccTXFGg6.s 			page 45


 1568              	.LCFI32:
 1569              		.cfi_def_cfa_offset 4
 1570              		.cfi_offset 7, -4
 1571 0002 00AF     		add	r7, sp, #0
 1572              	.LCFI33:
 1573              		.cfi_def_cfa_register 7
 934:../../../../dependencies/stm/STM32F4_Cube/Drivers/STM32F4xx_HAL_Driver/Src/stm32f4xx_hal_rcc.c ****   return SystemCoreClock;
 1574              		.loc 1 934 0
 1575 0004 034B     		ldr	r3, .L107
 1576 0006 1B68     		ldr	r3, [r3]
 935:../../../../dependencies/stm/STM32F4_Cube/Drivers/STM32F4xx_HAL_Driver/Src/stm32f4xx_hal_rcc.c **** }
 1577              		.loc 1 935 0
 1578 0008 1846     		mov	r0, r3
 1579 000a BD46     		mov	sp, r7
 1580              	.LCFI34:
 1581              		.cfi_def_cfa_register 13
 1582              		@ sp needed
 1583 000c 5DF8047B 		ldr	r7, [sp], #4
 1584              	.LCFI35:
 1585              		.cfi_restore 7
 1586              		.cfi_def_cfa_offset 0
 1587 0010 7047     		bx	lr
 1588              	.L108:
 1589 0012 00BF     		.align	2
 1590              	.L107:
 1591 0014 00000000 		.word	SystemCoreClock
 1592              		.cfi_endproc
 1593              	.LFE137:
 1595              		.section	.text.HAL_RCC_GetPCLK1Freq,"ax",%progbits
 1596              		.align	2
 1597              		.global	HAL_RCC_GetPCLK1Freq
 1598              		.thumb
 1599              		.thumb_func
 1601              	HAL_RCC_GetPCLK1Freq:
 1602              	.LFB138:
 936:../../../../dependencies/stm/STM32F4_Cube/Drivers/STM32F4xx_HAL_Driver/Src/stm32f4xx_hal_rcc.c **** 
 937:../../../../dependencies/stm/STM32F4_Cube/Drivers/STM32F4xx_HAL_Driver/Src/stm32f4xx_hal_rcc.c **** /**
 938:../../../../dependencies/stm/STM32F4_Cube/Drivers/STM32F4xx_HAL_Driver/Src/stm32f4xx_hal_rcc.c ****   * @brief  Returns the PCLK1 frequency
 939:../../../../dependencies/stm/STM32F4_Cube/Drivers/STM32F4xx_HAL_Driver/Src/stm32f4xx_hal_rcc.c ****   * @note   Each time PCLK1 changes, this function must be called to update the
 940:../../../../dependencies/stm/STM32F4_Cube/Drivers/STM32F4xx_HAL_Driver/Src/stm32f4xx_hal_rcc.c ****   *         right PCLK1 value. Otherwise, any configuration based on this function will be incorrec
 941:../../../../dependencies/stm/STM32F4_Cube/Drivers/STM32F4xx_HAL_Driver/Src/stm32f4xx_hal_rcc.c ****   * @retval PCLK1 frequency
 942:../../../../dependencies/stm/STM32F4_Cube/Drivers/STM32F4xx_HAL_Driver/Src/stm32f4xx_hal_rcc.c ****   */
 943:../../../../dependencies/stm/STM32F4_Cube/Drivers/STM32F4xx_HAL_Driver/Src/stm32f4xx_hal_rcc.c **** uint32_t HAL_RCC_GetPCLK1Freq(void)
 944:../../../../dependencies/stm/STM32F4_Cube/Drivers/STM32F4xx_HAL_Driver/Src/stm32f4xx_hal_rcc.c **** {
 1603              		.loc 1 944 0
 1604              		.cfi_startproc
 1605              		@ args = 0, pretend = 0, frame = 0
 1606              		@ frame_needed = 1, uses_anonymous_args = 0
 1607 0000 80B5     		push	{r7, lr}
 1608              	.LCFI36:
 1609              		.cfi_def_cfa_offset 8
 1610              		.cfi_offset 7, -8
 1611              		.cfi_offset 14, -4
 1612 0002 00AF     		add	r7, sp, #0
 1613              	.LCFI37:
 1614              		.cfi_def_cfa_register 7
 945:../../../../dependencies/stm/STM32F4_Cube/Drivers/STM32F4xx_HAL_Driver/Src/stm32f4xx_hal_rcc.c ****   /* Get HCLK source and Compute PCLK1 frequency ---------------------------*/
ARM GAS  /var/folders/_8/_cw6l3nd335f_j6cn6z79m4m0000gn/T//ccTXFGg6.s 			page 46


 946:../../../../dependencies/stm/STM32F4_Cube/Drivers/STM32F4xx_HAL_Driver/Src/stm32f4xx_hal_rcc.c ****   return (HAL_RCC_GetHCLKFreq() >> APBPrescTable[(RCC->CFGR & RCC_CFGR_PPRE1)>> RCC_CFGR_PPRE1_Pos]
 1615              		.loc 1 946 0
 1616 0004 FFF7FEFF 		bl	HAL_RCC_GetHCLKFreq
 1617 0008 0146     		mov	r1, r0
 1618 000a 054B     		ldr	r3, .L111
 1619 000c 9B68     		ldr	r3, [r3, #8]
 1620 000e 03F4E053 		and	r3, r3, #7168
 1621 0012 9B0A     		lsrs	r3, r3, #10
 1622 0014 034A     		ldr	r2, .L111+4
 1623 0016 D35C     		ldrb	r3, [r2, r3]	@ zero_extendqisi2
 1624 0018 21FA03F3 		lsr	r3, r1, r3
 947:../../../../dependencies/stm/STM32F4_Cube/Drivers/STM32F4xx_HAL_Driver/Src/stm32f4xx_hal_rcc.c **** }
 1625              		.loc 1 947 0
 1626 001c 1846     		mov	r0, r3
 1627 001e 80BD     		pop	{r7, pc}
 1628              	.L112:
 1629              		.align	2
 1630              	.L111:
 1631 0020 00380240 		.word	1073887232
 1632 0024 00000000 		.word	APBPrescTable
 1633              		.cfi_endproc
 1634              	.LFE138:
 1636              		.section	.text.HAL_RCC_GetPCLK2Freq,"ax",%progbits
 1637              		.align	2
 1638              		.global	HAL_RCC_GetPCLK2Freq
 1639              		.thumb
 1640              		.thumb_func
 1642              	HAL_RCC_GetPCLK2Freq:
 1643              	.LFB139:
 948:../../../../dependencies/stm/STM32F4_Cube/Drivers/STM32F4xx_HAL_Driver/Src/stm32f4xx_hal_rcc.c **** 
 949:../../../../dependencies/stm/STM32F4_Cube/Drivers/STM32F4xx_HAL_Driver/Src/stm32f4xx_hal_rcc.c **** /**
 950:../../../../dependencies/stm/STM32F4_Cube/Drivers/STM32F4xx_HAL_Driver/Src/stm32f4xx_hal_rcc.c ****   * @brief  Returns the PCLK2 frequency
 951:../../../../dependencies/stm/STM32F4_Cube/Drivers/STM32F4xx_HAL_Driver/Src/stm32f4xx_hal_rcc.c ****   * @note   Each time PCLK2 changes, this function must be called to update the
 952:../../../../dependencies/stm/STM32F4_Cube/Drivers/STM32F4xx_HAL_Driver/Src/stm32f4xx_hal_rcc.c ****   *         right PCLK2 value. Otherwise, any configuration based on this function will be incorrec
 953:../../../../dependencies/stm/STM32F4_Cube/Drivers/STM32F4xx_HAL_Driver/Src/stm32f4xx_hal_rcc.c ****   * @retval PCLK2 frequency
 954:../../../../dependencies/stm/STM32F4_Cube/Drivers/STM32F4xx_HAL_Driver/Src/stm32f4xx_hal_rcc.c ****   */
 955:../../../../dependencies/stm/STM32F4_Cube/Drivers/STM32F4xx_HAL_Driver/Src/stm32f4xx_hal_rcc.c **** uint32_t HAL_RCC_GetPCLK2Freq(void)
 956:../../../../dependencies/stm/STM32F4_Cube/Drivers/STM32F4xx_HAL_Driver/Src/stm32f4xx_hal_rcc.c **** {
 1644              		.loc 1 956 0
 1645              		.cfi_startproc
 1646              		@ args = 0, pretend = 0, frame = 0
 1647              		@ frame_needed = 1, uses_anonymous_args = 0
 1648 0000 80B5     		push	{r7, lr}
 1649              	.LCFI38:
 1650              		.cfi_def_cfa_offset 8
 1651              		.cfi_offset 7, -8
 1652              		.cfi_offset 14, -4
 1653 0002 00AF     		add	r7, sp, #0
 1654              	.LCFI39:
 1655              		.cfi_def_cfa_register 7
 957:../../../../dependencies/stm/STM32F4_Cube/Drivers/STM32F4xx_HAL_Driver/Src/stm32f4xx_hal_rcc.c ****   /* Get HCLK source and Compute PCLK2 frequency ---------------------------*/
 958:../../../../dependencies/stm/STM32F4_Cube/Drivers/STM32F4xx_HAL_Driver/Src/stm32f4xx_hal_rcc.c ****   return (HAL_RCC_GetHCLKFreq()>> APBPrescTable[(RCC->CFGR & RCC_CFGR_PPRE2)>> RCC_CFGR_PPRE2_Pos])
 1656              		.loc 1 958 0
 1657 0004 FFF7FEFF 		bl	HAL_RCC_GetHCLKFreq
 1658 0008 0146     		mov	r1, r0
 1659 000a 054B     		ldr	r3, .L115
 1660 000c 9B68     		ldr	r3, [r3, #8]
ARM GAS  /var/folders/_8/_cw6l3nd335f_j6cn6z79m4m0000gn/T//ccTXFGg6.s 			page 47


 1661 000e 03F46043 		and	r3, r3, #57344
 1662 0012 5B0B     		lsrs	r3, r3, #13
 1663 0014 034A     		ldr	r2, .L115+4
 1664 0016 D35C     		ldrb	r3, [r2, r3]	@ zero_extendqisi2
 1665 0018 21FA03F3 		lsr	r3, r1, r3
 959:../../../../dependencies/stm/STM32F4_Cube/Drivers/STM32F4xx_HAL_Driver/Src/stm32f4xx_hal_rcc.c **** }
 1666              		.loc 1 959 0
 1667 001c 1846     		mov	r0, r3
 1668 001e 80BD     		pop	{r7, pc}
 1669              	.L116:
 1670              		.align	2
 1671              	.L115:
 1672 0020 00380240 		.word	1073887232
 1673 0024 00000000 		.word	APBPrescTable
 1674              		.cfi_endproc
 1675              	.LFE139:
 1677              		.section	.text.HAL_RCC_GetOscConfig,"ax",%progbits
 1678              		.align	2
 1679              		.weak	HAL_RCC_GetOscConfig
 1680              		.thumb
 1681              		.thumb_func
 1683              	HAL_RCC_GetOscConfig:
 1684              	.LFB140:
 960:../../../../dependencies/stm/STM32F4_Cube/Drivers/STM32F4xx_HAL_Driver/Src/stm32f4xx_hal_rcc.c **** 
 961:../../../../dependencies/stm/STM32F4_Cube/Drivers/STM32F4xx_HAL_Driver/Src/stm32f4xx_hal_rcc.c **** /**
 962:../../../../dependencies/stm/STM32F4_Cube/Drivers/STM32F4xx_HAL_Driver/Src/stm32f4xx_hal_rcc.c ****   * @brief  Configures the RCC_OscInitStruct according to the internal
 963:../../../../dependencies/stm/STM32F4_Cube/Drivers/STM32F4xx_HAL_Driver/Src/stm32f4xx_hal_rcc.c ****   * RCC configuration registers.
 964:../../../../dependencies/stm/STM32F4_Cube/Drivers/STM32F4xx_HAL_Driver/Src/stm32f4xx_hal_rcc.c ****   * @param  RCC_OscInitStruct pointer to an RCC_OscInitTypeDef structure that
 965:../../../../dependencies/stm/STM32F4_Cube/Drivers/STM32F4xx_HAL_Driver/Src/stm32f4xx_hal_rcc.c ****   * will be configured.
 966:../../../../dependencies/stm/STM32F4_Cube/Drivers/STM32F4xx_HAL_Driver/Src/stm32f4xx_hal_rcc.c ****   * @retval None
 967:../../../../dependencies/stm/STM32F4_Cube/Drivers/STM32F4xx_HAL_Driver/Src/stm32f4xx_hal_rcc.c ****   */
 968:../../../../dependencies/stm/STM32F4_Cube/Drivers/STM32F4xx_HAL_Driver/Src/stm32f4xx_hal_rcc.c **** __weak void HAL_RCC_GetOscConfig(RCC_OscInitTypeDef  *RCC_OscInitStruct)
 969:../../../../dependencies/stm/STM32F4_Cube/Drivers/STM32F4xx_HAL_Driver/Src/stm32f4xx_hal_rcc.c **** {
 1685              		.loc 1 969 0
 1686              		.cfi_startproc
 1687              		@ args = 0, pretend = 0, frame = 8
 1688              		@ frame_needed = 1, uses_anonymous_args = 0
 1689              		@ link register save eliminated.
 1690 0000 80B4     		push	{r7}
 1691              	.LCFI40:
 1692              		.cfi_def_cfa_offset 4
 1693              		.cfi_offset 7, -4
 1694 0002 83B0     		sub	sp, sp, #12
 1695              	.LCFI41:
 1696              		.cfi_def_cfa_offset 16
 1697 0004 00AF     		add	r7, sp, #0
 1698              	.LCFI42:
 1699              		.cfi_def_cfa_register 7
 1700 0006 7860     		str	r0, [r7, #4]
 970:../../../../dependencies/stm/STM32F4_Cube/Drivers/STM32F4xx_HAL_Driver/Src/stm32f4xx_hal_rcc.c ****   /* Set all possible values for the Oscillator type parameter ---------------*/
 971:../../../../dependencies/stm/STM32F4_Cube/Drivers/STM32F4xx_HAL_Driver/Src/stm32f4xx_hal_rcc.c ****   RCC_OscInitStruct->OscillatorType = RCC_OSCILLATORTYPE_HSE | RCC_OSCILLATORTYPE_HSI | RCC_OSCILLA
 1701              		.loc 1 971 0
 1702 0008 7B68     		ldr	r3, [r7, #4]
 1703 000a 0F22     		movs	r2, #15
 1704 000c 1A60     		str	r2, [r3]
 972:../../../../dependencies/stm/STM32F4_Cube/Drivers/STM32F4xx_HAL_Driver/Src/stm32f4xx_hal_rcc.c **** 
 973:../../../../dependencies/stm/STM32F4_Cube/Drivers/STM32F4xx_HAL_Driver/Src/stm32f4xx_hal_rcc.c ****   /* Get the HSE configuration -----------------------------------------------*/
ARM GAS  /var/folders/_8/_cw6l3nd335f_j6cn6z79m4m0000gn/T//ccTXFGg6.s 			page 48


 974:../../../../dependencies/stm/STM32F4_Cube/Drivers/STM32F4xx_HAL_Driver/Src/stm32f4xx_hal_rcc.c ****   if((RCC->CR &RCC_CR_HSEBYP) == RCC_CR_HSEBYP)
 1705              		.loc 1 974 0
 1706 000e 444B     		ldr	r3, .L130
 1707 0010 1B68     		ldr	r3, [r3]
 1708 0012 03F48023 		and	r3, r3, #262144
 1709 0016 002B     		cmp	r3, #0
 1710 0018 04D0     		beq	.L118
 975:../../../../dependencies/stm/STM32F4_Cube/Drivers/STM32F4xx_HAL_Driver/Src/stm32f4xx_hal_rcc.c ****   {
 976:../../../../dependencies/stm/STM32F4_Cube/Drivers/STM32F4xx_HAL_Driver/Src/stm32f4xx_hal_rcc.c ****     RCC_OscInitStruct->HSEState = RCC_HSE_BYPASS;
 1711              		.loc 1 976 0
 1712 001a 7B68     		ldr	r3, [r7, #4]
 1713 001c 4FF4A022 		mov	r2, #327680
 1714 0020 5A60     		str	r2, [r3, #4]
 1715 0022 0DE0     		b	.L119
 1716              	.L118:
 977:../../../../dependencies/stm/STM32F4_Cube/Drivers/STM32F4xx_HAL_Driver/Src/stm32f4xx_hal_rcc.c ****   }
 978:../../../../dependencies/stm/STM32F4_Cube/Drivers/STM32F4xx_HAL_Driver/Src/stm32f4xx_hal_rcc.c ****   else if((RCC->CR &RCC_CR_HSEON) == RCC_CR_HSEON)
 1717              		.loc 1 978 0
 1718 0024 3E4B     		ldr	r3, .L130
 1719 0026 1B68     		ldr	r3, [r3]
 1720 0028 03F48033 		and	r3, r3, #65536
 1721 002c 002B     		cmp	r3, #0
 1722 002e 04D0     		beq	.L120
 979:../../../../dependencies/stm/STM32F4_Cube/Drivers/STM32F4xx_HAL_Driver/Src/stm32f4xx_hal_rcc.c ****   {
 980:../../../../dependencies/stm/STM32F4_Cube/Drivers/STM32F4xx_HAL_Driver/Src/stm32f4xx_hal_rcc.c ****     RCC_OscInitStruct->HSEState = RCC_HSE_ON;
 1723              		.loc 1 980 0
 1724 0030 7B68     		ldr	r3, [r7, #4]
 1725 0032 4FF48032 		mov	r2, #65536
 1726 0036 5A60     		str	r2, [r3, #4]
 1727 0038 02E0     		b	.L119
 1728              	.L120:
 981:../../../../dependencies/stm/STM32F4_Cube/Drivers/STM32F4xx_HAL_Driver/Src/stm32f4xx_hal_rcc.c ****   }
 982:../../../../dependencies/stm/STM32F4_Cube/Drivers/STM32F4xx_HAL_Driver/Src/stm32f4xx_hal_rcc.c ****   else
 983:../../../../dependencies/stm/STM32F4_Cube/Drivers/STM32F4xx_HAL_Driver/Src/stm32f4xx_hal_rcc.c ****   {
 984:../../../../dependencies/stm/STM32F4_Cube/Drivers/STM32F4xx_HAL_Driver/Src/stm32f4xx_hal_rcc.c ****     RCC_OscInitStruct->HSEState = RCC_HSE_OFF;
 1729              		.loc 1 984 0
 1730 003a 7B68     		ldr	r3, [r7, #4]
 1731 003c 0022     		movs	r2, #0
 1732 003e 5A60     		str	r2, [r3, #4]
 1733              	.L119:
 985:../../../../dependencies/stm/STM32F4_Cube/Drivers/STM32F4xx_HAL_Driver/Src/stm32f4xx_hal_rcc.c ****   }
 986:../../../../dependencies/stm/STM32F4_Cube/Drivers/STM32F4xx_HAL_Driver/Src/stm32f4xx_hal_rcc.c **** 
 987:../../../../dependencies/stm/STM32F4_Cube/Drivers/STM32F4xx_HAL_Driver/Src/stm32f4xx_hal_rcc.c ****   /* Get the HSI configuration -----------------------------------------------*/
 988:../../../../dependencies/stm/STM32F4_Cube/Drivers/STM32F4xx_HAL_Driver/Src/stm32f4xx_hal_rcc.c ****   if((RCC->CR &RCC_CR_HSION) == RCC_CR_HSION)
 1734              		.loc 1 988 0
 1735 0040 374B     		ldr	r3, .L130
 1736 0042 1B68     		ldr	r3, [r3]
 1737 0044 03F00103 		and	r3, r3, #1
 1738 0048 002B     		cmp	r3, #0
 1739 004a 03D0     		beq	.L121
 989:../../../../dependencies/stm/STM32F4_Cube/Drivers/STM32F4xx_HAL_Driver/Src/stm32f4xx_hal_rcc.c ****   {
 990:../../../../dependencies/stm/STM32F4_Cube/Drivers/STM32F4xx_HAL_Driver/Src/stm32f4xx_hal_rcc.c ****     RCC_OscInitStruct->HSIState = RCC_HSI_ON;
 1740              		.loc 1 990 0
 1741 004c 7B68     		ldr	r3, [r7, #4]
 1742 004e 0122     		movs	r2, #1
 1743 0050 DA60     		str	r2, [r3, #12]
 1744 0052 02E0     		b	.L122
ARM GAS  /var/folders/_8/_cw6l3nd335f_j6cn6z79m4m0000gn/T//ccTXFGg6.s 			page 49


 1745              	.L121:
 991:../../../../dependencies/stm/STM32F4_Cube/Drivers/STM32F4xx_HAL_Driver/Src/stm32f4xx_hal_rcc.c ****   }
 992:../../../../dependencies/stm/STM32F4_Cube/Drivers/STM32F4xx_HAL_Driver/Src/stm32f4xx_hal_rcc.c ****   else
 993:../../../../dependencies/stm/STM32F4_Cube/Drivers/STM32F4xx_HAL_Driver/Src/stm32f4xx_hal_rcc.c ****   {
 994:../../../../dependencies/stm/STM32F4_Cube/Drivers/STM32F4xx_HAL_Driver/Src/stm32f4xx_hal_rcc.c ****     RCC_OscInitStruct->HSIState = RCC_HSI_OFF;
 1746              		.loc 1 994 0
 1747 0054 7B68     		ldr	r3, [r7, #4]
 1748 0056 0022     		movs	r2, #0
 1749 0058 DA60     		str	r2, [r3, #12]
 1750              	.L122:
 995:../../../../dependencies/stm/STM32F4_Cube/Drivers/STM32F4xx_HAL_Driver/Src/stm32f4xx_hal_rcc.c ****   }
 996:../../../../dependencies/stm/STM32F4_Cube/Drivers/STM32F4xx_HAL_Driver/Src/stm32f4xx_hal_rcc.c **** 
 997:../../../../dependencies/stm/STM32F4_Cube/Drivers/STM32F4xx_HAL_Driver/Src/stm32f4xx_hal_rcc.c ****   RCC_OscInitStruct->HSICalibrationValue = (uint32_t)((RCC->CR &RCC_CR_HSITRIM) >> RCC_CR_HSITRIM_P
 1751              		.loc 1 997 0
 1752 005a 314B     		ldr	r3, .L130
 1753 005c 1B68     		ldr	r3, [r3]
 1754 005e 03F0F803 		and	r3, r3, #248
 1755 0062 DA08     		lsrs	r2, r3, #3
 1756 0064 7B68     		ldr	r3, [r7, #4]
 1757 0066 1A61     		str	r2, [r3, #16]
 998:../../../../dependencies/stm/STM32F4_Cube/Drivers/STM32F4xx_HAL_Driver/Src/stm32f4xx_hal_rcc.c **** 
 999:../../../../dependencies/stm/STM32F4_Cube/Drivers/STM32F4xx_HAL_Driver/Src/stm32f4xx_hal_rcc.c ****   /* Get the LSE configuration -----------------------------------------------*/
1000:../../../../dependencies/stm/STM32F4_Cube/Drivers/STM32F4xx_HAL_Driver/Src/stm32f4xx_hal_rcc.c ****   if((RCC->BDCR &RCC_BDCR_LSEBYP) == RCC_BDCR_LSEBYP)
 1758              		.loc 1 1000 0
 1759 0068 2D4B     		ldr	r3, .L130
 1760 006a 1B6F     		ldr	r3, [r3, #112]
 1761 006c 03F00403 		and	r3, r3, #4
 1762 0070 002B     		cmp	r3, #0
 1763 0072 03D0     		beq	.L123
1001:../../../../dependencies/stm/STM32F4_Cube/Drivers/STM32F4xx_HAL_Driver/Src/stm32f4xx_hal_rcc.c ****   {
1002:../../../../dependencies/stm/STM32F4_Cube/Drivers/STM32F4xx_HAL_Driver/Src/stm32f4xx_hal_rcc.c ****     RCC_OscInitStruct->LSEState = RCC_LSE_BYPASS;
 1764              		.loc 1 1002 0
 1765 0074 7B68     		ldr	r3, [r7, #4]
 1766 0076 0522     		movs	r2, #5
 1767 0078 9A60     		str	r2, [r3, #8]
 1768 007a 0CE0     		b	.L124
 1769              	.L123:
1003:../../../../dependencies/stm/STM32F4_Cube/Drivers/STM32F4xx_HAL_Driver/Src/stm32f4xx_hal_rcc.c ****   }
1004:../../../../dependencies/stm/STM32F4_Cube/Drivers/STM32F4xx_HAL_Driver/Src/stm32f4xx_hal_rcc.c ****   else if((RCC->BDCR &RCC_BDCR_LSEON) == RCC_BDCR_LSEON)
 1770              		.loc 1 1004 0
 1771 007c 284B     		ldr	r3, .L130
 1772 007e 1B6F     		ldr	r3, [r3, #112]
 1773 0080 03F00103 		and	r3, r3, #1
 1774 0084 002B     		cmp	r3, #0
 1775 0086 03D0     		beq	.L125
1005:../../../../dependencies/stm/STM32F4_Cube/Drivers/STM32F4xx_HAL_Driver/Src/stm32f4xx_hal_rcc.c ****   {
1006:../../../../dependencies/stm/STM32F4_Cube/Drivers/STM32F4xx_HAL_Driver/Src/stm32f4xx_hal_rcc.c ****     RCC_OscInitStruct->LSEState = RCC_LSE_ON;
 1776              		.loc 1 1006 0
 1777 0088 7B68     		ldr	r3, [r7, #4]
 1778 008a 0122     		movs	r2, #1
 1779 008c 9A60     		str	r2, [r3, #8]
 1780 008e 02E0     		b	.L124
 1781              	.L125:
1007:../../../../dependencies/stm/STM32F4_Cube/Drivers/STM32F4xx_HAL_Driver/Src/stm32f4xx_hal_rcc.c ****   }
1008:../../../../dependencies/stm/STM32F4_Cube/Drivers/STM32F4xx_HAL_Driver/Src/stm32f4xx_hal_rcc.c ****   else
1009:../../../../dependencies/stm/STM32F4_Cube/Drivers/STM32F4xx_HAL_Driver/Src/stm32f4xx_hal_rcc.c ****   {
1010:../../../../dependencies/stm/STM32F4_Cube/Drivers/STM32F4xx_HAL_Driver/Src/stm32f4xx_hal_rcc.c ****     RCC_OscInitStruct->LSEState = RCC_LSE_OFF;
ARM GAS  /var/folders/_8/_cw6l3nd335f_j6cn6z79m4m0000gn/T//ccTXFGg6.s 			page 50


 1782              		.loc 1 1010 0
 1783 0090 7B68     		ldr	r3, [r7, #4]
 1784 0092 0022     		movs	r2, #0
 1785 0094 9A60     		str	r2, [r3, #8]
 1786              	.L124:
1011:../../../../dependencies/stm/STM32F4_Cube/Drivers/STM32F4xx_HAL_Driver/Src/stm32f4xx_hal_rcc.c ****   }
1012:../../../../dependencies/stm/STM32F4_Cube/Drivers/STM32F4xx_HAL_Driver/Src/stm32f4xx_hal_rcc.c **** 
1013:../../../../dependencies/stm/STM32F4_Cube/Drivers/STM32F4xx_HAL_Driver/Src/stm32f4xx_hal_rcc.c ****   /* Get the LSI configuration -----------------------------------------------*/
1014:../../../../dependencies/stm/STM32F4_Cube/Drivers/STM32F4xx_HAL_Driver/Src/stm32f4xx_hal_rcc.c ****   if((RCC->CSR &RCC_CSR_LSION) == RCC_CSR_LSION)
 1787              		.loc 1 1014 0
 1788 0096 224B     		ldr	r3, .L130
 1789 0098 5B6F     		ldr	r3, [r3, #116]
 1790 009a 03F00103 		and	r3, r3, #1
 1791 009e 002B     		cmp	r3, #0
 1792 00a0 03D0     		beq	.L126
1015:../../../../dependencies/stm/STM32F4_Cube/Drivers/STM32F4xx_HAL_Driver/Src/stm32f4xx_hal_rcc.c ****   {
1016:../../../../dependencies/stm/STM32F4_Cube/Drivers/STM32F4xx_HAL_Driver/Src/stm32f4xx_hal_rcc.c ****     RCC_OscInitStruct->LSIState = RCC_LSI_ON;
 1793              		.loc 1 1016 0
 1794 00a2 7B68     		ldr	r3, [r7, #4]
 1795 00a4 0122     		movs	r2, #1
 1796 00a6 5A61     		str	r2, [r3, #20]
 1797 00a8 02E0     		b	.L127
 1798              	.L126:
1017:../../../../dependencies/stm/STM32F4_Cube/Drivers/STM32F4xx_HAL_Driver/Src/stm32f4xx_hal_rcc.c ****   }
1018:../../../../dependencies/stm/STM32F4_Cube/Drivers/STM32F4xx_HAL_Driver/Src/stm32f4xx_hal_rcc.c ****   else
1019:../../../../dependencies/stm/STM32F4_Cube/Drivers/STM32F4xx_HAL_Driver/Src/stm32f4xx_hal_rcc.c ****   {
1020:../../../../dependencies/stm/STM32F4_Cube/Drivers/STM32F4xx_HAL_Driver/Src/stm32f4xx_hal_rcc.c ****     RCC_OscInitStruct->LSIState = RCC_LSI_OFF;
 1799              		.loc 1 1020 0
 1800 00aa 7B68     		ldr	r3, [r7, #4]
 1801 00ac 0022     		movs	r2, #0
 1802 00ae 5A61     		str	r2, [r3, #20]
 1803              	.L127:
1021:../../../../dependencies/stm/STM32F4_Cube/Drivers/STM32F4xx_HAL_Driver/Src/stm32f4xx_hal_rcc.c ****   }
1022:../../../../dependencies/stm/STM32F4_Cube/Drivers/STM32F4xx_HAL_Driver/Src/stm32f4xx_hal_rcc.c **** 
1023:../../../../dependencies/stm/STM32F4_Cube/Drivers/STM32F4xx_HAL_Driver/Src/stm32f4xx_hal_rcc.c ****   /* Get the PLL configuration -----------------------------------------------*/
1024:../../../../dependencies/stm/STM32F4_Cube/Drivers/STM32F4xx_HAL_Driver/Src/stm32f4xx_hal_rcc.c ****   if((RCC->CR &RCC_CR_PLLON) == RCC_CR_PLLON)
 1804              		.loc 1 1024 0
 1805 00b0 1B4B     		ldr	r3, .L130
 1806 00b2 1B68     		ldr	r3, [r3]
 1807 00b4 03F08073 		and	r3, r3, #16777216
 1808 00b8 002B     		cmp	r3, #0
 1809 00ba 03D0     		beq	.L128
1025:../../../../dependencies/stm/STM32F4_Cube/Drivers/STM32F4xx_HAL_Driver/Src/stm32f4xx_hal_rcc.c ****   {
1026:../../../../dependencies/stm/STM32F4_Cube/Drivers/STM32F4xx_HAL_Driver/Src/stm32f4xx_hal_rcc.c ****     RCC_OscInitStruct->PLL.PLLState = RCC_PLL_ON;
 1810              		.loc 1 1026 0
 1811 00bc 7B68     		ldr	r3, [r7, #4]
 1812 00be 0222     		movs	r2, #2
 1813 00c0 9A61     		str	r2, [r3, #24]
 1814 00c2 02E0     		b	.L129
 1815              	.L128:
1027:../../../../dependencies/stm/STM32F4_Cube/Drivers/STM32F4xx_HAL_Driver/Src/stm32f4xx_hal_rcc.c ****   }
1028:../../../../dependencies/stm/STM32F4_Cube/Drivers/STM32F4xx_HAL_Driver/Src/stm32f4xx_hal_rcc.c ****   else
1029:../../../../dependencies/stm/STM32F4_Cube/Drivers/STM32F4xx_HAL_Driver/Src/stm32f4xx_hal_rcc.c ****   {
1030:../../../../dependencies/stm/STM32F4_Cube/Drivers/STM32F4xx_HAL_Driver/Src/stm32f4xx_hal_rcc.c ****     RCC_OscInitStruct->PLL.PLLState = RCC_PLL_OFF;
 1816              		.loc 1 1030 0
 1817 00c4 7B68     		ldr	r3, [r7, #4]
 1818 00c6 0122     		movs	r2, #1
ARM GAS  /var/folders/_8/_cw6l3nd335f_j6cn6z79m4m0000gn/T//ccTXFGg6.s 			page 51


 1819 00c8 9A61     		str	r2, [r3, #24]
 1820              	.L129:
1031:../../../../dependencies/stm/STM32F4_Cube/Drivers/STM32F4xx_HAL_Driver/Src/stm32f4xx_hal_rcc.c ****   }
1032:../../../../dependencies/stm/STM32F4_Cube/Drivers/STM32F4xx_HAL_Driver/Src/stm32f4xx_hal_rcc.c ****   RCC_OscInitStruct->PLL.PLLSource = (uint32_t)(RCC->PLLCFGR & RCC_PLLCFGR_PLLSRC);
 1821              		.loc 1 1032 0
 1822 00ca 154B     		ldr	r3, .L130
 1823 00cc 5B68     		ldr	r3, [r3, #4]
 1824 00ce 03F48002 		and	r2, r3, #4194304
 1825 00d2 7B68     		ldr	r3, [r7, #4]
 1826 00d4 DA61     		str	r2, [r3, #28]
1033:../../../../dependencies/stm/STM32F4_Cube/Drivers/STM32F4xx_HAL_Driver/Src/stm32f4xx_hal_rcc.c ****   RCC_OscInitStruct->PLL.PLLM = (uint32_t)(RCC->PLLCFGR & RCC_PLLCFGR_PLLM);
 1827              		.loc 1 1033 0
 1828 00d6 124B     		ldr	r3, .L130
 1829 00d8 5B68     		ldr	r3, [r3, #4]
 1830 00da 03F03F02 		and	r2, r3, #63
 1831 00de 7B68     		ldr	r3, [r7, #4]
 1832 00e0 1A62     		str	r2, [r3, #32]
1034:../../../../dependencies/stm/STM32F4_Cube/Drivers/STM32F4xx_HAL_Driver/Src/stm32f4xx_hal_rcc.c ****   RCC_OscInitStruct->PLL.PLLN = (uint32_t)((RCC->PLLCFGR & RCC_PLLCFGR_PLLN) >> RCC_PLLCFGR_PLLN_Po
 1833              		.loc 1 1034 0
 1834 00e2 0F4B     		ldr	r3, .L130
 1835 00e4 5A68     		ldr	r2, [r3, #4]
 1836 00e6 47F6C073 		movw	r3, #32704
 1837 00ea 1340     		ands	r3, r3, r2
 1838 00ec 9A09     		lsrs	r2, r3, #6
 1839 00ee 7B68     		ldr	r3, [r7, #4]
 1840 00f0 5A62     		str	r2, [r3, #36]
1035:../../../../dependencies/stm/STM32F4_Cube/Drivers/STM32F4xx_HAL_Driver/Src/stm32f4xx_hal_rcc.c ****   RCC_OscInitStruct->PLL.PLLP = (uint32_t)((((RCC->PLLCFGR & RCC_PLLCFGR_PLLP) + RCC_PLLCFGR_PLLP_0
 1841              		.loc 1 1035 0
 1842 00f2 0B4B     		ldr	r3, .L130
 1843 00f4 5B68     		ldr	r3, [r3, #4]
 1844 00f6 03F44033 		and	r3, r3, #196608
 1845 00fa 03F58033 		add	r3, r3, #65536
 1846 00fe 5B00     		lsls	r3, r3, #1
 1847 0100 1A0C     		lsrs	r2, r3, #16
 1848 0102 7B68     		ldr	r3, [r7, #4]
 1849 0104 9A62     		str	r2, [r3, #40]
1036:../../../../dependencies/stm/STM32F4_Cube/Drivers/STM32F4xx_HAL_Driver/Src/stm32f4xx_hal_rcc.c ****   RCC_OscInitStruct->PLL.PLLQ = (uint32_t)((RCC->PLLCFGR & RCC_PLLCFGR_PLLQ) >> RCC_PLLCFGR_PLLQ_Po
 1850              		.loc 1 1036 0
 1851 0106 064B     		ldr	r3, .L130
 1852 0108 5B68     		ldr	r3, [r3, #4]
 1853 010a 03F07063 		and	r3, r3, #251658240
 1854 010e 1A0E     		lsrs	r2, r3, #24
 1855 0110 7B68     		ldr	r3, [r7, #4]
 1856 0112 DA62     		str	r2, [r3, #44]
1037:../../../../dependencies/stm/STM32F4_Cube/Drivers/STM32F4xx_HAL_Driver/Src/stm32f4xx_hal_rcc.c **** }
 1857              		.loc 1 1037 0
 1858 0114 0C37     		adds	r7, r7, #12
 1859              	.LCFI43:
 1860              		.cfi_def_cfa_offset 4
 1861 0116 BD46     		mov	sp, r7
 1862              	.LCFI44:
 1863              		.cfi_def_cfa_register 13
 1864              		@ sp needed
 1865 0118 5DF8047B 		ldr	r7, [sp], #4
 1866              	.LCFI45:
 1867              		.cfi_restore 7
 1868              		.cfi_def_cfa_offset 0
ARM GAS  /var/folders/_8/_cw6l3nd335f_j6cn6z79m4m0000gn/T//ccTXFGg6.s 			page 52


 1869 011c 7047     		bx	lr
 1870              	.L131:
 1871 011e 00BF     		.align	2
 1872              	.L130:
 1873 0120 00380240 		.word	1073887232
 1874              		.cfi_endproc
 1875              	.LFE140:
 1877              		.section	.text.HAL_RCC_GetClockConfig,"ax",%progbits
 1878              		.align	2
 1879              		.global	HAL_RCC_GetClockConfig
 1880              		.thumb
 1881              		.thumb_func
 1883              	HAL_RCC_GetClockConfig:
 1884              	.LFB141:
1038:../../../../dependencies/stm/STM32F4_Cube/Drivers/STM32F4xx_HAL_Driver/Src/stm32f4xx_hal_rcc.c **** 
1039:../../../../dependencies/stm/STM32F4_Cube/Drivers/STM32F4xx_HAL_Driver/Src/stm32f4xx_hal_rcc.c **** /**
1040:../../../../dependencies/stm/STM32F4_Cube/Drivers/STM32F4xx_HAL_Driver/Src/stm32f4xx_hal_rcc.c ****   * @brief  Configures the RCC_ClkInitStruct according to the internal
1041:../../../../dependencies/stm/STM32F4_Cube/Drivers/STM32F4xx_HAL_Driver/Src/stm32f4xx_hal_rcc.c ****   * RCC configuration registers.
1042:../../../../dependencies/stm/STM32F4_Cube/Drivers/STM32F4xx_HAL_Driver/Src/stm32f4xx_hal_rcc.c ****   * @param  RCC_ClkInitStruct pointer to an RCC_ClkInitTypeDef structure that
1043:../../../../dependencies/stm/STM32F4_Cube/Drivers/STM32F4xx_HAL_Driver/Src/stm32f4xx_hal_rcc.c ****   * will be configured.
1044:../../../../dependencies/stm/STM32F4_Cube/Drivers/STM32F4xx_HAL_Driver/Src/stm32f4xx_hal_rcc.c ****   * @param  pFLatency Pointer on the Flash Latency.
1045:../../../../dependencies/stm/STM32F4_Cube/Drivers/STM32F4xx_HAL_Driver/Src/stm32f4xx_hal_rcc.c ****   * @retval None
1046:../../../../dependencies/stm/STM32F4_Cube/Drivers/STM32F4xx_HAL_Driver/Src/stm32f4xx_hal_rcc.c ****   */
1047:../../../../dependencies/stm/STM32F4_Cube/Drivers/STM32F4xx_HAL_Driver/Src/stm32f4xx_hal_rcc.c **** void HAL_RCC_GetClockConfig(RCC_ClkInitTypeDef  *RCC_ClkInitStruct, uint32_t *pFLatency)
1048:../../../../dependencies/stm/STM32F4_Cube/Drivers/STM32F4xx_HAL_Driver/Src/stm32f4xx_hal_rcc.c **** {
 1885              		.loc 1 1048 0
 1886              		.cfi_startproc
 1887              		@ args = 0, pretend = 0, frame = 8
 1888              		@ frame_needed = 1, uses_anonymous_args = 0
 1889              		@ link register save eliminated.
 1890 0000 80B4     		push	{r7}
 1891              	.LCFI46:
 1892              		.cfi_def_cfa_offset 4
 1893              		.cfi_offset 7, -4
 1894 0002 83B0     		sub	sp, sp, #12
 1895              	.LCFI47:
 1896              		.cfi_def_cfa_offset 16
 1897 0004 00AF     		add	r7, sp, #0
 1898              	.LCFI48:
 1899              		.cfi_def_cfa_register 7
 1900 0006 7860     		str	r0, [r7, #4]
 1901 0008 3960     		str	r1, [r7]
1049:../../../../dependencies/stm/STM32F4_Cube/Drivers/STM32F4xx_HAL_Driver/Src/stm32f4xx_hal_rcc.c ****   /* Set all possible values for the Clock type parameter --------------------*/
1050:../../../../dependencies/stm/STM32F4_Cube/Drivers/STM32F4xx_HAL_Driver/Src/stm32f4xx_hal_rcc.c ****   RCC_ClkInitStruct->ClockType = RCC_CLOCKTYPE_SYSCLK | RCC_CLOCKTYPE_HCLK | RCC_CLOCKTYPE_PCLK1 | 
 1902              		.loc 1 1050 0
 1903 000a 7B68     		ldr	r3, [r7, #4]
 1904 000c 0F22     		movs	r2, #15
 1905 000e 1A60     		str	r2, [r3]
1051:../../../../dependencies/stm/STM32F4_Cube/Drivers/STM32F4xx_HAL_Driver/Src/stm32f4xx_hal_rcc.c **** 
1052:../../../../dependencies/stm/STM32F4_Cube/Drivers/STM32F4xx_HAL_Driver/Src/stm32f4xx_hal_rcc.c ****   /* Get the SYSCLK configuration --------------------------------------------*/
1053:../../../../dependencies/stm/STM32F4_Cube/Drivers/STM32F4xx_HAL_Driver/Src/stm32f4xx_hal_rcc.c ****   RCC_ClkInitStruct->SYSCLKSource = (uint32_t)(RCC->CFGR & RCC_CFGR_SW);
 1906              		.loc 1 1053 0
 1907 0010 114B     		ldr	r3, .L133
 1908 0012 9B68     		ldr	r3, [r3, #8]
 1909 0014 03F00302 		and	r2, r3, #3
 1910 0018 7B68     		ldr	r3, [r7, #4]
 1911 001a 5A60     		str	r2, [r3, #4]
ARM GAS  /var/folders/_8/_cw6l3nd335f_j6cn6z79m4m0000gn/T//ccTXFGg6.s 			page 53


1054:../../../../dependencies/stm/STM32F4_Cube/Drivers/STM32F4xx_HAL_Driver/Src/stm32f4xx_hal_rcc.c **** 
1055:../../../../dependencies/stm/STM32F4_Cube/Drivers/STM32F4xx_HAL_Driver/Src/stm32f4xx_hal_rcc.c ****   /* Get the HCLK configuration ----------------------------------------------*/
1056:../../../../dependencies/stm/STM32F4_Cube/Drivers/STM32F4xx_HAL_Driver/Src/stm32f4xx_hal_rcc.c ****   RCC_ClkInitStruct->AHBCLKDivider = (uint32_t)(RCC->CFGR & RCC_CFGR_HPRE);
 1912              		.loc 1 1056 0
 1913 001c 0E4B     		ldr	r3, .L133
 1914 001e 9B68     		ldr	r3, [r3, #8]
 1915 0020 03F0F002 		and	r2, r3, #240
 1916 0024 7B68     		ldr	r3, [r7, #4]
 1917 0026 9A60     		str	r2, [r3, #8]
1057:../../../../dependencies/stm/STM32F4_Cube/Drivers/STM32F4xx_HAL_Driver/Src/stm32f4xx_hal_rcc.c **** 
1058:../../../../dependencies/stm/STM32F4_Cube/Drivers/STM32F4xx_HAL_Driver/Src/stm32f4xx_hal_rcc.c ****   /* Get the APB1 configuration ----------------------------------------------*/
1059:../../../../dependencies/stm/STM32F4_Cube/Drivers/STM32F4xx_HAL_Driver/Src/stm32f4xx_hal_rcc.c ****   RCC_ClkInitStruct->APB1CLKDivider = (uint32_t)(RCC->CFGR & RCC_CFGR_PPRE1);
 1918              		.loc 1 1059 0
 1919 0028 0B4B     		ldr	r3, .L133
 1920 002a 9B68     		ldr	r3, [r3, #8]
 1921 002c 03F4E052 		and	r2, r3, #7168
 1922 0030 7B68     		ldr	r3, [r7, #4]
 1923 0032 DA60     		str	r2, [r3, #12]
1060:../../../../dependencies/stm/STM32F4_Cube/Drivers/STM32F4xx_HAL_Driver/Src/stm32f4xx_hal_rcc.c **** 
1061:../../../../dependencies/stm/STM32F4_Cube/Drivers/STM32F4xx_HAL_Driver/Src/stm32f4xx_hal_rcc.c ****   /* Get the APB2 configuration ----------------------------------------------*/
1062:../../../../dependencies/stm/STM32F4_Cube/Drivers/STM32F4xx_HAL_Driver/Src/stm32f4xx_hal_rcc.c ****   RCC_ClkInitStruct->APB2CLKDivider = (uint32_t)((RCC->CFGR & RCC_CFGR_PPRE2) >> 3U);
 1924              		.loc 1 1062 0
 1925 0034 084B     		ldr	r3, .L133
 1926 0036 9B68     		ldr	r3, [r3, #8]
 1927 0038 03F46043 		and	r3, r3, #57344
 1928 003c DA08     		lsrs	r2, r3, #3
 1929 003e 7B68     		ldr	r3, [r7, #4]
 1930 0040 1A61     		str	r2, [r3, #16]
1063:../../../../dependencies/stm/STM32F4_Cube/Drivers/STM32F4xx_HAL_Driver/Src/stm32f4xx_hal_rcc.c **** 
1064:../../../../dependencies/stm/STM32F4_Cube/Drivers/STM32F4xx_HAL_Driver/Src/stm32f4xx_hal_rcc.c ****   /* Get the Flash Wait State (Latency) configuration ------------------------*/
1065:../../../../dependencies/stm/STM32F4_Cube/Drivers/STM32F4xx_HAL_Driver/Src/stm32f4xx_hal_rcc.c ****   *pFLatency = (uint32_t)(FLASH->ACR & FLASH_ACR_LATENCY);
 1931              		.loc 1 1065 0
 1932 0042 064B     		ldr	r3, .L133+4
 1933 0044 1B68     		ldr	r3, [r3]
 1934 0046 03F00F02 		and	r2, r3, #15
 1935 004a 3B68     		ldr	r3, [r7]
 1936 004c 1A60     		str	r2, [r3]
1066:../../../../dependencies/stm/STM32F4_Cube/Drivers/STM32F4xx_HAL_Driver/Src/stm32f4xx_hal_rcc.c **** }
 1937              		.loc 1 1066 0
 1938 004e 0C37     		adds	r7, r7, #12
 1939              	.LCFI49:
 1940              		.cfi_def_cfa_offset 4
 1941 0050 BD46     		mov	sp, r7
 1942              	.LCFI50:
 1943              		.cfi_def_cfa_register 13
 1944              		@ sp needed
 1945 0052 5DF8047B 		ldr	r7, [sp], #4
 1946              	.LCFI51:
 1947              		.cfi_restore 7
 1948              		.cfi_def_cfa_offset 0
 1949 0056 7047     		bx	lr
 1950              	.L134:
 1951              		.align	2
 1952              	.L133:
 1953 0058 00380240 		.word	1073887232
 1954 005c 003C0240 		.word	1073888256
 1955              		.cfi_endproc
ARM GAS  /var/folders/_8/_cw6l3nd335f_j6cn6z79m4m0000gn/T//ccTXFGg6.s 			page 54


 1956              	.LFE141:
 1958              		.section	.text.HAL_RCC_NMI_IRQHandler,"ax",%progbits
 1959              		.align	2
 1960              		.global	HAL_RCC_NMI_IRQHandler
 1961              		.thumb
 1962              		.thumb_func
 1964              	HAL_RCC_NMI_IRQHandler:
 1965              	.LFB142:
1067:../../../../dependencies/stm/STM32F4_Cube/Drivers/STM32F4xx_HAL_Driver/Src/stm32f4xx_hal_rcc.c **** 
1068:../../../../dependencies/stm/STM32F4_Cube/Drivers/STM32F4xx_HAL_Driver/Src/stm32f4xx_hal_rcc.c **** /**
1069:../../../../dependencies/stm/STM32F4_Cube/Drivers/STM32F4xx_HAL_Driver/Src/stm32f4xx_hal_rcc.c ****   * @brief This function handles the RCC CSS interrupt request.
1070:../../../../dependencies/stm/STM32F4_Cube/Drivers/STM32F4xx_HAL_Driver/Src/stm32f4xx_hal_rcc.c ****   * @note This API should be called under the NMI_Handler().
1071:../../../../dependencies/stm/STM32F4_Cube/Drivers/STM32F4xx_HAL_Driver/Src/stm32f4xx_hal_rcc.c ****   * @retval None
1072:../../../../dependencies/stm/STM32F4_Cube/Drivers/STM32F4xx_HAL_Driver/Src/stm32f4xx_hal_rcc.c ****   */
1073:../../../../dependencies/stm/STM32F4_Cube/Drivers/STM32F4xx_HAL_Driver/Src/stm32f4xx_hal_rcc.c **** void HAL_RCC_NMI_IRQHandler(void)
1074:../../../../dependencies/stm/STM32F4_Cube/Drivers/STM32F4xx_HAL_Driver/Src/stm32f4xx_hal_rcc.c **** {
 1966              		.loc 1 1074 0
 1967              		.cfi_startproc
 1968              		@ args = 0, pretend = 0, frame = 0
 1969              		@ frame_needed = 1, uses_anonymous_args = 0
 1970 0000 80B5     		push	{r7, lr}
 1971              	.LCFI52:
 1972              		.cfi_def_cfa_offset 8
 1973              		.cfi_offset 7, -8
 1974              		.cfi_offset 14, -4
 1975 0002 00AF     		add	r7, sp, #0
 1976              	.LCFI53:
 1977              		.cfi_def_cfa_register 7
1075:../../../../dependencies/stm/STM32F4_Cube/Drivers/STM32F4xx_HAL_Driver/Src/stm32f4xx_hal_rcc.c ****   /* Check RCC CSSF flag  */
1076:../../../../dependencies/stm/STM32F4_Cube/Drivers/STM32F4xx_HAL_Driver/Src/stm32f4xx_hal_rcc.c ****   if(__HAL_RCC_GET_IT(RCC_IT_CSS))
 1978              		.loc 1 1076 0
 1979 0004 054B     		ldr	r3, .L137
 1980 0006 DB68     		ldr	r3, [r3, #12]
 1981 0008 03F08003 		and	r3, r3, #128
 1982 000c 002B     		cmp	r3, #0
 1983 000e 04D0     		beq	.L135
1077:../../../../dependencies/stm/STM32F4_Cube/Drivers/STM32F4xx_HAL_Driver/Src/stm32f4xx_hal_rcc.c ****   {
1078:../../../../dependencies/stm/STM32F4_Cube/Drivers/STM32F4xx_HAL_Driver/Src/stm32f4xx_hal_rcc.c ****     /* RCC Clock Security System interrupt user callback */
1079:../../../../dependencies/stm/STM32F4_Cube/Drivers/STM32F4xx_HAL_Driver/Src/stm32f4xx_hal_rcc.c ****     HAL_RCC_CSSCallback();
 1984              		.loc 1 1079 0
 1985 0010 FFF7FEFF 		bl	HAL_RCC_CSSCallback
1080:../../../../dependencies/stm/STM32F4_Cube/Drivers/STM32F4xx_HAL_Driver/Src/stm32f4xx_hal_rcc.c **** 
1081:../../../../dependencies/stm/STM32F4_Cube/Drivers/STM32F4xx_HAL_Driver/Src/stm32f4xx_hal_rcc.c ****     /* Clear RCC CSS pending bit */
1082:../../../../dependencies/stm/STM32F4_Cube/Drivers/STM32F4xx_HAL_Driver/Src/stm32f4xx_hal_rcc.c ****     __HAL_RCC_CLEAR_IT(RCC_IT_CSS);
 1986              		.loc 1 1082 0
 1987 0014 024B     		ldr	r3, .L137+4
 1988 0016 8022     		movs	r2, #128
 1989 0018 1A70     		strb	r2, [r3]
 1990              	.L135:
1083:../../../../dependencies/stm/STM32F4_Cube/Drivers/STM32F4xx_HAL_Driver/Src/stm32f4xx_hal_rcc.c ****   }
1084:../../../../dependencies/stm/STM32F4_Cube/Drivers/STM32F4xx_HAL_Driver/Src/stm32f4xx_hal_rcc.c **** }
 1991              		.loc 1 1084 0
 1992 001a 80BD     		pop	{r7, pc}
 1993              	.L138:
 1994              		.align	2
 1995              	.L137:
 1996 001c 00380240 		.word	1073887232
ARM GAS  /var/folders/_8/_cw6l3nd335f_j6cn6z79m4m0000gn/T//ccTXFGg6.s 			page 55


 1997 0020 0E380240 		.word	1073887246
 1998              		.cfi_endproc
 1999              	.LFE142:
 2001              		.section	.text.HAL_RCC_CSSCallback,"ax",%progbits
 2002              		.align	2
 2003              		.weak	HAL_RCC_CSSCallback
 2004              		.thumb
 2005              		.thumb_func
 2007              	HAL_RCC_CSSCallback:
 2008              	.LFB143:
1085:../../../../dependencies/stm/STM32F4_Cube/Drivers/STM32F4xx_HAL_Driver/Src/stm32f4xx_hal_rcc.c **** 
1086:../../../../dependencies/stm/STM32F4_Cube/Drivers/STM32F4xx_HAL_Driver/Src/stm32f4xx_hal_rcc.c **** /**
1087:../../../../dependencies/stm/STM32F4_Cube/Drivers/STM32F4xx_HAL_Driver/Src/stm32f4xx_hal_rcc.c ****   * @brief  RCC Clock Security System interrupt callback
1088:../../../../dependencies/stm/STM32F4_Cube/Drivers/STM32F4xx_HAL_Driver/Src/stm32f4xx_hal_rcc.c ****   * @retval None
1089:../../../../dependencies/stm/STM32F4_Cube/Drivers/STM32F4xx_HAL_Driver/Src/stm32f4xx_hal_rcc.c ****   */
1090:../../../../dependencies/stm/STM32F4_Cube/Drivers/STM32F4xx_HAL_Driver/Src/stm32f4xx_hal_rcc.c **** __weak void HAL_RCC_CSSCallback(void)
1091:../../../../dependencies/stm/STM32F4_Cube/Drivers/STM32F4xx_HAL_Driver/Src/stm32f4xx_hal_rcc.c **** {
 2009              		.loc 1 1091 0
 2010              		.cfi_startproc
 2011              		@ args = 0, pretend = 0, frame = 0
 2012              		@ frame_needed = 1, uses_anonymous_args = 0
 2013              		@ link register save eliminated.
 2014 0000 80B4     		push	{r7}
 2015              	.LCFI54:
 2016              		.cfi_def_cfa_offset 4
 2017              		.cfi_offset 7, -4
 2018 0002 00AF     		add	r7, sp, #0
 2019              	.LCFI55:
 2020              		.cfi_def_cfa_register 7
1092:../../../../dependencies/stm/STM32F4_Cube/Drivers/STM32F4xx_HAL_Driver/Src/stm32f4xx_hal_rcc.c ****   /* NOTE : This function Should not be modified, when the callback is needed,
1093:../../../../dependencies/stm/STM32F4_Cube/Drivers/STM32F4xx_HAL_Driver/Src/stm32f4xx_hal_rcc.c ****             the HAL_RCC_CSSCallback could be implemented in the user file
1094:../../../../dependencies/stm/STM32F4_Cube/Drivers/STM32F4xx_HAL_Driver/Src/stm32f4xx_hal_rcc.c ****    */
1095:../../../../dependencies/stm/STM32F4_Cube/Drivers/STM32F4xx_HAL_Driver/Src/stm32f4xx_hal_rcc.c **** }
 2021              		.loc 1 1095 0
 2022 0004 BD46     		mov	sp, r7
 2023              	.LCFI56:
 2024              		.cfi_def_cfa_register 13
 2025              		@ sp needed
 2026 0006 5DF8047B 		ldr	r7, [sp], #4
 2027              	.LCFI57:
 2028              		.cfi_restore 7
 2029              		.cfi_def_cfa_offset 0
 2030 000a 7047     		bx	lr
 2031              		.cfi_endproc
 2032              	.LFE143:
 2034              		.text
 2035              	.Letext0:
 2036              		.file 2 "/Users/adambujak/Workspace/whisper_system/.dependencies/gcc-arm-none-eabi-4_9-2015q3/arm-
 2037              		.file 3 "/Users/adambujak/Workspace/whisper_system/.dependencies/gcc-arm-none-eabi-4_9-2015q3/arm-
 2038              		.file 4 "../../../../dependencies/stm/STM32F4_Cube/Drivers/CMSIS/Device/ST/STM32F4xx/Include/stm32
 2039              		.file 5 "../../../../dependencies/stm/STM32F4_Cube/Drivers/CMSIS/Device/ST/STM32F4xx/Include/stm32
 2040              		.file 6 "../../../../dependencies/stm/STM32F4_Cube/Drivers/STM32F4xx_HAL_Driver/Inc/stm32f4xx_hal_
 2041              		.file 7 "../../../../dependencies/stm/STM32F4_Cube/Drivers/STM32F4xx_HAL_Driver/Inc/stm32f4xx_hal_
 2042              		.file 8 "../../../../dependencies/stm/STM32F4_Cube/Drivers/STM32F4xx_HAL_Driver/Inc/stm32f4xx_hal_
 2043              		.file 9 "../../../../dependencies/stm/STM32F4_Cube/Drivers/STM32F4xx_HAL_Driver/Inc/stm32f4xx_hal_
 2044              		.file 10 "../../../../dependencies/stm/STM32F4_Cube/Drivers/CMSIS/Include/core_cm4.h"
 2045              		.file 11 "../../../../dependencies/stm/STM32F4_Cube/Drivers/CMSIS/Device/ST/STM32F4xx/Include/syst
ARM GAS  /var/folders/_8/_cw6l3nd335f_j6cn6z79m4m0000gn/T//ccTXFGg6.s 			page 56


 2046              		.file 12 "../../../../dependencies/stm/STM32F4_Cube/Drivers/STM32F4xx_HAL_Driver/Inc/stm32f4xx_hal
ARM GAS  /var/folders/_8/_cw6l3nd335f_j6cn6z79m4m0000gn/T//ccTXFGg6.s 			page 57

