ARM GAS  /var/folders/_8/_cw6l3nd335f_j6cn6z79m4m0000gn/T//ccSM72RG.s 			page 1


   1              		.syntax unified
   2              		.cpu cortex-m4
   3              		.eabi_attribute 27, 1
   4              		.eabi_attribute 28, 1
   5              		.fpu fpv4-sp-d16
   6              		.eabi_attribute 20, 1
   7              		.eabi_attribute 21, 1
   8              		.eabi_attribute 23, 3
   9              		.eabi_attribute 24, 1
  10              		.eabi_attribute 25, 1
  11              		.eabi_attribute 26, 1
  12              		.eabi_attribute 30, 6
  13              		.eabi_attribute 34, 1
  14              		.eabi_attribute 18, 4
  15              		.thumb
  16              		.file	"stream_buffer.c"
  17              		.text
  18              	.Ltext0:
  19              		.cfi_sections	.debug_frame
  20              		.section	.text.xStreamBufferGenericCreate,"ax",%progbits
  21              		.align	2
  22              		.global	xStreamBufferGenericCreate
  23              		.thumb
  24              		.thumb_func
  26              	xStreamBufferGenericCreate:
  27              	.LFB5:
  28              		.file 1 "../../../../dependencies/freertos/FreeRTOSv10.4.1/FreeRTOS/Source/stream_buffer.c"
   1:../../../../dependencies/freertos/FreeRTOSv10.4.1/FreeRTOS/Source/stream_buffer.c **** /*
   2:../../../../dependencies/freertos/FreeRTOSv10.4.1/FreeRTOS/Source/stream_buffer.c ****  * FreeRTOS Kernel V10.4.1
   3:../../../../dependencies/freertos/FreeRTOSv10.4.1/FreeRTOS/Source/stream_buffer.c ****  * Copyright (C) 2020 Amazon.com, Inc. or its affiliates.  All Rights Reserved.
   4:../../../../dependencies/freertos/FreeRTOSv10.4.1/FreeRTOS/Source/stream_buffer.c ****  *
   5:../../../../dependencies/freertos/FreeRTOSv10.4.1/FreeRTOS/Source/stream_buffer.c ****  * Permission is hereby granted, free of charge, to any person obtaining a copy of
   6:../../../../dependencies/freertos/FreeRTOSv10.4.1/FreeRTOS/Source/stream_buffer.c ****  * this software and associated documentation files (the "Software"), to deal in
   7:../../../../dependencies/freertos/FreeRTOSv10.4.1/FreeRTOS/Source/stream_buffer.c ****  * the Software without restriction, including without limitation the rights to
   8:../../../../dependencies/freertos/FreeRTOSv10.4.1/FreeRTOS/Source/stream_buffer.c ****  * use, copy, modify, merge, publish, distribute, sublicense, and/or sell copies of
   9:../../../../dependencies/freertos/FreeRTOSv10.4.1/FreeRTOS/Source/stream_buffer.c ****  * the Software, and to permit persons to whom the Software is furnished to do so,
  10:../../../../dependencies/freertos/FreeRTOSv10.4.1/FreeRTOS/Source/stream_buffer.c ****  * subject to the following conditions:
  11:../../../../dependencies/freertos/FreeRTOSv10.4.1/FreeRTOS/Source/stream_buffer.c ****  *
  12:../../../../dependencies/freertos/FreeRTOSv10.4.1/FreeRTOS/Source/stream_buffer.c ****  * The above copyright notice and this permission notice shall be included in all
  13:../../../../dependencies/freertos/FreeRTOSv10.4.1/FreeRTOS/Source/stream_buffer.c ****  * copies or substantial portions of the Software.
  14:../../../../dependencies/freertos/FreeRTOSv10.4.1/FreeRTOS/Source/stream_buffer.c ****  *
  15:../../../../dependencies/freertos/FreeRTOSv10.4.1/FreeRTOS/Source/stream_buffer.c ****  * THE SOFTWARE IS PROVIDED "AS IS", WITHOUT WARRANTY OF ANY KIND, EXPRESS OR
  16:../../../../dependencies/freertos/FreeRTOSv10.4.1/FreeRTOS/Source/stream_buffer.c ****  * IMPLIED, INCLUDING BUT NOT LIMITED TO THE WARRANTIES OF MERCHANTABILITY, FITNESS
  17:../../../../dependencies/freertos/FreeRTOSv10.4.1/FreeRTOS/Source/stream_buffer.c ****  * FOR A PARTICULAR PURPOSE AND NONINFRINGEMENT. IN NO EVENT SHALL THE AUTHORS OR
  18:../../../../dependencies/freertos/FreeRTOSv10.4.1/FreeRTOS/Source/stream_buffer.c ****  * COPYRIGHT HOLDERS BE LIABLE FOR ANY CLAIM, DAMAGES OR OTHER LIABILITY, WHETHER
  19:../../../../dependencies/freertos/FreeRTOSv10.4.1/FreeRTOS/Source/stream_buffer.c ****  * IN AN ACTION OF CONTRACT, TORT OR OTHERWISE, ARISING FROM, OUT OF OR IN
  20:../../../../dependencies/freertos/FreeRTOSv10.4.1/FreeRTOS/Source/stream_buffer.c ****  * CONNECTION WITH THE SOFTWARE OR THE USE OR OTHER DEALINGS IN THE SOFTWARE.
  21:../../../../dependencies/freertos/FreeRTOSv10.4.1/FreeRTOS/Source/stream_buffer.c ****  *
  22:../../../../dependencies/freertos/FreeRTOSv10.4.1/FreeRTOS/Source/stream_buffer.c ****  * https://www.FreeRTOS.org
  23:../../../../dependencies/freertos/FreeRTOSv10.4.1/FreeRTOS/Source/stream_buffer.c ****  * https://github.com/FreeRTOS
  24:../../../../dependencies/freertos/FreeRTOSv10.4.1/FreeRTOS/Source/stream_buffer.c ****  *
  25:../../../../dependencies/freertos/FreeRTOSv10.4.1/FreeRTOS/Source/stream_buffer.c ****  */
  26:../../../../dependencies/freertos/FreeRTOSv10.4.1/FreeRTOS/Source/stream_buffer.c **** 
  27:../../../../dependencies/freertos/FreeRTOSv10.4.1/FreeRTOS/Source/stream_buffer.c **** /* Standard includes. */
  28:../../../../dependencies/freertos/FreeRTOSv10.4.1/FreeRTOS/Source/stream_buffer.c **** #include <stdint.h>
  29:../../../../dependencies/freertos/FreeRTOSv10.4.1/FreeRTOS/Source/stream_buffer.c **** #include <string.h>
  30:../../../../dependencies/freertos/FreeRTOSv10.4.1/FreeRTOS/Source/stream_buffer.c **** 
ARM GAS  /var/folders/_8/_cw6l3nd335f_j6cn6z79m4m0000gn/T//ccSM72RG.s 			page 2


  31:../../../../dependencies/freertos/FreeRTOSv10.4.1/FreeRTOS/Source/stream_buffer.c **** /* Defining MPU_WRAPPERS_INCLUDED_FROM_API_FILE prevents task.h from redefining
  32:../../../../dependencies/freertos/FreeRTOSv10.4.1/FreeRTOS/Source/stream_buffer.c ****  * all the API functions to use the MPU wrappers.  That should only be done when
  33:../../../../dependencies/freertos/FreeRTOSv10.4.1/FreeRTOS/Source/stream_buffer.c ****  * task.h is included from an application file. */
  34:../../../../dependencies/freertos/FreeRTOSv10.4.1/FreeRTOS/Source/stream_buffer.c **** #define MPU_WRAPPERS_INCLUDED_FROM_API_FILE
  35:../../../../dependencies/freertos/FreeRTOSv10.4.1/FreeRTOS/Source/stream_buffer.c **** 
  36:../../../../dependencies/freertos/FreeRTOSv10.4.1/FreeRTOS/Source/stream_buffer.c **** /* FreeRTOS includes. */
  37:../../../../dependencies/freertos/FreeRTOSv10.4.1/FreeRTOS/Source/stream_buffer.c **** #include "FreeRTOS.h"
  38:../../../../dependencies/freertos/FreeRTOSv10.4.1/FreeRTOS/Source/stream_buffer.c **** #include "task.h"
  39:../../../../dependencies/freertos/FreeRTOSv10.4.1/FreeRTOS/Source/stream_buffer.c **** #include "stream_buffer.h"
  40:../../../../dependencies/freertos/FreeRTOSv10.4.1/FreeRTOS/Source/stream_buffer.c **** 
  41:../../../../dependencies/freertos/FreeRTOSv10.4.1/FreeRTOS/Source/stream_buffer.c **** #if ( configUSE_TASK_NOTIFICATIONS != 1 )
  42:../../../../dependencies/freertos/FreeRTOSv10.4.1/FreeRTOS/Source/stream_buffer.c ****     #error configUSE_TASK_NOTIFICATIONS must be set to 1 to build stream_buffer.c
  43:../../../../dependencies/freertos/FreeRTOSv10.4.1/FreeRTOS/Source/stream_buffer.c **** #endif
  44:../../../../dependencies/freertos/FreeRTOSv10.4.1/FreeRTOS/Source/stream_buffer.c **** 
  45:../../../../dependencies/freertos/FreeRTOSv10.4.1/FreeRTOS/Source/stream_buffer.c **** /* Lint e961, e9021 and e750 are suppressed as a MISRA exception justified
  46:../../../../dependencies/freertos/FreeRTOSv10.4.1/FreeRTOS/Source/stream_buffer.c ****  * because the MPU ports require MPU_WRAPPERS_INCLUDED_FROM_API_FILE to be defined
  47:../../../../dependencies/freertos/FreeRTOSv10.4.1/FreeRTOS/Source/stream_buffer.c ****  * for the header files above, but not in this file, in order to generate the
  48:../../../../dependencies/freertos/FreeRTOSv10.4.1/FreeRTOS/Source/stream_buffer.c ****  * correct privileged Vs unprivileged linkage and placement. */
  49:../../../../dependencies/freertos/FreeRTOSv10.4.1/FreeRTOS/Source/stream_buffer.c **** #undef MPU_WRAPPERS_INCLUDED_FROM_API_FILE /*lint !e961 !e750 !e9021. */
  50:../../../../dependencies/freertos/FreeRTOSv10.4.1/FreeRTOS/Source/stream_buffer.c **** 
  51:../../../../dependencies/freertos/FreeRTOSv10.4.1/FreeRTOS/Source/stream_buffer.c **** /* If the user has not provided application specific Rx notification macros,
  52:../../../../dependencies/freertos/FreeRTOSv10.4.1/FreeRTOS/Source/stream_buffer.c ****  * or #defined the notification macros away, them provide default implementations
  53:../../../../dependencies/freertos/FreeRTOSv10.4.1/FreeRTOS/Source/stream_buffer.c ****  * that uses task notifications. */
  54:../../../../dependencies/freertos/FreeRTOSv10.4.1/FreeRTOS/Source/stream_buffer.c **** /*lint -save -e9026 Function like macros allowed and needed here so they can be overridden. */
  55:../../../../dependencies/freertos/FreeRTOSv10.4.1/FreeRTOS/Source/stream_buffer.c **** #ifndef sbRECEIVE_COMPLETED
  56:../../../../dependencies/freertos/FreeRTOSv10.4.1/FreeRTOS/Source/stream_buffer.c ****     #define sbRECEIVE_COMPLETED( pxStreamBuffer )                         \
  57:../../../../dependencies/freertos/FreeRTOSv10.4.1/FreeRTOS/Source/stream_buffer.c ****     vTaskSuspendAll();                                                    \
  58:../../../../dependencies/freertos/FreeRTOSv10.4.1/FreeRTOS/Source/stream_buffer.c ****     {                                                                     \
  59:../../../../dependencies/freertos/FreeRTOSv10.4.1/FreeRTOS/Source/stream_buffer.c ****         if( ( pxStreamBuffer )->xTaskWaitingToSend != NULL )              \
  60:../../../../dependencies/freertos/FreeRTOSv10.4.1/FreeRTOS/Source/stream_buffer.c ****         {                                                                 \
  61:../../../../dependencies/freertos/FreeRTOSv10.4.1/FreeRTOS/Source/stream_buffer.c ****             ( void ) xTaskNotify( ( pxStreamBuffer )->xTaskWaitingToSend, \
  62:../../../../dependencies/freertos/FreeRTOSv10.4.1/FreeRTOS/Source/stream_buffer.c ****                                   ( uint32_t ) 0,                         \
  63:../../../../dependencies/freertos/FreeRTOSv10.4.1/FreeRTOS/Source/stream_buffer.c ****                                   eNoAction );                            \
  64:../../../../dependencies/freertos/FreeRTOSv10.4.1/FreeRTOS/Source/stream_buffer.c ****             ( pxStreamBuffer )->xTaskWaitingToSend = NULL;                \
  65:../../../../dependencies/freertos/FreeRTOSv10.4.1/FreeRTOS/Source/stream_buffer.c ****         }                                                                 \
  66:../../../../dependencies/freertos/FreeRTOSv10.4.1/FreeRTOS/Source/stream_buffer.c ****     }                                                                     \
  67:../../../../dependencies/freertos/FreeRTOSv10.4.1/FreeRTOS/Source/stream_buffer.c ****     ( void ) xTaskResumeAll();
  68:../../../../dependencies/freertos/FreeRTOSv10.4.1/FreeRTOS/Source/stream_buffer.c **** #endif /* sbRECEIVE_COMPLETED */
  69:../../../../dependencies/freertos/FreeRTOSv10.4.1/FreeRTOS/Source/stream_buffer.c **** 
  70:../../../../dependencies/freertos/FreeRTOSv10.4.1/FreeRTOS/Source/stream_buffer.c **** #ifndef sbRECEIVE_COMPLETED_FROM_ISR
  71:../../../../dependencies/freertos/FreeRTOSv10.4.1/FreeRTOS/Source/stream_buffer.c ****     #define sbRECEIVE_COMPLETED_FROM_ISR( pxStreamBuffer,                            \
  72:../../../../dependencies/freertos/FreeRTOSv10.4.1/FreeRTOS/Source/stream_buffer.c ****                                           pxHigherPriorityTaskWoken )                \
  73:../../../../dependencies/freertos/FreeRTOSv10.4.1/FreeRTOS/Source/stream_buffer.c ****     {                                                                                \
  74:../../../../dependencies/freertos/FreeRTOSv10.4.1/FreeRTOS/Source/stream_buffer.c ****         UBaseType_t uxSavedInterruptStatus;                                          \
  75:../../../../dependencies/freertos/FreeRTOSv10.4.1/FreeRTOS/Source/stream_buffer.c ****                                                                                      \
  76:../../../../dependencies/freertos/FreeRTOSv10.4.1/FreeRTOS/Source/stream_buffer.c ****         uxSavedInterruptStatus = ( UBaseType_t ) portSET_INTERRUPT_MASK_FROM_ISR();  \
  77:../../../../dependencies/freertos/FreeRTOSv10.4.1/FreeRTOS/Source/stream_buffer.c ****         {                                                                            \
  78:../../../../dependencies/freertos/FreeRTOSv10.4.1/FreeRTOS/Source/stream_buffer.c ****             if( ( pxStreamBuffer )->xTaskWaitingToSend != NULL )                     \
  79:../../../../dependencies/freertos/FreeRTOSv10.4.1/FreeRTOS/Source/stream_buffer.c ****             {                                                                        \
  80:../../../../dependencies/freertos/FreeRTOSv10.4.1/FreeRTOS/Source/stream_buffer.c ****                 ( void ) xTaskNotifyFromISR( ( pxStreamBuffer )->xTaskWaitingToSend, \
  81:../../../../dependencies/freertos/FreeRTOSv10.4.1/FreeRTOS/Source/stream_buffer.c ****                                              ( uint32_t ) 0,                         \
  82:../../../../dependencies/freertos/FreeRTOSv10.4.1/FreeRTOS/Source/stream_buffer.c ****                                              eNoAction,                              \
  83:../../../../dependencies/freertos/FreeRTOSv10.4.1/FreeRTOS/Source/stream_buffer.c ****                                              pxHigherPriorityTaskWoken );            \
  84:../../../../dependencies/freertos/FreeRTOSv10.4.1/FreeRTOS/Source/stream_buffer.c ****                 ( pxStreamBuffer )->xTaskWaitingToSend = NULL;                       \
  85:../../../../dependencies/freertos/FreeRTOSv10.4.1/FreeRTOS/Source/stream_buffer.c ****             }                                                                        \
  86:../../../../dependencies/freertos/FreeRTOSv10.4.1/FreeRTOS/Source/stream_buffer.c ****         }                                                                            \
  87:../../../../dependencies/freertos/FreeRTOSv10.4.1/FreeRTOS/Source/stream_buffer.c ****         portCLEAR_INTERRUPT_MASK_FROM_ISR( uxSavedInterruptStatus );                 \
ARM GAS  /var/folders/_8/_cw6l3nd335f_j6cn6z79m4m0000gn/T//ccSM72RG.s 			page 3


  88:../../../../dependencies/freertos/FreeRTOSv10.4.1/FreeRTOS/Source/stream_buffer.c ****     }
  89:../../../../dependencies/freertos/FreeRTOSv10.4.1/FreeRTOS/Source/stream_buffer.c **** #endif /* sbRECEIVE_COMPLETED_FROM_ISR */
  90:../../../../dependencies/freertos/FreeRTOSv10.4.1/FreeRTOS/Source/stream_buffer.c **** 
  91:../../../../dependencies/freertos/FreeRTOSv10.4.1/FreeRTOS/Source/stream_buffer.c **** /* If the user has not provided an application specific Tx notification macro,
  92:../../../../dependencies/freertos/FreeRTOSv10.4.1/FreeRTOS/Source/stream_buffer.c ****  * or #defined the notification macro away, them provide a default implementation
  93:../../../../dependencies/freertos/FreeRTOSv10.4.1/FreeRTOS/Source/stream_buffer.c ****  * that uses task notifications. */
  94:../../../../dependencies/freertos/FreeRTOSv10.4.1/FreeRTOS/Source/stream_buffer.c **** #ifndef sbSEND_COMPLETED
  95:../../../../dependencies/freertos/FreeRTOSv10.4.1/FreeRTOS/Source/stream_buffer.c ****     #define sbSEND_COMPLETED( pxStreamBuffer )                               \
  96:../../../../dependencies/freertos/FreeRTOSv10.4.1/FreeRTOS/Source/stream_buffer.c ****     vTaskSuspendAll();                                                       \
  97:../../../../dependencies/freertos/FreeRTOSv10.4.1/FreeRTOS/Source/stream_buffer.c ****     {                                                                        \
  98:../../../../dependencies/freertos/FreeRTOSv10.4.1/FreeRTOS/Source/stream_buffer.c ****         if( ( pxStreamBuffer )->xTaskWaitingToReceive != NULL )              \
  99:../../../../dependencies/freertos/FreeRTOSv10.4.1/FreeRTOS/Source/stream_buffer.c ****         {                                                                    \
 100:../../../../dependencies/freertos/FreeRTOSv10.4.1/FreeRTOS/Source/stream_buffer.c ****             ( void ) xTaskNotify( ( pxStreamBuffer )->xTaskWaitingToReceive, \
 101:../../../../dependencies/freertos/FreeRTOSv10.4.1/FreeRTOS/Source/stream_buffer.c ****                                   ( uint32_t ) 0,                            \
 102:../../../../dependencies/freertos/FreeRTOSv10.4.1/FreeRTOS/Source/stream_buffer.c ****                                   eNoAction );                               \
 103:../../../../dependencies/freertos/FreeRTOSv10.4.1/FreeRTOS/Source/stream_buffer.c ****             ( pxStreamBuffer )->xTaskWaitingToReceive = NULL;                \
 104:../../../../dependencies/freertos/FreeRTOSv10.4.1/FreeRTOS/Source/stream_buffer.c ****         }                                                                    \
 105:../../../../dependencies/freertos/FreeRTOSv10.4.1/FreeRTOS/Source/stream_buffer.c ****     }                                                                        \
 106:../../../../dependencies/freertos/FreeRTOSv10.4.1/FreeRTOS/Source/stream_buffer.c ****     ( void ) xTaskResumeAll();
 107:../../../../dependencies/freertos/FreeRTOSv10.4.1/FreeRTOS/Source/stream_buffer.c **** #endif /* sbSEND_COMPLETED */
 108:../../../../dependencies/freertos/FreeRTOSv10.4.1/FreeRTOS/Source/stream_buffer.c **** 
 109:../../../../dependencies/freertos/FreeRTOSv10.4.1/FreeRTOS/Source/stream_buffer.c **** #ifndef sbSEND_COMPLETE_FROM_ISR
 110:../../../../dependencies/freertos/FreeRTOSv10.4.1/FreeRTOS/Source/stream_buffer.c ****     #define sbSEND_COMPLETE_FROM_ISR( pxStreamBuffer, pxHigherPriorityTaskWoken )       \
 111:../../../../dependencies/freertos/FreeRTOSv10.4.1/FreeRTOS/Source/stream_buffer.c ****     {                                                                                   \
 112:../../../../dependencies/freertos/FreeRTOSv10.4.1/FreeRTOS/Source/stream_buffer.c ****         UBaseType_t uxSavedInterruptStatus;                                             \
 113:../../../../dependencies/freertos/FreeRTOSv10.4.1/FreeRTOS/Source/stream_buffer.c ****                                                                                         \
 114:../../../../dependencies/freertos/FreeRTOSv10.4.1/FreeRTOS/Source/stream_buffer.c ****         uxSavedInterruptStatus = ( UBaseType_t ) portSET_INTERRUPT_MASK_FROM_ISR();     \
 115:../../../../dependencies/freertos/FreeRTOSv10.4.1/FreeRTOS/Source/stream_buffer.c ****         {                                                                               \
 116:../../../../dependencies/freertos/FreeRTOSv10.4.1/FreeRTOS/Source/stream_buffer.c ****             if( ( pxStreamBuffer )->xTaskWaitingToReceive != NULL )                     \
 117:../../../../dependencies/freertos/FreeRTOSv10.4.1/FreeRTOS/Source/stream_buffer.c ****             {                                                                           \
 118:../../../../dependencies/freertos/FreeRTOSv10.4.1/FreeRTOS/Source/stream_buffer.c ****                 ( void ) xTaskNotifyFromISR( ( pxStreamBuffer )->xTaskWaitingToReceive, \
 119:../../../../dependencies/freertos/FreeRTOSv10.4.1/FreeRTOS/Source/stream_buffer.c ****                                              ( uint32_t ) 0,                            \
 120:../../../../dependencies/freertos/FreeRTOSv10.4.1/FreeRTOS/Source/stream_buffer.c ****                                              eNoAction,                                 \
 121:../../../../dependencies/freertos/FreeRTOSv10.4.1/FreeRTOS/Source/stream_buffer.c ****                                              pxHigherPriorityTaskWoken );               \
 122:../../../../dependencies/freertos/FreeRTOSv10.4.1/FreeRTOS/Source/stream_buffer.c ****                 ( pxStreamBuffer )->xTaskWaitingToReceive = NULL;                       \
 123:../../../../dependencies/freertos/FreeRTOSv10.4.1/FreeRTOS/Source/stream_buffer.c ****             }                                                                           \
 124:../../../../dependencies/freertos/FreeRTOSv10.4.1/FreeRTOS/Source/stream_buffer.c ****         }                                                                               \
 125:../../../../dependencies/freertos/FreeRTOSv10.4.1/FreeRTOS/Source/stream_buffer.c ****         portCLEAR_INTERRUPT_MASK_FROM_ISR( uxSavedInterruptStatus );                    \
 126:../../../../dependencies/freertos/FreeRTOSv10.4.1/FreeRTOS/Source/stream_buffer.c ****     }
 127:../../../../dependencies/freertos/FreeRTOSv10.4.1/FreeRTOS/Source/stream_buffer.c **** #endif /* sbSEND_COMPLETE_FROM_ISR */
 128:../../../../dependencies/freertos/FreeRTOSv10.4.1/FreeRTOS/Source/stream_buffer.c **** /*lint -restore (9026) */
 129:../../../../dependencies/freertos/FreeRTOSv10.4.1/FreeRTOS/Source/stream_buffer.c **** 
 130:../../../../dependencies/freertos/FreeRTOSv10.4.1/FreeRTOS/Source/stream_buffer.c **** /* The number of bytes used to hold the length of a message in the buffer. */
 131:../../../../dependencies/freertos/FreeRTOSv10.4.1/FreeRTOS/Source/stream_buffer.c **** #define sbBYTES_TO_STORE_MESSAGE_LENGTH    ( sizeof( configMESSAGE_BUFFER_LENGTH_TYPE ) )
 132:../../../../dependencies/freertos/FreeRTOSv10.4.1/FreeRTOS/Source/stream_buffer.c **** 
 133:../../../../dependencies/freertos/FreeRTOSv10.4.1/FreeRTOS/Source/stream_buffer.c **** /* Bits stored in the ucFlags field of the stream buffer. */
 134:../../../../dependencies/freertos/FreeRTOSv10.4.1/FreeRTOS/Source/stream_buffer.c **** #define sbFLAGS_IS_MESSAGE_BUFFER          ( ( uint8_t ) 1 ) /* Set if the stream buffer was create
 135:../../../../dependencies/freertos/FreeRTOSv10.4.1/FreeRTOS/Source/stream_buffer.c **** #define sbFLAGS_IS_STATICALLY_ALLOCATED    ( ( uint8_t ) 2 ) /* Set if the stream buffer was create
 136:../../../../dependencies/freertos/FreeRTOSv10.4.1/FreeRTOS/Source/stream_buffer.c **** 
 137:../../../../dependencies/freertos/FreeRTOSv10.4.1/FreeRTOS/Source/stream_buffer.c **** /*-----------------------------------------------------------*/
 138:../../../../dependencies/freertos/FreeRTOSv10.4.1/FreeRTOS/Source/stream_buffer.c **** 
 139:../../../../dependencies/freertos/FreeRTOSv10.4.1/FreeRTOS/Source/stream_buffer.c **** /* Structure that hold state information on the buffer. */
 140:../../../../dependencies/freertos/FreeRTOSv10.4.1/FreeRTOS/Source/stream_buffer.c **** typedef struct StreamBufferDef_t                 /*lint !e9058 Style convention uses tag. */
 141:../../../../dependencies/freertos/FreeRTOSv10.4.1/FreeRTOS/Source/stream_buffer.c **** {
 142:../../../../dependencies/freertos/FreeRTOSv10.4.1/FreeRTOS/Source/stream_buffer.c ****     volatile size_t xTail;                       /* Index to the next item to read within the buffe
 143:../../../../dependencies/freertos/FreeRTOSv10.4.1/FreeRTOS/Source/stream_buffer.c ****     volatile size_t xHead;                       /* Index to the next item to write within the buff
 144:../../../../dependencies/freertos/FreeRTOSv10.4.1/FreeRTOS/Source/stream_buffer.c ****     size_t xLength;                              /* The length of the buffer pointed to by pucBuffe
ARM GAS  /var/folders/_8/_cw6l3nd335f_j6cn6z79m4m0000gn/T//ccSM72RG.s 			page 4


 145:../../../../dependencies/freertos/FreeRTOSv10.4.1/FreeRTOS/Source/stream_buffer.c ****     size_t xTriggerLevelBytes;                   /* The number of bytes that must be in the stream 
 146:../../../../dependencies/freertos/FreeRTOSv10.4.1/FreeRTOS/Source/stream_buffer.c ****     volatile TaskHandle_t xTaskWaitingToReceive; /* Holds the handle of a task waiting for data, or
 147:../../../../dependencies/freertos/FreeRTOSv10.4.1/FreeRTOS/Source/stream_buffer.c ****     volatile TaskHandle_t xTaskWaitingToSend;    /* Holds the handle of a task waiting to send data
 148:../../../../dependencies/freertos/FreeRTOSv10.4.1/FreeRTOS/Source/stream_buffer.c ****     uint8_t * pucBuffer;                         /* Points to the buffer itself - that is - the RAM
 149:../../../../dependencies/freertos/FreeRTOSv10.4.1/FreeRTOS/Source/stream_buffer.c ****     uint8_t ucFlags;
 150:../../../../dependencies/freertos/FreeRTOSv10.4.1/FreeRTOS/Source/stream_buffer.c **** 
 151:../../../../dependencies/freertos/FreeRTOSv10.4.1/FreeRTOS/Source/stream_buffer.c ****     #if ( configUSE_TRACE_FACILITY == 1 )
 152:../../../../dependencies/freertos/FreeRTOSv10.4.1/FreeRTOS/Source/stream_buffer.c ****         UBaseType_t uxStreamBufferNumber; /* Used for tracing purposes. */
 153:../../../../dependencies/freertos/FreeRTOSv10.4.1/FreeRTOS/Source/stream_buffer.c ****     #endif
 154:../../../../dependencies/freertos/FreeRTOSv10.4.1/FreeRTOS/Source/stream_buffer.c **** } StreamBuffer_t;
 155:../../../../dependencies/freertos/FreeRTOSv10.4.1/FreeRTOS/Source/stream_buffer.c **** 
 156:../../../../dependencies/freertos/FreeRTOSv10.4.1/FreeRTOS/Source/stream_buffer.c **** /*
 157:../../../../dependencies/freertos/FreeRTOSv10.4.1/FreeRTOS/Source/stream_buffer.c ****  * The number of bytes available to be read from the buffer.
 158:../../../../dependencies/freertos/FreeRTOSv10.4.1/FreeRTOS/Source/stream_buffer.c ****  */
 159:../../../../dependencies/freertos/FreeRTOSv10.4.1/FreeRTOS/Source/stream_buffer.c **** static size_t prvBytesInBuffer( const StreamBuffer_t * const pxStreamBuffer ) PRIVILEGED_FUNCTION;
 160:../../../../dependencies/freertos/FreeRTOSv10.4.1/FreeRTOS/Source/stream_buffer.c **** 
 161:../../../../dependencies/freertos/FreeRTOSv10.4.1/FreeRTOS/Source/stream_buffer.c **** /*
 162:../../../../dependencies/freertos/FreeRTOSv10.4.1/FreeRTOS/Source/stream_buffer.c ****  * Add xCount bytes from pucData into the pxStreamBuffer message buffer.
 163:../../../../dependencies/freertos/FreeRTOSv10.4.1/FreeRTOS/Source/stream_buffer.c ****  * Returns the number of bytes written, which will either equal xCount in the
 164:../../../../dependencies/freertos/FreeRTOSv10.4.1/FreeRTOS/Source/stream_buffer.c ****  * success case, or 0 if there was not enough space in the buffer (in which case
 165:../../../../dependencies/freertos/FreeRTOSv10.4.1/FreeRTOS/Source/stream_buffer.c ****  * no data is written into the buffer).
 166:../../../../dependencies/freertos/FreeRTOSv10.4.1/FreeRTOS/Source/stream_buffer.c ****  */
 167:../../../../dependencies/freertos/FreeRTOSv10.4.1/FreeRTOS/Source/stream_buffer.c **** static size_t prvWriteBytesToBuffer( StreamBuffer_t * const pxStreamBuffer,
 168:../../../../dependencies/freertos/FreeRTOSv10.4.1/FreeRTOS/Source/stream_buffer.c ****                                      const uint8_t * pucData,
 169:../../../../dependencies/freertos/FreeRTOSv10.4.1/FreeRTOS/Source/stream_buffer.c ****                                      size_t xCount ) PRIVILEGED_FUNCTION;
 170:../../../../dependencies/freertos/FreeRTOSv10.4.1/FreeRTOS/Source/stream_buffer.c **** 
 171:../../../../dependencies/freertos/FreeRTOSv10.4.1/FreeRTOS/Source/stream_buffer.c **** /*
 172:../../../../dependencies/freertos/FreeRTOSv10.4.1/FreeRTOS/Source/stream_buffer.c ****  * If the stream buffer is being used as a message buffer, then reads an entire
 173:../../../../dependencies/freertos/FreeRTOSv10.4.1/FreeRTOS/Source/stream_buffer.c ****  * message out of the buffer.  If the stream buffer is being used as a stream
 174:../../../../dependencies/freertos/FreeRTOSv10.4.1/FreeRTOS/Source/stream_buffer.c ****  * buffer then read as many bytes as possible from the buffer.
 175:../../../../dependencies/freertos/FreeRTOSv10.4.1/FreeRTOS/Source/stream_buffer.c ****  * prvReadBytesFromBuffer() is called to actually extract the bytes from the
 176:../../../../dependencies/freertos/FreeRTOSv10.4.1/FreeRTOS/Source/stream_buffer.c ****  * buffer's data storage area.
 177:../../../../dependencies/freertos/FreeRTOSv10.4.1/FreeRTOS/Source/stream_buffer.c ****  */
 178:../../../../dependencies/freertos/FreeRTOSv10.4.1/FreeRTOS/Source/stream_buffer.c **** static size_t prvReadMessageFromBuffer( StreamBuffer_t * pxStreamBuffer,
 179:../../../../dependencies/freertos/FreeRTOSv10.4.1/FreeRTOS/Source/stream_buffer.c ****                                         void * pvRxData,
 180:../../../../dependencies/freertos/FreeRTOSv10.4.1/FreeRTOS/Source/stream_buffer.c ****                                         size_t xBufferLengthBytes,
 181:../../../../dependencies/freertos/FreeRTOSv10.4.1/FreeRTOS/Source/stream_buffer.c ****                                         size_t xBytesAvailable,
 182:../../../../dependencies/freertos/FreeRTOSv10.4.1/FreeRTOS/Source/stream_buffer.c ****                                         size_t xBytesToStoreMessageLength ) PRIVILEGED_FUNCTION;
 183:../../../../dependencies/freertos/FreeRTOSv10.4.1/FreeRTOS/Source/stream_buffer.c **** 
 184:../../../../dependencies/freertos/FreeRTOSv10.4.1/FreeRTOS/Source/stream_buffer.c **** /*
 185:../../../../dependencies/freertos/FreeRTOSv10.4.1/FreeRTOS/Source/stream_buffer.c ****  * If the stream buffer is being used as a message buffer, then writes an entire
 186:../../../../dependencies/freertos/FreeRTOSv10.4.1/FreeRTOS/Source/stream_buffer.c ****  * message to the buffer.  If the stream buffer is being used as a stream
 187:../../../../dependencies/freertos/FreeRTOSv10.4.1/FreeRTOS/Source/stream_buffer.c ****  * buffer then write as many bytes as possible to the buffer.
 188:../../../../dependencies/freertos/FreeRTOSv10.4.1/FreeRTOS/Source/stream_buffer.c ****  * prvWriteBytestoBuffer() is called to actually send the bytes to the buffer's
 189:../../../../dependencies/freertos/FreeRTOSv10.4.1/FreeRTOS/Source/stream_buffer.c ****  * data storage area.
 190:../../../../dependencies/freertos/FreeRTOSv10.4.1/FreeRTOS/Source/stream_buffer.c ****  */
 191:../../../../dependencies/freertos/FreeRTOSv10.4.1/FreeRTOS/Source/stream_buffer.c **** static size_t prvWriteMessageToBuffer( StreamBuffer_t * const pxStreamBuffer,
 192:../../../../dependencies/freertos/FreeRTOSv10.4.1/FreeRTOS/Source/stream_buffer.c ****                                        const void * pvTxData,
 193:../../../../dependencies/freertos/FreeRTOSv10.4.1/FreeRTOS/Source/stream_buffer.c ****                                        size_t xDataLengthBytes,
 194:../../../../dependencies/freertos/FreeRTOSv10.4.1/FreeRTOS/Source/stream_buffer.c ****                                        size_t xSpace,
 195:../../../../dependencies/freertos/FreeRTOSv10.4.1/FreeRTOS/Source/stream_buffer.c ****                                        size_t xRequiredSpace ) PRIVILEGED_FUNCTION;
 196:../../../../dependencies/freertos/FreeRTOSv10.4.1/FreeRTOS/Source/stream_buffer.c **** 
 197:../../../../dependencies/freertos/FreeRTOSv10.4.1/FreeRTOS/Source/stream_buffer.c **** /*
 198:../../../../dependencies/freertos/FreeRTOSv10.4.1/FreeRTOS/Source/stream_buffer.c ****  * Read xMaxCount bytes from the pxStreamBuffer message buffer and write them
 199:../../../../dependencies/freertos/FreeRTOSv10.4.1/FreeRTOS/Source/stream_buffer.c ****  * to pucData.
 200:../../../../dependencies/freertos/FreeRTOSv10.4.1/FreeRTOS/Source/stream_buffer.c ****  */
 201:../../../../dependencies/freertos/FreeRTOSv10.4.1/FreeRTOS/Source/stream_buffer.c **** static size_t prvReadBytesFromBuffer( StreamBuffer_t * pxStreamBuffer,
ARM GAS  /var/folders/_8/_cw6l3nd335f_j6cn6z79m4m0000gn/T//ccSM72RG.s 			page 5


 202:../../../../dependencies/freertos/FreeRTOSv10.4.1/FreeRTOS/Source/stream_buffer.c ****                                       uint8_t * pucData,
 203:../../../../dependencies/freertos/FreeRTOSv10.4.1/FreeRTOS/Source/stream_buffer.c ****                                       size_t xMaxCount,
 204:../../../../dependencies/freertos/FreeRTOSv10.4.1/FreeRTOS/Source/stream_buffer.c ****                                       size_t xBytesAvailable ) PRIVILEGED_FUNCTION;
 205:../../../../dependencies/freertos/FreeRTOSv10.4.1/FreeRTOS/Source/stream_buffer.c **** 
 206:../../../../dependencies/freertos/FreeRTOSv10.4.1/FreeRTOS/Source/stream_buffer.c **** /*
 207:../../../../dependencies/freertos/FreeRTOSv10.4.1/FreeRTOS/Source/stream_buffer.c ****  * Called by both pxStreamBufferCreate() and pxStreamBufferCreateStatic() to
 208:../../../../dependencies/freertos/FreeRTOSv10.4.1/FreeRTOS/Source/stream_buffer.c ****  * initialise the members of the newly created stream buffer structure.
 209:../../../../dependencies/freertos/FreeRTOSv10.4.1/FreeRTOS/Source/stream_buffer.c ****  */
 210:../../../../dependencies/freertos/FreeRTOSv10.4.1/FreeRTOS/Source/stream_buffer.c **** static void prvInitialiseNewStreamBuffer( StreamBuffer_t * const pxStreamBuffer,
 211:../../../../dependencies/freertos/FreeRTOSv10.4.1/FreeRTOS/Source/stream_buffer.c ****                                           uint8_t * const pucBuffer,
 212:../../../../dependencies/freertos/FreeRTOSv10.4.1/FreeRTOS/Source/stream_buffer.c ****                                           size_t xBufferSizeBytes,
 213:../../../../dependencies/freertos/FreeRTOSv10.4.1/FreeRTOS/Source/stream_buffer.c ****                                           size_t xTriggerLevelBytes,
 214:../../../../dependencies/freertos/FreeRTOSv10.4.1/FreeRTOS/Source/stream_buffer.c ****                                           uint8_t ucFlags ) PRIVILEGED_FUNCTION;
 215:../../../../dependencies/freertos/FreeRTOSv10.4.1/FreeRTOS/Source/stream_buffer.c **** 
 216:../../../../dependencies/freertos/FreeRTOSv10.4.1/FreeRTOS/Source/stream_buffer.c **** /*-----------------------------------------------------------*/
 217:../../../../dependencies/freertos/FreeRTOSv10.4.1/FreeRTOS/Source/stream_buffer.c **** 
 218:../../../../dependencies/freertos/FreeRTOSv10.4.1/FreeRTOS/Source/stream_buffer.c **** #if ( configSUPPORT_DYNAMIC_ALLOCATION == 1 )
 219:../../../../dependencies/freertos/FreeRTOSv10.4.1/FreeRTOS/Source/stream_buffer.c **** 
 220:../../../../dependencies/freertos/FreeRTOSv10.4.1/FreeRTOS/Source/stream_buffer.c ****     StreamBufferHandle_t xStreamBufferGenericCreate( size_t xBufferSizeBytes,
 221:../../../../dependencies/freertos/FreeRTOSv10.4.1/FreeRTOS/Source/stream_buffer.c ****                                                      size_t xTriggerLevelBytes,
 222:../../../../dependencies/freertos/FreeRTOSv10.4.1/FreeRTOS/Source/stream_buffer.c ****                                                      BaseType_t xIsMessageBuffer )
 223:../../../../dependencies/freertos/FreeRTOSv10.4.1/FreeRTOS/Source/stream_buffer.c ****     {
  29              		.loc 1 223 0
  30              		.cfi_startproc
  31              		@ args = 0, pretend = 0, frame = 40
  32              		@ frame_needed = 1, uses_anonymous_args = 0
  33 0000 80B5     		push	{r7, lr}
  34              	.LCFI0:
  35              		.cfi_def_cfa_offset 8
  36              		.cfi_offset 7, -8
  37              		.cfi_offset 14, -4
  38 0002 8CB0     		sub	sp, sp, #48
  39              	.LCFI1:
  40              		.cfi_def_cfa_offset 56
  41 0004 02AF     		add	r7, sp, #8
  42              	.LCFI2:
  43              		.cfi_def_cfa 7, 48
  44 0006 F860     		str	r0, [r7, #12]
  45 0008 B960     		str	r1, [r7, #8]
  46 000a 7A60     		str	r2, [r7, #4]
 224:../../../../dependencies/freertos/FreeRTOSv10.4.1/FreeRTOS/Source/stream_buffer.c ****         uint8_t * pucAllocatedMemory;
 225:../../../../dependencies/freertos/FreeRTOSv10.4.1/FreeRTOS/Source/stream_buffer.c ****         uint8_t ucFlags;
 226:../../../../dependencies/freertos/FreeRTOSv10.4.1/FreeRTOS/Source/stream_buffer.c **** 
 227:../../../../dependencies/freertos/FreeRTOSv10.4.1/FreeRTOS/Source/stream_buffer.c ****         /* In case the stream buffer is going to be used as a message buffer
 228:../../../../dependencies/freertos/FreeRTOSv10.4.1/FreeRTOS/Source/stream_buffer.c ****          * (that is, it will hold discrete messages with a little meta data that
 229:../../../../dependencies/freertos/FreeRTOSv10.4.1/FreeRTOS/Source/stream_buffer.c ****          * says how big the next message is) check the buffer will be large enough
 230:../../../../dependencies/freertos/FreeRTOSv10.4.1/FreeRTOS/Source/stream_buffer.c ****          * to hold at least one message. */
 231:../../../../dependencies/freertos/FreeRTOSv10.4.1/FreeRTOS/Source/stream_buffer.c ****         if( xIsMessageBuffer == pdTRUE )
  47              		.loc 1 231 0
  48 000c 7B68     		ldr	r3, [r7, #4]
  49 000e 012B     		cmp	r3, #1
  50 0010 0FD1     		bne	.L2
 232:../../../../dependencies/freertos/FreeRTOSv10.4.1/FreeRTOS/Source/stream_buffer.c ****         {
 233:../../../../dependencies/freertos/FreeRTOSv10.4.1/FreeRTOS/Source/stream_buffer.c ****             /* Is a message buffer but not statically allocated. */
 234:../../../../dependencies/freertos/FreeRTOSv10.4.1/FreeRTOS/Source/stream_buffer.c ****             ucFlags = sbFLAGS_IS_MESSAGE_BUFFER;
  51              		.loc 1 234 0
  52 0012 0123     		movs	r3, #1
ARM GAS  /var/folders/_8/_cw6l3nd335f_j6cn6z79m4m0000gn/T//ccSM72RG.s 			page 6


  53 0014 87F82730 		strb	r3, [r7, #39]
 235:../../../../dependencies/freertos/FreeRTOSv10.4.1/FreeRTOS/Source/stream_buffer.c ****             configASSERT( xBufferSizeBytes > sbBYTES_TO_STORE_MESSAGE_LENGTH );
  54              		.loc 1 235 0
  55 0018 FB68     		ldr	r3, [r7, #12]
  56 001a 042B     		cmp	r3, #4
  57 001c 19D8     		bhi	.L3
  58              	.LBB85:
  59              	.LBB86:
  60              		.file 2 "../../../../dependencies/freertos/FreeRTOSv10.4.1/FreeRTOS/Source/portable/GCC/ARM_CM4F/p
   1:../../../../dependencies/freertos/FreeRTOSv10.4.1/FreeRTOS/Source/portable/GCC/ARM_CM4F/portmacro.h **** /*
   2:../../../../dependencies/freertos/FreeRTOSv10.4.1/FreeRTOS/Source/portable/GCC/ARM_CM4F/portmacro.h ****  * FreeRTOS Kernel V10.4.1
   3:../../../../dependencies/freertos/FreeRTOSv10.4.1/FreeRTOS/Source/portable/GCC/ARM_CM4F/portmacro.h ****  * Copyright (C) 2020 Amazon.com, Inc. or its affiliates.  All Rights Reserved.
   4:../../../../dependencies/freertos/FreeRTOSv10.4.1/FreeRTOS/Source/portable/GCC/ARM_CM4F/portmacro.h ****  *
   5:../../../../dependencies/freertos/FreeRTOSv10.4.1/FreeRTOS/Source/portable/GCC/ARM_CM4F/portmacro.h ****  * Permission is hereby granted, free of charge, to any person obtaining a copy of
   6:../../../../dependencies/freertos/FreeRTOSv10.4.1/FreeRTOS/Source/portable/GCC/ARM_CM4F/portmacro.h ****  * this software and associated documentation files (the "Software"), to deal in
   7:../../../../dependencies/freertos/FreeRTOSv10.4.1/FreeRTOS/Source/portable/GCC/ARM_CM4F/portmacro.h ****  * the Software without restriction, including without limitation the rights to
   8:../../../../dependencies/freertos/FreeRTOSv10.4.1/FreeRTOS/Source/portable/GCC/ARM_CM4F/portmacro.h ****  * use, copy, modify, merge, publish, distribute, sublicense, and/or sell copies of
   9:../../../../dependencies/freertos/FreeRTOSv10.4.1/FreeRTOS/Source/portable/GCC/ARM_CM4F/portmacro.h ****  * the Software, and to permit persons to whom the Software is furnished to do so,
  10:../../../../dependencies/freertos/FreeRTOSv10.4.1/FreeRTOS/Source/portable/GCC/ARM_CM4F/portmacro.h ****  * subject to the following conditions:
  11:../../../../dependencies/freertos/FreeRTOSv10.4.1/FreeRTOS/Source/portable/GCC/ARM_CM4F/portmacro.h ****  *
  12:../../../../dependencies/freertos/FreeRTOSv10.4.1/FreeRTOS/Source/portable/GCC/ARM_CM4F/portmacro.h ****  * The above copyright notice and this permission notice shall be included in all
  13:../../../../dependencies/freertos/FreeRTOSv10.4.1/FreeRTOS/Source/portable/GCC/ARM_CM4F/portmacro.h ****  * copies or substantial portions of the Software.
  14:../../../../dependencies/freertos/FreeRTOSv10.4.1/FreeRTOS/Source/portable/GCC/ARM_CM4F/portmacro.h ****  *
  15:../../../../dependencies/freertos/FreeRTOSv10.4.1/FreeRTOS/Source/portable/GCC/ARM_CM4F/portmacro.h ****  * THE SOFTWARE IS PROVIDED "AS IS", WITHOUT WARRANTY OF ANY KIND, EXPRESS OR
  16:../../../../dependencies/freertos/FreeRTOSv10.4.1/FreeRTOS/Source/portable/GCC/ARM_CM4F/portmacro.h ****  * IMPLIED, INCLUDING BUT NOT LIMITED TO THE WARRANTIES OF MERCHANTABILITY, FITNESS
  17:../../../../dependencies/freertos/FreeRTOSv10.4.1/FreeRTOS/Source/portable/GCC/ARM_CM4F/portmacro.h ****  * FOR A PARTICULAR PURPOSE AND NONINFRINGEMENT. IN NO EVENT SHALL THE AUTHORS OR
  18:../../../../dependencies/freertos/FreeRTOSv10.4.1/FreeRTOS/Source/portable/GCC/ARM_CM4F/portmacro.h ****  * COPYRIGHT HOLDERS BE LIABLE FOR ANY CLAIM, DAMAGES OR OTHER LIABILITY, WHETHER
  19:../../../../dependencies/freertos/FreeRTOSv10.4.1/FreeRTOS/Source/portable/GCC/ARM_CM4F/portmacro.h ****  * IN AN ACTION OF CONTRACT, TORT OR OTHERWISE, ARISING FROM, OUT OF OR IN
  20:../../../../dependencies/freertos/FreeRTOSv10.4.1/FreeRTOS/Source/portable/GCC/ARM_CM4F/portmacro.h ****  * CONNECTION WITH THE SOFTWARE OR THE USE OR OTHER DEALINGS IN THE SOFTWARE.
  21:../../../../dependencies/freertos/FreeRTOSv10.4.1/FreeRTOS/Source/portable/GCC/ARM_CM4F/portmacro.h ****  *
  22:../../../../dependencies/freertos/FreeRTOSv10.4.1/FreeRTOS/Source/portable/GCC/ARM_CM4F/portmacro.h ****  * https://www.FreeRTOS.org
  23:../../../../dependencies/freertos/FreeRTOSv10.4.1/FreeRTOS/Source/portable/GCC/ARM_CM4F/portmacro.h ****  * https://github.com/FreeRTOS
  24:../../../../dependencies/freertos/FreeRTOSv10.4.1/FreeRTOS/Source/portable/GCC/ARM_CM4F/portmacro.h ****  *
  25:../../../../dependencies/freertos/FreeRTOSv10.4.1/FreeRTOS/Source/portable/GCC/ARM_CM4F/portmacro.h ****  * 1 tab == 4 spaces!
  26:../../../../dependencies/freertos/FreeRTOSv10.4.1/FreeRTOS/Source/portable/GCC/ARM_CM4F/portmacro.h ****  */
  27:../../../../dependencies/freertos/FreeRTOSv10.4.1/FreeRTOS/Source/portable/GCC/ARM_CM4F/portmacro.h **** 
  28:../../../../dependencies/freertos/FreeRTOSv10.4.1/FreeRTOS/Source/portable/GCC/ARM_CM4F/portmacro.h **** 
  29:../../../../dependencies/freertos/FreeRTOSv10.4.1/FreeRTOS/Source/portable/GCC/ARM_CM4F/portmacro.h **** #ifndef PORTMACRO_H
  30:../../../../dependencies/freertos/FreeRTOSv10.4.1/FreeRTOS/Source/portable/GCC/ARM_CM4F/portmacro.h ****     #define PORTMACRO_H
  31:../../../../dependencies/freertos/FreeRTOSv10.4.1/FreeRTOS/Source/portable/GCC/ARM_CM4F/portmacro.h **** 
  32:../../../../dependencies/freertos/FreeRTOSv10.4.1/FreeRTOS/Source/portable/GCC/ARM_CM4F/portmacro.h ****     #ifdef __cplusplus
  33:../../../../dependencies/freertos/FreeRTOSv10.4.1/FreeRTOS/Source/portable/GCC/ARM_CM4F/portmacro.h ****         extern "C" {
  34:../../../../dependencies/freertos/FreeRTOSv10.4.1/FreeRTOS/Source/portable/GCC/ARM_CM4F/portmacro.h ****     #endif
  35:../../../../dependencies/freertos/FreeRTOSv10.4.1/FreeRTOS/Source/portable/GCC/ARM_CM4F/portmacro.h **** 
  36:../../../../dependencies/freertos/FreeRTOSv10.4.1/FreeRTOS/Source/portable/GCC/ARM_CM4F/portmacro.h **** /*-----------------------------------------------------------
  37:../../../../dependencies/freertos/FreeRTOSv10.4.1/FreeRTOS/Source/portable/GCC/ARM_CM4F/portmacro.h ****  * Port specific definitions.
  38:../../../../dependencies/freertos/FreeRTOSv10.4.1/FreeRTOS/Source/portable/GCC/ARM_CM4F/portmacro.h ****  *
  39:../../../../dependencies/freertos/FreeRTOSv10.4.1/FreeRTOS/Source/portable/GCC/ARM_CM4F/portmacro.h ****  * The settings in this file configure FreeRTOS correctly for the
  40:../../../../dependencies/freertos/FreeRTOSv10.4.1/FreeRTOS/Source/portable/GCC/ARM_CM4F/portmacro.h ****  * given hardware and compiler.
  41:../../../../dependencies/freertos/FreeRTOSv10.4.1/FreeRTOS/Source/portable/GCC/ARM_CM4F/portmacro.h ****  *
  42:../../../../dependencies/freertos/FreeRTOSv10.4.1/FreeRTOS/Source/portable/GCC/ARM_CM4F/portmacro.h ****  * These settings should not be altered.
  43:../../../../dependencies/freertos/FreeRTOSv10.4.1/FreeRTOS/Source/portable/GCC/ARM_CM4F/portmacro.h ****  *-----------------------------------------------------------
  44:../../../../dependencies/freertos/FreeRTOSv10.4.1/FreeRTOS/Source/portable/GCC/ARM_CM4F/portmacro.h ****  */
  45:../../../../dependencies/freertos/FreeRTOSv10.4.1/FreeRTOS/Source/portable/GCC/ARM_CM4F/portmacro.h **** 
  46:../../../../dependencies/freertos/FreeRTOSv10.4.1/FreeRTOS/Source/portable/GCC/ARM_CM4F/portmacro.h **** /* Type definitions. */
  47:../../../../dependencies/freertos/FreeRTOSv10.4.1/FreeRTOS/Source/portable/GCC/ARM_CM4F/portmacro.h ****     #define portCHAR          char
  48:../../../../dependencies/freertos/FreeRTOSv10.4.1/FreeRTOS/Source/portable/GCC/ARM_CM4F/portmacro.h ****     #define portFLOAT         float
ARM GAS  /var/folders/_8/_cw6l3nd335f_j6cn6z79m4m0000gn/T//ccSM72RG.s 			page 7


  49:../../../../dependencies/freertos/FreeRTOSv10.4.1/FreeRTOS/Source/portable/GCC/ARM_CM4F/portmacro.h ****     #define portDOUBLE        double
  50:../../../../dependencies/freertos/FreeRTOSv10.4.1/FreeRTOS/Source/portable/GCC/ARM_CM4F/portmacro.h ****     #define portLONG          long
  51:../../../../dependencies/freertos/FreeRTOSv10.4.1/FreeRTOS/Source/portable/GCC/ARM_CM4F/portmacro.h ****     #define portSHORT         short
  52:../../../../dependencies/freertos/FreeRTOSv10.4.1/FreeRTOS/Source/portable/GCC/ARM_CM4F/portmacro.h ****     #define portSTACK_TYPE    uint32_t
  53:../../../../dependencies/freertos/FreeRTOSv10.4.1/FreeRTOS/Source/portable/GCC/ARM_CM4F/portmacro.h ****     #define portBASE_TYPE     long
  54:../../../../dependencies/freertos/FreeRTOSv10.4.1/FreeRTOS/Source/portable/GCC/ARM_CM4F/portmacro.h **** 
  55:../../../../dependencies/freertos/FreeRTOSv10.4.1/FreeRTOS/Source/portable/GCC/ARM_CM4F/portmacro.h ****     typedef portSTACK_TYPE   StackType_t;
  56:../../../../dependencies/freertos/FreeRTOSv10.4.1/FreeRTOS/Source/portable/GCC/ARM_CM4F/portmacro.h ****     typedef long             BaseType_t;
  57:../../../../dependencies/freertos/FreeRTOSv10.4.1/FreeRTOS/Source/portable/GCC/ARM_CM4F/portmacro.h ****     typedef unsigned long    UBaseType_t;
  58:../../../../dependencies/freertos/FreeRTOSv10.4.1/FreeRTOS/Source/portable/GCC/ARM_CM4F/portmacro.h **** 
  59:../../../../dependencies/freertos/FreeRTOSv10.4.1/FreeRTOS/Source/portable/GCC/ARM_CM4F/portmacro.h ****     #if ( configUSE_16_BIT_TICKS == 1 )
  60:../../../../dependencies/freertos/FreeRTOSv10.4.1/FreeRTOS/Source/portable/GCC/ARM_CM4F/portmacro.h ****         typedef uint16_t     TickType_t;
  61:../../../../dependencies/freertos/FreeRTOSv10.4.1/FreeRTOS/Source/portable/GCC/ARM_CM4F/portmacro.h ****         #define portMAX_DELAY              ( TickType_t ) 0xffff
  62:../../../../dependencies/freertos/FreeRTOSv10.4.1/FreeRTOS/Source/portable/GCC/ARM_CM4F/portmacro.h ****     #else
  63:../../../../dependencies/freertos/FreeRTOSv10.4.1/FreeRTOS/Source/portable/GCC/ARM_CM4F/portmacro.h ****         typedef uint32_t     TickType_t;
  64:../../../../dependencies/freertos/FreeRTOSv10.4.1/FreeRTOS/Source/portable/GCC/ARM_CM4F/portmacro.h ****         #define portMAX_DELAY              ( TickType_t ) 0xffffffffUL
  65:../../../../dependencies/freertos/FreeRTOSv10.4.1/FreeRTOS/Source/portable/GCC/ARM_CM4F/portmacro.h **** 
  66:../../../../dependencies/freertos/FreeRTOSv10.4.1/FreeRTOS/Source/portable/GCC/ARM_CM4F/portmacro.h **** /* 32-bit tick type on a 32-bit architecture, so reads of the tick count do
  67:../../../../dependencies/freertos/FreeRTOSv10.4.1/FreeRTOS/Source/portable/GCC/ARM_CM4F/portmacro.h ****  * not need to be guarded with a critical section. */
  68:../../../../dependencies/freertos/FreeRTOSv10.4.1/FreeRTOS/Source/portable/GCC/ARM_CM4F/portmacro.h ****         #define portTICK_TYPE_IS_ATOMIC    1
  69:../../../../dependencies/freertos/FreeRTOSv10.4.1/FreeRTOS/Source/portable/GCC/ARM_CM4F/portmacro.h ****     #endif
  70:../../../../dependencies/freertos/FreeRTOSv10.4.1/FreeRTOS/Source/portable/GCC/ARM_CM4F/portmacro.h **** /*-----------------------------------------------------------*/
  71:../../../../dependencies/freertos/FreeRTOSv10.4.1/FreeRTOS/Source/portable/GCC/ARM_CM4F/portmacro.h **** 
  72:../../../../dependencies/freertos/FreeRTOSv10.4.1/FreeRTOS/Source/portable/GCC/ARM_CM4F/portmacro.h **** /* Architecture specifics. */
  73:../../../../dependencies/freertos/FreeRTOSv10.4.1/FreeRTOS/Source/portable/GCC/ARM_CM4F/portmacro.h ****     #define portSTACK_GROWTH      ( -1 )
  74:../../../../dependencies/freertos/FreeRTOSv10.4.1/FreeRTOS/Source/portable/GCC/ARM_CM4F/portmacro.h ****     #define portTICK_PERIOD_MS    ( ( TickType_t ) 1000 / configTICK_RATE_HZ )
  75:../../../../dependencies/freertos/FreeRTOSv10.4.1/FreeRTOS/Source/portable/GCC/ARM_CM4F/portmacro.h ****     #define portBYTE_ALIGNMENT    8
  76:../../../../dependencies/freertos/FreeRTOSv10.4.1/FreeRTOS/Source/portable/GCC/ARM_CM4F/portmacro.h ****     #define portDONT_DISCARD      __attribute__( ( used ) )
  77:../../../../dependencies/freertos/FreeRTOSv10.4.1/FreeRTOS/Source/portable/GCC/ARM_CM4F/portmacro.h **** /*-----------------------------------------------------------*/
  78:../../../../dependencies/freertos/FreeRTOSv10.4.1/FreeRTOS/Source/portable/GCC/ARM_CM4F/portmacro.h **** 
  79:../../../../dependencies/freertos/FreeRTOSv10.4.1/FreeRTOS/Source/portable/GCC/ARM_CM4F/portmacro.h **** /* Scheduler utilities. */
  80:../../../../dependencies/freertos/FreeRTOSv10.4.1/FreeRTOS/Source/portable/GCC/ARM_CM4F/portmacro.h ****     #define portYIELD()                                 \
  81:../../../../dependencies/freertos/FreeRTOSv10.4.1/FreeRTOS/Source/portable/GCC/ARM_CM4F/portmacro.h ****     {                                                   \
  82:../../../../dependencies/freertos/FreeRTOSv10.4.1/FreeRTOS/Source/portable/GCC/ARM_CM4F/portmacro.h ****         /* Set a PendSV to request a context switch. */ \
  83:../../../../dependencies/freertos/FreeRTOSv10.4.1/FreeRTOS/Source/portable/GCC/ARM_CM4F/portmacro.h ****         portNVIC_INT_CTRL_REG = portNVIC_PENDSVSET_BIT; \
  84:../../../../dependencies/freertos/FreeRTOSv10.4.1/FreeRTOS/Source/portable/GCC/ARM_CM4F/portmacro.h ****                                                         \
  85:../../../../dependencies/freertos/FreeRTOSv10.4.1/FreeRTOS/Source/portable/GCC/ARM_CM4F/portmacro.h ****         /* Barriers are normally not required but do ensure the code is completely \
  86:../../../../dependencies/freertos/FreeRTOSv10.4.1/FreeRTOS/Source/portable/GCC/ARM_CM4F/portmacro.h ****          * within the specified behaviour for the architecture. */ \
  87:../../../../dependencies/freertos/FreeRTOSv10.4.1/FreeRTOS/Source/portable/GCC/ARM_CM4F/portmacro.h ****         __asm volatile ( "dsb" ::: "memory" );                     \
  88:../../../../dependencies/freertos/FreeRTOSv10.4.1/FreeRTOS/Source/portable/GCC/ARM_CM4F/portmacro.h ****         __asm volatile ( "isb" );                                  \
  89:../../../../dependencies/freertos/FreeRTOSv10.4.1/FreeRTOS/Source/portable/GCC/ARM_CM4F/portmacro.h ****     }
  90:../../../../dependencies/freertos/FreeRTOSv10.4.1/FreeRTOS/Source/portable/GCC/ARM_CM4F/portmacro.h **** 
  91:../../../../dependencies/freertos/FreeRTOSv10.4.1/FreeRTOS/Source/portable/GCC/ARM_CM4F/portmacro.h ****     #define portNVIC_INT_CTRL_REG     ( *( ( volatile uint32_t * ) 0xe000ed04 ) )
  92:../../../../dependencies/freertos/FreeRTOSv10.4.1/FreeRTOS/Source/portable/GCC/ARM_CM4F/portmacro.h ****     #define portNVIC_PENDSVSET_BIT    ( 1UL << 28UL )
  93:../../../../dependencies/freertos/FreeRTOSv10.4.1/FreeRTOS/Source/portable/GCC/ARM_CM4F/portmacro.h ****     #define portEND_SWITCHING_ISR( xSwitchRequired )    if( xSwitchRequired != pdFALSE ) portYIELD(
  94:../../../../dependencies/freertos/FreeRTOSv10.4.1/FreeRTOS/Source/portable/GCC/ARM_CM4F/portmacro.h ****     #define portYIELD_FROM_ISR( x )                     portEND_SWITCHING_ISR( x )
  95:../../../../dependencies/freertos/FreeRTOSv10.4.1/FreeRTOS/Source/portable/GCC/ARM_CM4F/portmacro.h **** /*-----------------------------------------------------------*/
  96:../../../../dependencies/freertos/FreeRTOSv10.4.1/FreeRTOS/Source/portable/GCC/ARM_CM4F/portmacro.h **** 
  97:../../../../dependencies/freertos/FreeRTOSv10.4.1/FreeRTOS/Source/portable/GCC/ARM_CM4F/portmacro.h **** /* Critical section management. */
  98:../../../../dependencies/freertos/FreeRTOSv10.4.1/FreeRTOS/Source/portable/GCC/ARM_CM4F/portmacro.h ****     extern void vPortEnterCritical( void );
  99:../../../../dependencies/freertos/FreeRTOSv10.4.1/FreeRTOS/Source/portable/GCC/ARM_CM4F/portmacro.h ****     extern void vPortExitCritical( void );
 100:../../../../dependencies/freertos/FreeRTOSv10.4.1/FreeRTOS/Source/portable/GCC/ARM_CM4F/portmacro.h ****     #define portSET_INTERRUPT_MASK_FROM_ISR()         ulPortRaiseBASEPRI()
 101:../../../../dependencies/freertos/FreeRTOSv10.4.1/FreeRTOS/Source/portable/GCC/ARM_CM4F/portmacro.h ****     #define portCLEAR_INTERRUPT_MASK_FROM_ISR( x )    vPortSetBASEPRI( x )
 102:../../../../dependencies/freertos/FreeRTOSv10.4.1/FreeRTOS/Source/portable/GCC/ARM_CM4F/portmacro.h ****     #define portDISABLE_INTERRUPTS()                  vPortRaiseBASEPRI()
 103:../../../../dependencies/freertos/FreeRTOSv10.4.1/FreeRTOS/Source/portable/GCC/ARM_CM4F/portmacro.h ****     #define portENABLE_INTERRUPTS()                   vPortSetBASEPRI( 0 )
 104:../../../../dependencies/freertos/FreeRTOSv10.4.1/FreeRTOS/Source/portable/GCC/ARM_CM4F/portmacro.h ****     #define portENTER_CRITICAL()                      vPortEnterCritical()
 105:../../../../dependencies/freertos/FreeRTOSv10.4.1/FreeRTOS/Source/portable/GCC/ARM_CM4F/portmacro.h ****     #define portEXIT_CRITICAL()                       vPortExitCritical()
ARM GAS  /var/folders/_8/_cw6l3nd335f_j6cn6z79m4m0000gn/T//ccSM72RG.s 			page 8


 106:../../../../dependencies/freertos/FreeRTOSv10.4.1/FreeRTOS/Source/portable/GCC/ARM_CM4F/portmacro.h **** 
 107:../../../../dependencies/freertos/FreeRTOSv10.4.1/FreeRTOS/Source/portable/GCC/ARM_CM4F/portmacro.h **** /*-----------------------------------------------------------*/
 108:../../../../dependencies/freertos/FreeRTOSv10.4.1/FreeRTOS/Source/portable/GCC/ARM_CM4F/portmacro.h **** 
 109:../../../../dependencies/freertos/FreeRTOSv10.4.1/FreeRTOS/Source/portable/GCC/ARM_CM4F/portmacro.h **** /* Task function macros as described on the FreeRTOS.org WEB site.  These are
 110:../../../../dependencies/freertos/FreeRTOSv10.4.1/FreeRTOS/Source/portable/GCC/ARM_CM4F/portmacro.h ****  * not necessary for to use this port.  They are defined so the common demo files
 111:../../../../dependencies/freertos/FreeRTOSv10.4.1/FreeRTOS/Source/portable/GCC/ARM_CM4F/portmacro.h ****  * (which build with all the ports) will build. */
 112:../../../../dependencies/freertos/FreeRTOSv10.4.1/FreeRTOS/Source/portable/GCC/ARM_CM4F/portmacro.h ****     #define portTASK_FUNCTION_PROTO( vFunction, pvParameters )    void vFunction( void * pvParamete
 113:../../../../dependencies/freertos/FreeRTOSv10.4.1/FreeRTOS/Source/portable/GCC/ARM_CM4F/portmacro.h ****     #define portTASK_FUNCTION( vFunction, pvParameters )          void vFunction( void * pvParamete
 114:../../../../dependencies/freertos/FreeRTOSv10.4.1/FreeRTOS/Source/portable/GCC/ARM_CM4F/portmacro.h **** /*-----------------------------------------------------------*/
 115:../../../../dependencies/freertos/FreeRTOSv10.4.1/FreeRTOS/Source/portable/GCC/ARM_CM4F/portmacro.h **** 
 116:../../../../dependencies/freertos/FreeRTOSv10.4.1/FreeRTOS/Source/portable/GCC/ARM_CM4F/portmacro.h **** /* Tickless idle/low power functionality. */
 117:../../../../dependencies/freertos/FreeRTOSv10.4.1/FreeRTOS/Source/portable/GCC/ARM_CM4F/portmacro.h ****     #ifndef portSUPPRESS_TICKS_AND_SLEEP
 118:../../../../dependencies/freertos/FreeRTOSv10.4.1/FreeRTOS/Source/portable/GCC/ARM_CM4F/portmacro.h ****         extern void vPortSuppressTicksAndSleep( TickType_t xExpectedIdleTime );
 119:../../../../dependencies/freertos/FreeRTOSv10.4.1/FreeRTOS/Source/portable/GCC/ARM_CM4F/portmacro.h ****         #define portSUPPRESS_TICKS_AND_SLEEP( xExpectedIdleTime )    vPortSuppressTicksAndSleep( xE
 120:../../../../dependencies/freertos/FreeRTOSv10.4.1/FreeRTOS/Source/portable/GCC/ARM_CM4F/portmacro.h ****     #endif
 121:../../../../dependencies/freertos/FreeRTOSv10.4.1/FreeRTOS/Source/portable/GCC/ARM_CM4F/portmacro.h **** /*-----------------------------------------------------------*/
 122:../../../../dependencies/freertos/FreeRTOSv10.4.1/FreeRTOS/Source/portable/GCC/ARM_CM4F/portmacro.h **** 
 123:../../../../dependencies/freertos/FreeRTOSv10.4.1/FreeRTOS/Source/portable/GCC/ARM_CM4F/portmacro.h **** /* Architecture specific optimisations. */
 124:../../../../dependencies/freertos/FreeRTOSv10.4.1/FreeRTOS/Source/portable/GCC/ARM_CM4F/portmacro.h ****     #ifndef configUSE_PORT_OPTIMISED_TASK_SELECTION
 125:../../../../dependencies/freertos/FreeRTOSv10.4.1/FreeRTOS/Source/portable/GCC/ARM_CM4F/portmacro.h ****         #define configUSE_PORT_OPTIMISED_TASK_SELECTION    1
 126:../../../../dependencies/freertos/FreeRTOSv10.4.1/FreeRTOS/Source/portable/GCC/ARM_CM4F/portmacro.h ****     #endif
 127:../../../../dependencies/freertos/FreeRTOSv10.4.1/FreeRTOS/Source/portable/GCC/ARM_CM4F/portmacro.h **** 
 128:../../../../dependencies/freertos/FreeRTOSv10.4.1/FreeRTOS/Source/portable/GCC/ARM_CM4F/portmacro.h ****     #if configUSE_PORT_OPTIMISED_TASK_SELECTION == 1
 129:../../../../dependencies/freertos/FreeRTOSv10.4.1/FreeRTOS/Source/portable/GCC/ARM_CM4F/portmacro.h **** 
 130:../../../../dependencies/freertos/FreeRTOSv10.4.1/FreeRTOS/Source/portable/GCC/ARM_CM4F/portmacro.h **** /* Generic helper function. */
 131:../../../../dependencies/freertos/FreeRTOSv10.4.1/FreeRTOS/Source/portable/GCC/ARM_CM4F/portmacro.h ****         __attribute__( ( always_inline ) ) static inline uint8_t ucPortCountLeadingZeros( uint32_t 
 132:../../../../dependencies/freertos/FreeRTOSv10.4.1/FreeRTOS/Source/portable/GCC/ARM_CM4F/portmacro.h ****         {
 133:../../../../dependencies/freertos/FreeRTOSv10.4.1/FreeRTOS/Source/portable/GCC/ARM_CM4F/portmacro.h ****             uint8_t ucReturn;
 134:../../../../dependencies/freertos/FreeRTOSv10.4.1/FreeRTOS/Source/portable/GCC/ARM_CM4F/portmacro.h **** 
 135:../../../../dependencies/freertos/FreeRTOSv10.4.1/FreeRTOS/Source/portable/GCC/ARM_CM4F/portmacro.h ****             __asm volatile ( "clz %0, %1" : "=r" ( ucReturn ) : "r" ( ulBitmap ) : "memory" );
 136:../../../../dependencies/freertos/FreeRTOSv10.4.1/FreeRTOS/Source/portable/GCC/ARM_CM4F/portmacro.h **** 
 137:../../../../dependencies/freertos/FreeRTOSv10.4.1/FreeRTOS/Source/portable/GCC/ARM_CM4F/portmacro.h ****             return ucReturn;
 138:../../../../dependencies/freertos/FreeRTOSv10.4.1/FreeRTOS/Source/portable/GCC/ARM_CM4F/portmacro.h ****         }
 139:../../../../dependencies/freertos/FreeRTOSv10.4.1/FreeRTOS/Source/portable/GCC/ARM_CM4F/portmacro.h **** 
 140:../../../../dependencies/freertos/FreeRTOSv10.4.1/FreeRTOS/Source/portable/GCC/ARM_CM4F/portmacro.h **** /* Check the configuration. */
 141:../../../../dependencies/freertos/FreeRTOSv10.4.1/FreeRTOS/Source/portable/GCC/ARM_CM4F/portmacro.h ****         #if ( configMAX_PRIORITIES > 32 )
 142:../../../../dependencies/freertos/FreeRTOSv10.4.1/FreeRTOS/Source/portable/GCC/ARM_CM4F/portmacro.h ****             #error configUSE_PORT_OPTIMISED_TASK_SELECTION can only be set to 1 when configMAX_PRIO
 143:../../../../dependencies/freertos/FreeRTOSv10.4.1/FreeRTOS/Source/portable/GCC/ARM_CM4F/portmacro.h ****         #endif
 144:../../../../dependencies/freertos/FreeRTOSv10.4.1/FreeRTOS/Source/portable/GCC/ARM_CM4F/portmacro.h **** 
 145:../../../../dependencies/freertos/FreeRTOSv10.4.1/FreeRTOS/Source/portable/GCC/ARM_CM4F/portmacro.h **** /* Store/clear the ready priorities in a bit map. */
 146:../../../../dependencies/freertos/FreeRTOSv10.4.1/FreeRTOS/Source/portable/GCC/ARM_CM4F/portmacro.h ****         #define portRECORD_READY_PRIORITY( uxPriority, uxReadyPriorities )    ( uxReadyPriorities )
 147:../../../../dependencies/freertos/FreeRTOSv10.4.1/FreeRTOS/Source/portable/GCC/ARM_CM4F/portmacro.h ****         #define portRESET_READY_PRIORITY( uxPriority, uxReadyPriorities )     ( uxReadyPriorities )
 148:../../../../dependencies/freertos/FreeRTOSv10.4.1/FreeRTOS/Source/portable/GCC/ARM_CM4F/portmacro.h **** 
 149:../../../../dependencies/freertos/FreeRTOSv10.4.1/FreeRTOS/Source/portable/GCC/ARM_CM4F/portmacro.h **** /*-----------------------------------------------------------*/
 150:../../../../dependencies/freertos/FreeRTOSv10.4.1/FreeRTOS/Source/portable/GCC/ARM_CM4F/portmacro.h **** 
 151:../../../../dependencies/freertos/FreeRTOSv10.4.1/FreeRTOS/Source/portable/GCC/ARM_CM4F/portmacro.h ****         #define portGET_HIGHEST_PRIORITY( uxTopPriority, uxReadyPriorities )    uxTopPriority = ( 3
 152:../../../../dependencies/freertos/FreeRTOSv10.4.1/FreeRTOS/Source/portable/GCC/ARM_CM4F/portmacro.h **** 
 153:../../../../dependencies/freertos/FreeRTOSv10.4.1/FreeRTOS/Source/portable/GCC/ARM_CM4F/portmacro.h ****     #endif /* configUSE_PORT_OPTIMISED_TASK_SELECTION */
 154:../../../../dependencies/freertos/FreeRTOSv10.4.1/FreeRTOS/Source/portable/GCC/ARM_CM4F/portmacro.h **** 
 155:../../../../dependencies/freertos/FreeRTOSv10.4.1/FreeRTOS/Source/portable/GCC/ARM_CM4F/portmacro.h **** /*-----------------------------------------------------------*/
 156:../../../../dependencies/freertos/FreeRTOSv10.4.1/FreeRTOS/Source/portable/GCC/ARM_CM4F/portmacro.h **** 
 157:../../../../dependencies/freertos/FreeRTOSv10.4.1/FreeRTOS/Source/portable/GCC/ARM_CM4F/portmacro.h ****     #ifdef configASSERT
 158:../../../../dependencies/freertos/FreeRTOSv10.4.1/FreeRTOS/Source/portable/GCC/ARM_CM4F/portmacro.h ****         void vPortValidateInterruptPriority( void );
 159:../../../../dependencies/freertos/FreeRTOSv10.4.1/FreeRTOS/Source/portable/GCC/ARM_CM4F/portmacro.h ****         #define portASSERT_IF_INTERRUPT_PRIORITY_INVALID()    vPortValidateInterruptPriority()
 160:../../../../dependencies/freertos/FreeRTOSv10.4.1/FreeRTOS/Source/portable/GCC/ARM_CM4F/portmacro.h ****     #endif
 161:../../../../dependencies/freertos/FreeRTOSv10.4.1/FreeRTOS/Source/portable/GCC/ARM_CM4F/portmacro.h **** 
 162:../../../../dependencies/freertos/FreeRTOSv10.4.1/FreeRTOS/Source/portable/GCC/ARM_CM4F/portmacro.h **** /* portNOP() is not required by this port. */
ARM GAS  /var/folders/_8/_cw6l3nd335f_j6cn6z79m4m0000gn/T//ccSM72RG.s 			page 9


 163:../../../../dependencies/freertos/FreeRTOSv10.4.1/FreeRTOS/Source/portable/GCC/ARM_CM4F/portmacro.h ****     #define portNOP()
 164:../../../../dependencies/freertos/FreeRTOSv10.4.1/FreeRTOS/Source/portable/GCC/ARM_CM4F/portmacro.h **** 
 165:../../../../dependencies/freertos/FreeRTOSv10.4.1/FreeRTOS/Source/portable/GCC/ARM_CM4F/portmacro.h ****     #define portINLINE              __inline
 166:../../../../dependencies/freertos/FreeRTOSv10.4.1/FreeRTOS/Source/portable/GCC/ARM_CM4F/portmacro.h **** 
 167:../../../../dependencies/freertos/FreeRTOSv10.4.1/FreeRTOS/Source/portable/GCC/ARM_CM4F/portmacro.h ****     #ifndef portFORCE_INLINE
 168:../../../../dependencies/freertos/FreeRTOSv10.4.1/FreeRTOS/Source/portable/GCC/ARM_CM4F/portmacro.h ****         #define portFORCE_INLINE    inline __attribute__( ( always_inline ) )
 169:../../../../dependencies/freertos/FreeRTOSv10.4.1/FreeRTOS/Source/portable/GCC/ARM_CM4F/portmacro.h ****     #endif
 170:../../../../dependencies/freertos/FreeRTOSv10.4.1/FreeRTOS/Source/portable/GCC/ARM_CM4F/portmacro.h **** 
 171:../../../../dependencies/freertos/FreeRTOSv10.4.1/FreeRTOS/Source/portable/GCC/ARM_CM4F/portmacro.h ****     portFORCE_INLINE static BaseType_t xPortIsInsideInterrupt( void )
 172:../../../../dependencies/freertos/FreeRTOSv10.4.1/FreeRTOS/Source/portable/GCC/ARM_CM4F/portmacro.h ****     {
 173:../../../../dependencies/freertos/FreeRTOSv10.4.1/FreeRTOS/Source/portable/GCC/ARM_CM4F/portmacro.h ****         uint32_t ulCurrentInterrupt;
 174:../../../../dependencies/freertos/FreeRTOSv10.4.1/FreeRTOS/Source/portable/GCC/ARM_CM4F/portmacro.h ****         BaseType_t xReturn;
 175:../../../../dependencies/freertos/FreeRTOSv10.4.1/FreeRTOS/Source/portable/GCC/ARM_CM4F/portmacro.h **** 
 176:../../../../dependencies/freertos/FreeRTOSv10.4.1/FreeRTOS/Source/portable/GCC/ARM_CM4F/portmacro.h ****         /* Obtain the number of the currently executing interrupt. */
 177:../../../../dependencies/freertos/FreeRTOSv10.4.1/FreeRTOS/Source/portable/GCC/ARM_CM4F/portmacro.h ****         __asm volatile ( "mrs %0, ipsr" : "=r" ( ulCurrentInterrupt )::"memory" );
 178:../../../../dependencies/freertos/FreeRTOSv10.4.1/FreeRTOS/Source/portable/GCC/ARM_CM4F/portmacro.h **** 
 179:../../../../dependencies/freertos/FreeRTOSv10.4.1/FreeRTOS/Source/portable/GCC/ARM_CM4F/portmacro.h ****         if( ulCurrentInterrupt == 0 )
 180:../../../../dependencies/freertos/FreeRTOSv10.4.1/FreeRTOS/Source/portable/GCC/ARM_CM4F/portmacro.h ****         {
 181:../../../../dependencies/freertos/FreeRTOSv10.4.1/FreeRTOS/Source/portable/GCC/ARM_CM4F/portmacro.h ****             xReturn = pdFALSE;
 182:../../../../dependencies/freertos/FreeRTOSv10.4.1/FreeRTOS/Source/portable/GCC/ARM_CM4F/portmacro.h ****         }
 183:../../../../dependencies/freertos/FreeRTOSv10.4.1/FreeRTOS/Source/portable/GCC/ARM_CM4F/portmacro.h ****         else
 184:../../../../dependencies/freertos/FreeRTOSv10.4.1/FreeRTOS/Source/portable/GCC/ARM_CM4F/portmacro.h ****         {
 185:../../../../dependencies/freertos/FreeRTOSv10.4.1/FreeRTOS/Source/portable/GCC/ARM_CM4F/portmacro.h ****             xReturn = pdTRUE;
 186:../../../../dependencies/freertos/FreeRTOSv10.4.1/FreeRTOS/Source/portable/GCC/ARM_CM4F/portmacro.h ****         }
 187:../../../../dependencies/freertos/FreeRTOSv10.4.1/FreeRTOS/Source/portable/GCC/ARM_CM4F/portmacro.h **** 
 188:../../../../dependencies/freertos/FreeRTOSv10.4.1/FreeRTOS/Source/portable/GCC/ARM_CM4F/portmacro.h ****         return xReturn;
 189:../../../../dependencies/freertos/FreeRTOSv10.4.1/FreeRTOS/Source/portable/GCC/ARM_CM4F/portmacro.h ****     }
 190:../../../../dependencies/freertos/FreeRTOSv10.4.1/FreeRTOS/Source/portable/GCC/ARM_CM4F/portmacro.h **** 
 191:../../../../dependencies/freertos/FreeRTOSv10.4.1/FreeRTOS/Source/portable/GCC/ARM_CM4F/portmacro.h **** /*-----------------------------------------------------------*/
 192:../../../../dependencies/freertos/FreeRTOSv10.4.1/FreeRTOS/Source/portable/GCC/ARM_CM4F/portmacro.h **** 
 193:../../../../dependencies/freertos/FreeRTOSv10.4.1/FreeRTOS/Source/portable/GCC/ARM_CM4F/portmacro.h ****     portFORCE_INLINE static void vPortRaiseBASEPRI( void )
 194:../../../../dependencies/freertos/FreeRTOSv10.4.1/FreeRTOS/Source/portable/GCC/ARM_CM4F/portmacro.h ****     {
 195:../../../../dependencies/freertos/FreeRTOSv10.4.1/FreeRTOS/Source/portable/GCC/ARM_CM4F/portmacro.h ****         uint32_t ulNewBASEPRI;
 196:../../../../dependencies/freertos/FreeRTOSv10.4.1/FreeRTOS/Source/portable/GCC/ARM_CM4F/portmacro.h **** 
 197:../../../../dependencies/freertos/FreeRTOSv10.4.1/FreeRTOS/Source/portable/GCC/ARM_CM4F/portmacro.h ****         __asm volatile
  61              		.loc 2 197 0 discriminator 1
  62              	@ 197 "../../../../dependencies/freertos/FreeRTOSv10.4.1/FreeRTOS/Source/portable/GCC/ARM_CM4F/port
  63 001e 4FF05003 			mov r3, #80												
  64 0022 83F31188 		msr basepri, r3											
  65 0026 BFF36F8F 		isb														
  66 002a BFF34F8F 		dsb														
  67              	
  68              	@ 0 "" 2
  69              		.thumb
  70 002e FB61     		str	r3, [r7, #28]
  71              	.L4:
  72              	.LBE86:
  73              	.LBE85:
  74              		.loc 1 235 0 discriminator 1
  75 0030 FEE7     		b	.L4
  76              	.L2:
 236:../../../../dependencies/freertos/FreeRTOSv10.4.1/FreeRTOS/Source/stream_buffer.c ****         }
 237:../../../../dependencies/freertos/FreeRTOSv10.4.1/FreeRTOS/Source/stream_buffer.c ****         else
 238:../../../../dependencies/freertos/FreeRTOSv10.4.1/FreeRTOS/Source/stream_buffer.c ****         {
 239:../../../../dependencies/freertos/FreeRTOSv10.4.1/FreeRTOS/Source/stream_buffer.c ****             /* Not a message buffer and not statically allocated. */
 240:../../../../dependencies/freertos/FreeRTOSv10.4.1/FreeRTOS/Source/stream_buffer.c ****             ucFlags = 0;
  77              		.loc 1 240 0
ARM GAS  /var/folders/_8/_cw6l3nd335f_j6cn6z79m4m0000gn/T//ccSM72RG.s 			page 10


  78 0032 0023     		movs	r3, #0
  79 0034 87F82730 		strb	r3, [r7, #39]
 241:../../../../dependencies/freertos/FreeRTOSv10.4.1/FreeRTOS/Source/stream_buffer.c ****             configASSERT( xBufferSizeBytes > 0 );
  80              		.loc 1 241 0
  81 0038 FB68     		ldr	r3, [r7, #12]
  82 003a 002B     		cmp	r3, #0
  83 003c 09D1     		bne	.L3
  84              	.LBB87:
  85              	.LBB88:
  86              		.loc 2 197 0 discriminator 1
  87              	@ 197 "../../../../dependencies/freertos/FreeRTOSv10.4.1/FreeRTOS/Source/portable/GCC/ARM_CM4F/port
  88 003e 4FF05003 			mov r3, #80												
  89 0042 83F31188 		msr basepri, r3											
  90 0046 BFF36F8F 		isb														
  91 004a BFF34F8F 		dsb														
  92              	
  93              	@ 0 "" 2
  94              		.thumb
  95 004e BB61     		str	r3, [r7, #24]
  96              	.L5:
  97              	.LBE88:
  98              	.LBE87:
  99              		.loc 1 241 0 discriminator 2
 100 0050 FEE7     		b	.L5
 101              	.L3:
 242:../../../../dependencies/freertos/FreeRTOSv10.4.1/FreeRTOS/Source/stream_buffer.c ****         }
 243:../../../../dependencies/freertos/FreeRTOSv10.4.1/FreeRTOS/Source/stream_buffer.c **** 
 244:../../../../dependencies/freertos/FreeRTOSv10.4.1/FreeRTOS/Source/stream_buffer.c ****         configASSERT( xTriggerLevelBytes <= xBufferSizeBytes );
 102              		.loc 1 244 0
 103 0052 BA68     		ldr	r2, [r7, #8]
 104 0054 FB68     		ldr	r3, [r7, #12]
 105 0056 9A42     		cmp	r2, r3
 106 0058 09D9     		bls	.L6
 107              	.LBB89:
 108              	.LBB90:
 109              		.loc 2 197 0 discriminator 1
 110              	@ 197 "../../../../dependencies/freertos/FreeRTOSv10.4.1/FreeRTOS/Source/portable/GCC/ARM_CM4F/port
 111 005a 4FF05003 			mov r3, #80												
 112 005e 83F31188 		msr basepri, r3											
 113 0062 BFF36F8F 		isb														
 114 0066 BFF34F8F 		dsb														
 115              	
 116              	@ 0 "" 2
 117              		.thumb
 118 006a 7B61     		str	r3, [r7, #20]
 119              	.L7:
 120              	.LBE90:
 121              	.LBE89:
 122              		.loc 1 244 0 discriminator 3
 123 006c FEE7     		b	.L7
 124              	.L6:
 245:../../../../dependencies/freertos/FreeRTOSv10.4.1/FreeRTOS/Source/stream_buffer.c **** 
 246:../../../../dependencies/freertos/FreeRTOSv10.4.1/FreeRTOS/Source/stream_buffer.c ****         /* A trigger level of 0 would cause a waiting task to unblock even when
 247:../../../../dependencies/freertos/FreeRTOSv10.4.1/FreeRTOS/Source/stream_buffer.c ****          * the buffer was empty. */
 248:../../../../dependencies/freertos/FreeRTOSv10.4.1/FreeRTOS/Source/stream_buffer.c ****         if( xTriggerLevelBytes == ( size_t ) 0 )
 125              		.loc 1 248 0
 126 006e BB68     		ldr	r3, [r7, #8]
ARM GAS  /var/folders/_8/_cw6l3nd335f_j6cn6z79m4m0000gn/T//ccSM72RG.s 			page 11


 127 0070 002B     		cmp	r3, #0
 128 0072 01D1     		bne	.L8
 249:../../../../dependencies/freertos/FreeRTOSv10.4.1/FreeRTOS/Source/stream_buffer.c ****         {
 250:../../../../dependencies/freertos/FreeRTOSv10.4.1/FreeRTOS/Source/stream_buffer.c ****             xTriggerLevelBytes = ( size_t ) 1;
 129              		.loc 1 250 0
 130 0074 0123     		movs	r3, #1
 131 0076 BB60     		str	r3, [r7, #8]
 132              	.L8:
 251:../../../../dependencies/freertos/FreeRTOSv10.4.1/FreeRTOS/Source/stream_buffer.c ****         }
 252:../../../../dependencies/freertos/FreeRTOSv10.4.1/FreeRTOS/Source/stream_buffer.c **** 
 253:../../../../dependencies/freertos/FreeRTOSv10.4.1/FreeRTOS/Source/stream_buffer.c ****         /* A stream buffer requires a StreamBuffer_t structure and a buffer.
 254:../../../../dependencies/freertos/FreeRTOSv10.4.1/FreeRTOS/Source/stream_buffer.c ****          * Both are allocated in a single call to pvPortMalloc().  The
 255:../../../../dependencies/freertos/FreeRTOSv10.4.1/FreeRTOS/Source/stream_buffer.c ****          * StreamBuffer_t structure is placed at the start of the allocated memory
 256:../../../../dependencies/freertos/FreeRTOSv10.4.1/FreeRTOS/Source/stream_buffer.c ****          * and the buffer follows immediately after.  The requested size is
 257:../../../../dependencies/freertos/FreeRTOSv10.4.1/FreeRTOS/Source/stream_buffer.c ****          * incremented so the free space is returned as the user would expect -
 258:../../../../dependencies/freertos/FreeRTOSv10.4.1/FreeRTOS/Source/stream_buffer.c ****          * this is a quirk of the implementation that means otherwise the free
 259:../../../../dependencies/freertos/FreeRTOSv10.4.1/FreeRTOS/Source/stream_buffer.c ****          * space would be reported as one byte smaller than would be logically
 260:../../../../dependencies/freertos/FreeRTOSv10.4.1/FreeRTOS/Source/stream_buffer.c ****          * expected. */
 261:../../../../dependencies/freertos/FreeRTOSv10.4.1/FreeRTOS/Source/stream_buffer.c ****         xBufferSizeBytes++;
 133              		.loc 1 261 0
 134 0078 FB68     		ldr	r3, [r7, #12]
 135 007a 0133     		adds	r3, r3, #1
 136 007c FB60     		str	r3, [r7, #12]
 262:../../../../dependencies/freertos/FreeRTOSv10.4.1/FreeRTOS/Source/stream_buffer.c ****         pucAllocatedMemory = ( uint8_t * ) pvPortMalloc( xBufferSizeBytes + sizeof( StreamBuffer_t 
 137              		.loc 1 262 0
 138 007e FB68     		ldr	r3, [r7, #12]
 139 0080 2433     		adds	r3, r3, #36
 140 0082 1846     		mov	r0, r3
 141 0084 FFF7FEFF 		bl	pvPortMalloc
 142 0088 3862     		str	r0, [r7, #32]
 263:../../../../dependencies/freertos/FreeRTOSv10.4.1/FreeRTOS/Source/stream_buffer.c **** 
 264:../../../../dependencies/freertos/FreeRTOSv10.4.1/FreeRTOS/Source/stream_buffer.c ****         if( pucAllocatedMemory != NULL )
 143              		.loc 1 264 0
 144 008a 3B6A     		ldr	r3, [r7, #32]
 145 008c 002B     		cmp	r3, #0
 146 008e 0BD0     		beq	.L9
 265:../../../../dependencies/freertos/FreeRTOSv10.4.1/FreeRTOS/Source/stream_buffer.c ****         {
 266:../../../../dependencies/freertos/FreeRTOSv10.4.1/FreeRTOS/Source/stream_buffer.c ****             prvInitialiseNewStreamBuffer( ( StreamBuffer_t * ) pucAllocatedMemory,       /* Structu
 147              		.loc 1 266 0
 148 0090 3B6A     		ldr	r3, [r7, #32]
 149 0092 03F12402 		add	r2, r3, #36
 150 0096 97F82730 		ldrb	r3, [r7, #39]	@ zero_extendqisi2
 151 009a 0093     		str	r3, [sp]
 152 009c 386A     		ldr	r0, [r7, #32]
 153 009e 1146     		mov	r1, r2
 154 00a0 FA68     		ldr	r2, [r7, #12]
 155 00a2 BB68     		ldr	r3, [r7, #8]
 156 00a4 FFF7FEFF 		bl	prvInitialiseNewStreamBuffer
 157              	.L9:
 267:../../../../dependencies/freertos/FreeRTOSv10.4.1/FreeRTOS/Source/stream_buffer.c ****                                           pucAllocatedMemory + sizeof( StreamBuffer_t ), /* Storage
 268:../../../../dependencies/freertos/FreeRTOSv10.4.1/FreeRTOS/Source/stream_buffer.c ****                                           xBufferSizeBytes,
 269:../../../../dependencies/freertos/FreeRTOSv10.4.1/FreeRTOS/Source/stream_buffer.c ****                                           xTriggerLevelBytes,
 270:../../../../dependencies/freertos/FreeRTOSv10.4.1/FreeRTOS/Source/stream_buffer.c ****                                           ucFlags );
 271:../../../../dependencies/freertos/FreeRTOSv10.4.1/FreeRTOS/Source/stream_buffer.c **** 
 272:../../../../dependencies/freertos/FreeRTOSv10.4.1/FreeRTOS/Source/stream_buffer.c ****             traceSTREAM_BUFFER_CREATE( ( ( StreamBuffer_t * ) pucAllocatedMemory ), xIsMessageBuffe
 273:../../../../dependencies/freertos/FreeRTOSv10.4.1/FreeRTOS/Source/stream_buffer.c ****         }
 274:../../../../dependencies/freertos/FreeRTOSv10.4.1/FreeRTOS/Source/stream_buffer.c ****         else
ARM GAS  /var/folders/_8/_cw6l3nd335f_j6cn6z79m4m0000gn/T//ccSM72RG.s 			page 12


 275:../../../../dependencies/freertos/FreeRTOSv10.4.1/FreeRTOS/Source/stream_buffer.c ****         {
 276:../../../../dependencies/freertos/FreeRTOSv10.4.1/FreeRTOS/Source/stream_buffer.c ****             traceSTREAM_BUFFER_CREATE_FAILED( xIsMessageBuffer );
 277:../../../../dependencies/freertos/FreeRTOSv10.4.1/FreeRTOS/Source/stream_buffer.c ****         }
 278:../../../../dependencies/freertos/FreeRTOSv10.4.1/FreeRTOS/Source/stream_buffer.c **** 
 279:../../../../dependencies/freertos/FreeRTOSv10.4.1/FreeRTOS/Source/stream_buffer.c ****         return ( StreamBufferHandle_t ) pucAllocatedMemory; /*lint !e9087 !e826 Safe cast as alloca
 158              		.loc 1 279 0
 159 00a8 3B6A     		ldr	r3, [r7, #32]
 280:../../../../dependencies/freertos/FreeRTOSv10.4.1/FreeRTOS/Source/stream_buffer.c ****     }
 160              		.loc 1 280 0
 161 00aa 1846     		mov	r0, r3
 162 00ac 2837     		adds	r7, r7, #40
 163              	.LCFI3:
 164              		.cfi_def_cfa_offset 8
 165 00ae BD46     		mov	sp, r7
 166              	.LCFI4:
 167              		.cfi_def_cfa_register 13
 168              		@ sp needed
 169 00b0 80BD     		pop	{r7, pc}
 170              		.cfi_endproc
 171              	.LFE5:
 173 00b2 00BF     		.section	.text.vStreamBufferDelete,"ax",%progbits
 174              		.align	2
 175              		.global	vStreamBufferDelete
 176              		.thumb
 177              		.thumb_func
 179              	vStreamBufferDelete:
 180              	.LFB6:
 281:../../../../dependencies/freertos/FreeRTOSv10.4.1/FreeRTOS/Source/stream_buffer.c **** 
 282:../../../../dependencies/freertos/FreeRTOSv10.4.1/FreeRTOS/Source/stream_buffer.c **** #endif /* configSUPPORT_DYNAMIC_ALLOCATION */
 283:../../../../dependencies/freertos/FreeRTOSv10.4.1/FreeRTOS/Source/stream_buffer.c **** /*-----------------------------------------------------------*/
 284:../../../../dependencies/freertos/FreeRTOSv10.4.1/FreeRTOS/Source/stream_buffer.c **** 
 285:../../../../dependencies/freertos/FreeRTOSv10.4.1/FreeRTOS/Source/stream_buffer.c **** #if ( configSUPPORT_STATIC_ALLOCATION == 1 )
 286:../../../../dependencies/freertos/FreeRTOSv10.4.1/FreeRTOS/Source/stream_buffer.c **** 
 287:../../../../dependencies/freertos/FreeRTOSv10.4.1/FreeRTOS/Source/stream_buffer.c ****     StreamBufferHandle_t xStreamBufferGenericCreateStatic( size_t xBufferSizeBytes,
 288:../../../../dependencies/freertos/FreeRTOSv10.4.1/FreeRTOS/Source/stream_buffer.c ****                                                            size_t xTriggerLevelBytes,
 289:../../../../dependencies/freertos/FreeRTOSv10.4.1/FreeRTOS/Source/stream_buffer.c ****                                                            BaseType_t xIsMessageBuffer,
 290:../../../../dependencies/freertos/FreeRTOSv10.4.1/FreeRTOS/Source/stream_buffer.c ****                                                            uint8_t * const pucStreamBufferStorageAr
 291:../../../../dependencies/freertos/FreeRTOSv10.4.1/FreeRTOS/Source/stream_buffer.c ****                                                            StaticStreamBuffer_t * const pxStaticStr
 292:../../../../dependencies/freertos/FreeRTOSv10.4.1/FreeRTOS/Source/stream_buffer.c ****     {
 293:../../../../dependencies/freertos/FreeRTOSv10.4.1/FreeRTOS/Source/stream_buffer.c ****         StreamBuffer_t * const pxStreamBuffer = ( StreamBuffer_t * ) pxStaticStreamBuffer; /*lint !
 294:../../../../dependencies/freertos/FreeRTOSv10.4.1/FreeRTOS/Source/stream_buffer.c ****         StreamBufferHandle_t xReturn;
 295:../../../../dependencies/freertos/FreeRTOSv10.4.1/FreeRTOS/Source/stream_buffer.c ****         uint8_t ucFlags;
 296:../../../../dependencies/freertos/FreeRTOSv10.4.1/FreeRTOS/Source/stream_buffer.c **** 
 297:../../../../dependencies/freertos/FreeRTOSv10.4.1/FreeRTOS/Source/stream_buffer.c ****         configASSERT( pucStreamBufferStorageArea );
 298:../../../../dependencies/freertos/FreeRTOSv10.4.1/FreeRTOS/Source/stream_buffer.c ****         configASSERT( pxStaticStreamBuffer );
 299:../../../../dependencies/freertos/FreeRTOSv10.4.1/FreeRTOS/Source/stream_buffer.c ****         configASSERT( xTriggerLevelBytes <= xBufferSizeBytes );
 300:../../../../dependencies/freertos/FreeRTOSv10.4.1/FreeRTOS/Source/stream_buffer.c **** 
 301:../../../../dependencies/freertos/FreeRTOSv10.4.1/FreeRTOS/Source/stream_buffer.c ****         /* A trigger level of 0 would cause a waiting task to unblock even when
 302:../../../../dependencies/freertos/FreeRTOSv10.4.1/FreeRTOS/Source/stream_buffer.c ****          * the buffer was empty. */
 303:../../../../dependencies/freertos/FreeRTOSv10.4.1/FreeRTOS/Source/stream_buffer.c ****         if( xTriggerLevelBytes == ( size_t ) 0 )
 304:../../../../dependencies/freertos/FreeRTOSv10.4.1/FreeRTOS/Source/stream_buffer.c ****         {
 305:../../../../dependencies/freertos/FreeRTOSv10.4.1/FreeRTOS/Source/stream_buffer.c ****             xTriggerLevelBytes = ( size_t ) 1;
 306:../../../../dependencies/freertos/FreeRTOSv10.4.1/FreeRTOS/Source/stream_buffer.c ****         }
 307:../../../../dependencies/freertos/FreeRTOSv10.4.1/FreeRTOS/Source/stream_buffer.c **** 
 308:../../../../dependencies/freertos/FreeRTOSv10.4.1/FreeRTOS/Source/stream_buffer.c ****         if( xIsMessageBuffer != pdFALSE )
 309:../../../../dependencies/freertos/FreeRTOSv10.4.1/FreeRTOS/Source/stream_buffer.c ****         {
 310:../../../../dependencies/freertos/FreeRTOSv10.4.1/FreeRTOS/Source/stream_buffer.c ****             /* Statically allocated message buffer. */
ARM GAS  /var/folders/_8/_cw6l3nd335f_j6cn6z79m4m0000gn/T//ccSM72RG.s 			page 13


 311:../../../../dependencies/freertos/FreeRTOSv10.4.1/FreeRTOS/Source/stream_buffer.c ****             ucFlags = sbFLAGS_IS_MESSAGE_BUFFER | sbFLAGS_IS_STATICALLY_ALLOCATED;
 312:../../../../dependencies/freertos/FreeRTOSv10.4.1/FreeRTOS/Source/stream_buffer.c ****         }
 313:../../../../dependencies/freertos/FreeRTOSv10.4.1/FreeRTOS/Source/stream_buffer.c ****         else
 314:../../../../dependencies/freertos/FreeRTOSv10.4.1/FreeRTOS/Source/stream_buffer.c ****         {
 315:../../../../dependencies/freertos/FreeRTOSv10.4.1/FreeRTOS/Source/stream_buffer.c ****             /* Statically allocated stream buffer. */
 316:../../../../dependencies/freertos/FreeRTOSv10.4.1/FreeRTOS/Source/stream_buffer.c ****             ucFlags = sbFLAGS_IS_STATICALLY_ALLOCATED;
 317:../../../../dependencies/freertos/FreeRTOSv10.4.1/FreeRTOS/Source/stream_buffer.c ****         }
 318:../../../../dependencies/freertos/FreeRTOSv10.4.1/FreeRTOS/Source/stream_buffer.c **** 
 319:../../../../dependencies/freertos/FreeRTOSv10.4.1/FreeRTOS/Source/stream_buffer.c ****         /* In case the stream buffer is going to be used as a message buffer
 320:../../../../dependencies/freertos/FreeRTOSv10.4.1/FreeRTOS/Source/stream_buffer.c ****          * (that is, it will hold discrete messages with a little meta data that
 321:../../../../dependencies/freertos/FreeRTOSv10.4.1/FreeRTOS/Source/stream_buffer.c ****          * says how big the next message is) check the buffer will be large enough
 322:../../../../dependencies/freertos/FreeRTOSv10.4.1/FreeRTOS/Source/stream_buffer.c ****          * to hold at least one message. */
 323:../../../../dependencies/freertos/FreeRTOSv10.4.1/FreeRTOS/Source/stream_buffer.c ****         configASSERT( xBufferSizeBytes > sbBYTES_TO_STORE_MESSAGE_LENGTH );
 324:../../../../dependencies/freertos/FreeRTOSv10.4.1/FreeRTOS/Source/stream_buffer.c **** 
 325:../../../../dependencies/freertos/FreeRTOSv10.4.1/FreeRTOS/Source/stream_buffer.c ****         #if ( configASSERT_DEFINED == 1 )
 326:../../../../dependencies/freertos/FreeRTOSv10.4.1/FreeRTOS/Source/stream_buffer.c ****             {
 327:../../../../dependencies/freertos/FreeRTOSv10.4.1/FreeRTOS/Source/stream_buffer.c ****                 /* Sanity check that the size of the structure used to declare a
 328:../../../../dependencies/freertos/FreeRTOSv10.4.1/FreeRTOS/Source/stream_buffer.c ****                  * variable of type StaticStreamBuffer_t equals the size of the real
 329:../../../../dependencies/freertos/FreeRTOSv10.4.1/FreeRTOS/Source/stream_buffer.c ****                  * message buffer structure. */
 330:../../../../dependencies/freertos/FreeRTOSv10.4.1/FreeRTOS/Source/stream_buffer.c ****                 volatile size_t xSize = sizeof( StaticStreamBuffer_t );
 331:../../../../dependencies/freertos/FreeRTOSv10.4.1/FreeRTOS/Source/stream_buffer.c ****                 configASSERT( xSize == sizeof( StreamBuffer_t ) );
 332:../../../../dependencies/freertos/FreeRTOSv10.4.1/FreeRTOS/Source/stream_buffer.c ****             } /*lint !e529 xSize is referenced is configASSERT() is defined. */
 333:../../../../dependencies/freertos/FreeRTOSv10.4.1/FreeRTOS/Source/stream_buffer.c ****         #endif /* configASSERT_DEFINED */
 334:../../../../dependencies/freertos/FreeRTOSv10.4.1/FreeRTOS/Source/stream_buffer.c **** 
 335:../../../../dependencies/freertos/FreeRTOSv10.4.1/FreeRTOS/Source/stream_buffer.c ****         if( ( pucStreamBufferStorageArea != NULL ) && ( pxStaticStreamBuffer != NULL ) )
 336:../../../../dependencies/freertos/FreeRTOSv10.4.1/FreeRTOS/Source/stream_buffer.c ****         {
 337:../../../../dependencies/freertos/FreeRTOSv10.4.1/FreeRTOS/Source/stream_buffer.c ****             prvInitialiseNewStreamBuffer( pxStreamBuffer,
 338:../../../../dependencies/freertos/FreeRTOSv10.4.1/FreeRTOS/Source/stream_buffer.c ****                                           pucStreamBufferStorageArea,
 339:../../../../dependencies/freertos/FreeRTOSv10.4.1/FreeRTOS/Source/stream_buffer.c ****                                           xBufferSizeBytes,
 340:../../../../dependencies/freertos/FreeRTOSv10.4.1/FreeRTOS/Source/stream_buffer.c ****                                           xTriggerLevelBytes,
 341:../../../../dependencies/freertos/FreeRTOSv10.4.1/FreeRTOS/Source/stream_buffer.c ****                                           ucFlags );
 342:../../../../dependencies/freertos/FreeRTOSv10.4.1/FreeRTOS/Source/stream_buffer.c **** 
 343:../../../../dependencies/freertos/FreeRTOSv10.4.1/FreeRTOS/Source/stream_buffer.c ****             /* Remember this was statically allocated in case it is ever deleted
 344:../../../../dependencies/freertos/FreeRTOSv10.4.1/FreeRTOS/Source/stream_buffer.c ****              * again. */
 345:../../../../dependencies/freertos/FreeRTOSv10.4.1/FreeRTOS/Source/stream_buffer.c ****             pxStreamBuffer->ucFlags |= sbFLAGS_IS_STATICALLY_ALLOCATED;
 346:../../../../dependencies/freertos/FreeRTOSv10.4.1/FreeRTOS/Source/stream_buffer.c **** 
 347:../../../../dependencies/freertos/FreeRTOSv10.4.1/FreeRTOS/Source/stream_buffer.c ****             traceSTREAM_BUFFER_CREATE( pxStreamBuffer, xIsMessageBuffer );
 348:../../../../dependencies/freertos/FreeRTOSv10.4.1/FreeRTOS/Source/stream_buffer.c **** 
 349:../../../../dependencies/freertos/FreeRTOSv10.4.1/FreeRTOS/Source/stream_buffer.c ****             xReturn = ( StreamBufferHandle_t ) pxStaticStreamBuffer; /*lint !e9087 Data hiding requ
 350:../../../../dependencies/freertos/FreeRTOSv10.4.1/FreeRTOS/Source/stream_buffer.c ****         }
 351:../../../../dependencies/freertos/FreeRTOSv10.4.1/FreeRTOS/Source/stream_buffer.c ****         else
 352:../../../../dependencies/freertos/FreeRTOSv10.4.1/FreeRTOS/Source/stream_buffer.c ****         {
 353:../../../../dependencies/freertos/FreeRTOSv10.4.1/FreeRTOS/Source/stream_buffer.c ****             xReturn = NULL;
 354:../../../../dependencies/freertos/FreeRTOSv10.4.1/FreeRTOS/Source/stream_buffer.c ****             traceSTREAM_BUFFER_CREATE_STATIC_FAILED( xReturn, xIsMessageBuffer );
 355:../../../../dependencies/freertos/FreeRTOSv10.4.1/FreeRTOS/Source/stream_buffer.c ****         }
 356:../../../../dependencies/freertos/FreeRTOSv10.4.1/FreeRTOS/Source/stream_buffer.c **** 
 357:../../../../dependencies/freertos/FreeRTOSv10.4.1/FreeRTOS/Source/stream_buffer.c ****         return xReturn;
 358:../../../../dependencies/freertos/FreeRTOSv10.4.1/FreeRTOS/Source/stream_buffer.c ****     }
 359:../../../../dependencies/freertos/FreeRTOSv10.4.1/FreeRTOS/Source/stream_buffer.c **** 
 360:../../../../dependencies/freertos/FreeRTOSv10.4.1/FreeRTOS/Source/stream_buffer.c **** #endif /* ( configSUPPORT_STATIC_ALLOCATION == 1 ) */
 361:../../../../dependencies/freertos/FreeRTOSv10.4.1/FreeRTOS/Source/stream_buffer.c **** /*-----------------------------------------------------------*/
 362:../../../../dependencies/freertos/FreeRTOSv10.4.1/FreeRTOS/Source/stream_buffer.c **** 
 363:../../../../dependencies/freertos/FreeRTOSv10.4.1/FreeRTOS/Source/stream_buffer.c **** void vStreamBufferDelete( StreamBufferHandle_t xStreamBuffer )
 364:../../../../dependencies/freertos/FreeRTOSv10.4.1/FreeRTOS/Source/stream_buffer.c **** {
 181              		.loc 1 364 0
 182              		.cfi_startproc
 183              		@ args = 0, pretend = 0, frame = 16
ARM GAS  /var/folders/_8/_cw6l3nd335f_j6cn6z79m4m0000gn/T//ccSM72RG.s 			page 14


 184              		@ frame_needed = 1, uses_anonymous_args = 0
 185 0000 80B5     		push	{r7, lr}
 186              	.LCFI5:
 187              		.cfi_def_cfa_offset 8
 188              		.cfi_offset 7, -8
 189              		.cfi_offset 14, -4
 190 0002 84B0     		sub	sp, sp, #16
 191              	.LCFI6:
 192              		.cfi_def_cfa_offset 24
 193 0004 00AF     		add	r7, sp, #0
 194              	.LCFI7:
 195              		.cfi_def_cfa_register 7
 196 0006 7860     		str	r0, [r7, #4]
 365:../../../../dependencies/freertos/FreeRTOSv10.4.1/FreeRTOS/Source/stream_buffer.c ****     StreamBuffer_t * pxStreamBuffer = xStreamBuffer;
 197              		.loc 1 365 0
 198 0008 7B68     		ldr	r3, [r7, #4]
 199 000a FB60     		str	r3, [r7, #12]
 366:../../../../dependencies/freertos/FreeRTOSv10.4.1/FreeRTOS/Source/stream_buffer.c **** 
 367:../../../../dependencies/freertos/FreeRTOSv10.4.1/FreeRTOS/Source/stream_buffer.c ****     configASSERT( pxStreamBuffer );
 200              		.loc 1 367 0
 201 000c FB68     		ldr	r3, [r7, #12]
 202 000e 002B     		cmp	r3, #0
 203 0010 09D1     		bne	.L12
 204              	.LBB91:
 205              	.LBB92:
 206              		.loc 2 197 0 discriminator 1
 207              	@ 197 "../../../../dependencies/freertos/FreeRTOSv10.4.1/FreeRTOS/Source/portable/GCC/ARM_CM4F/port
 208 0012 4FF05003 			mov r3, #80												
 209 0016 83F31188 		msr basepri, r3											
 210 001a BFF36F8F 		isb														
 211 001e BFF34F8F 		dsb														
 212              	
 213              	@ 0 "" 2
 214              		.thumb
 215 0022 BB60     		str	r3, [r7, #8]
 216              	.L13:
 217              	.LBE92:
 218              	.LBE91:
 219              		.loc 1 367 0 discriminator 1
 220 0024 FEE7     		b	.L13
 221              	.L12:
 368:../../../../dependencies/freertos/FreeRTOSv10.4.1/FreeRTOS/Source/stream_buffer.c **** 
 369:../../../../dependencies/freertos/FreeRTOSv10.4.1/FreeRTOS/Source/stream_buffer.c ****     traceSTREAM_BUFFER_DELETE( xStreamBuffer );
 370:../../../../dependencies/freertos/FreeRTOSv10.4.1/FreeRTOS/Source/stream_buffer.c **** 
 371:../../../../dependencies/freertos/FreeRTOSv10.4.1/FreeRTOS/Source/stream_buffer.c ****     if( ( pxStreamBuffer->ucFlags & sbFLAGS_IS_STATICALLY_ALLOCATED ) == ( uint8_t ) pdFALSE )
 222              		.loc 1 371 0
 223 0026 FB68     		ldr	r3, [r7, #12]
 224 0028 1B7F     		ldrb	r3, [r3, #28]	@ zero_extendqisi2
 225 002a 03F00203 		and	r3, r3, #2
 226 002e 002B     		cmp	r3, #0
 227 0030 03D1     		bne	.L14
 372:../../../../dependencies/freertos/FreeRTOSv10.4.1/FreeRTOS/Source/stream_buffer.c ****     {
 373:../../../../dependencies/freertos/FreeRTOSv10.4.1/FreeRTOS/Source/stream_buffer.c ****         #if ( configSUPPORT_DYNAMIC_ALLOCATION == 1 )
 374:../../../../dependencies/freertos/FreeRTOSv10.4.1/FreeRTOS/Source/stream_buffer.c ****             {
 375:../../../../dependencies/freertos/FreeRTOSv10.4.1/FreeRTOS/Source/stream_buffer.c ****                 /* Both the structure and the buffer were allocated using a single call
 376:../../../../dependencies/freertos/FreeRTOSv10.4.1/FreeRTOS/Source/stream_buffer.c ****                 * to pvPortMalloc(), hence only one call to vPortFree() is required. */
 377:../../../../dependencies/freertos/FreeRTOSv10.4.1/FreeRTOS/Source/stream_buffer.c ****                 vPortFree( ( void * ) pxStreamBuffer ); /*lint !e9087 Standard free() semantics req
ARM GAS  /var/folders/_8/_cw6l3nd335f_j6cn6z79m4m0000gn/T//ccSM72RG.s 			page 15


 228              		.loc 1 377 0
 229 0032 F868     		ldr	r0, [r7, #12]
 230 0034 FFF7FEFF 		bl	vPortFree
 231 0038 04E0     		b	.L11
 232              	.L14:
 378:../../../../dependencies/freertos/FreeRTOSv10.4.1/FreeRTOS/Source/stream_buffer.c ****             }
 379:../../../../dependencies/freertos/FreeRTOSv10.4.1/FreeRTOS/Source/stream_buffer.c ****         #else
 380:../../../../dependencies/freertos/FreeRTOSv10.4.1/FreeRTOS/Source/stream_buffer.c ****             {
 381:../../../../dependencies/freertos/FreeRTOSv10.4.1/FreeRTOS/Source/stream_buffer.c ****                 /* Should not be possible to get here, ucFlags must be corrupt.
 382:../../../../dependencies/freertos/FreeRTOSv10.4.1/FreeRTOS/Source/stream_buffer.c ****                  * Force an assert. */
 383:../../../../dependencies/freertos/FreeRTOSv10.4.1/FreeRTOS/Source/stream_buffer.c ****                 configASSERT( xStreamBuffer == ( StreamBufferHandle_t ) ~0 );
 384:../../../../dependencies/freertos/FreeRTOSv10.4.1/FreeRTOS/Source/stream_buffer.c ****             }
 385:../../../../dependencies/freertos/FreeRTOSv10.4.1/FreeRTOS/Source/stream_buffer.c ****         #endif
 386:../../../../dependencies/freertos/FreeRTOSv10.4.1/FreeRTOS/Source/stream_buffer.c ****     }
 387:../../../../dependencies/freertos/FreeRTOSv10.4.1/FreeRTOS/Source/stream_buffer.c ****     else
 388:../../../../dependencies/freertos/FreeRTOSv10.4.1/FreeRTOS/Source/stream_buffer.c ****     {
 389:../../../../dependencies/freertos/FreeRTOSv10.4.1/FreeRTOS/Source/stream_buffer.c ****         /* The structure and buffer were not allocated dynamically and cannot be
 390:../../../../dependencies/freertos/FreeRTOSv10.4.1/FreeRTOS/Source/stream_buffer.c ****          * freed - just scrub the structure so future use will assert. */
 391:../../../../dependencies/freertos/FreeRTOSv10.4.1/FreeRTOS/Source/stream_buffer.c ****         ( void ) memset( pxStreamBuffer, 0x00, sizeof( StreamBuffer_t ) );
 233              		.loc 1 391 0
 234 003a F868     		ldr	r0, [r7, #12]
 235 003c 0021     		movs	r1, #0
 236 003e 2422     		movs	r2, #36
 237 0040 FFF7FEFF 		bl	memset
 238              	.L11:
 392:../../../../dependencies/freertos/FreeRTOSv10.4.1/FreeRTOS/Source/stream_buffer.c ****     }
 393:../../../../dependencies/freertos/FreeRTOSv10.4.1/FreeRTOS/Source/stream_buffer.c **** }
 239              		.loc 1 393 0
 240 0044 1037     		adds	r7, r7, #16
 241              	.LCFI8:
 242              		.cfi_def_cfa_offset 8
 243 0046 BD46     		mov	sp, r7
 244              	.LCFI9:
 245              		.cfi_def_cfa_register 13
 246              		@ sp needed
 247 0048 80BD     		pop	{r7, pc}
 248              		.cfi_endproc
 249              	.LFE6:
 251 004a 00BF     		.section	.text.xStreamBufferReset,"ax",%progbits
 252              		.align	2
 253              		.global	xStreamBufferReset
 254              		.thumb
 255              		.thumb_func
 257              	xStreamBufferReset:
 258              	.LFB7:
 394:../../../../dependencies/freertos/FreeRTOSv10.4.1/FreeRTOS/Source/stream_buffer.c **** /*-----------------------------------------------------------*/
 395:../../../../dependencies/freertos/FreeRTOSv10.4.1/FreeRTOS/Source/stream_buffer.c **** 
 396:../../../../dependencies/freertos/FreeRTOSv10.4.1/FreeRTOS/Source/stream_buffer.c **** BaseType_t xStreamBufferReset( StreamBufferHandle_t xStreamBuffer )
 397:../../../../dependencies/freertos/FreeRTOSv10.4.1/FreeRTOS/Source/stream_buffer.c **** {
 259              		.loc 1 397 0
 260              		.cfi_startproc
 261              		@ args = 0, pretend = 0, frame = 24
 262              		@ frame_needed = 1, uses_anonymous_args = 0
 263 0000 90B5     		push	{r4, r7, lr}
 264              	.LCFI10:
 265              		.cfi_def_cfa_offset 12
 266              		.cfi_offset 4, -12
ARM GAS  /var/folders/_8/_cw6l3nd335f_j6cn6z79m4m0000gn/T//ccSM72RG.s 			page 16


 267              		.cfi_offset 7, -8
 268              		.cfi_offset 14, -4
 269 0002 89B0     		sub	sp, sp, #36
 270              	.LCFI11:
 271              		.cfi_def_cfa_offset 48
 272 0004 02AF     		add	r7, sp, #8
 273              	.LCFI12:
 274              		.cfi_def_cfa 7, 40
 275 0006 7860     		str	r0, [r7, #4]
 398:../../../../dependencies/freertos/FreeRTOSv10.4.1/FreeRTOS/Source/stream_buffer.c ****     StreamBuffer_t * const pxStreamBuffer = xStreamBuffer;
 276              		.loc 1 398 0
 277 0008 7B68     		ldr	r3, [r7, #4]
 278 000a 3B61     		str	r3, [r7, #16]
 399:../../../../dependencies/freertos/FreeRTOSv10.4.1/FreeRTOS/Source/stream_buffer.c ****     BaseType_t xReturn = pdFAIL;
 279              		.loc 1 399 0
 280 000c 0023     		movs	r3, #0
 281 000e 7B61     		str	r3, [r7, #20]
 400:../../../../dependencies/freertos/FreeRTOSv10.4.1/FreeRTOS/Source/stream_buffer.c **** 
 401:../../../../dependencies/freertos/FreeRTOSv10.4.1/FreeRTOS/Source/stream_buffer.c ****     #if ( configUSE_TRACE_FACILITY == 1 )
 402:../../../../dependencies/freertos/FreeRTOSv10.4.1/FreeRTOS/Source/stream_buffer.c ****         UBaseType_t uxStreamBufferNumber;
 403:../../../../dependencies/freertos/FreeRTOSv10.4.1/FreeRTOS/Source/stream_buffer.c ****     #endif
 404:../../../../dependencies/freertos/FreeRTOSv10.4.1/FreeRTOS/Source/stream_buffer.c **** 
 405:../../../../dependencies/freertos/FreeRTOSv10.4.1/FreeRTOS/Source/stream_buffer.c ****     configASSERT( pxStreamBuffer );
 282              		.loc 1 405 0
 283 0010 3B69     		ldr	r3, [r7, #16]
 284 0012 002B     		cmp	r3, #0
 285 0014 09D1     		bne	.L17
 286              	.LBB93:
 287              	.LBB94:
 288              		.loc 2 197 0 discriminator 1
 289              	@ 197 "../../../../dependencies/freertos/FreeRTOSv10.4.1/FreeRTOS/Source/portable/GCC/ARM_CM4F/port
 290 0016 4FF05003 			mov r3, #80												
 291 001a 83F31188 		msr basepri, r3											
 292 001e BFF36F8F 		isb														
 293 0022 BFF34F8F 		dsb														
 294              	
 295              	@ 0 "" 2
 296              		.thumb
 297 0026 BB60     		str	r3, [r7, #8]
 298              	.L18:
 299              	.LBE94:
 300              	.LBE93:
 301              		.loc 1 405 0 discriminator 1
 302 0028 FEE7     		b	.L18
 303              	.L17:
 406:../../../../dependencies/freertos/FreeRTOSv10.4.1/FreeRTOS/Source/stream_buffer.c **** 
 407:../../../../dependencies/freertos/FreeRTOSv10.4.1/FreeRTOS/Source/stream_buffer.c ****     #if ( configUSE_TRACE_FACILITY == 1 )
 408:../../../../dependencies/freertos/FreeRTOSv10.4.1/FreeRTOS/Source/stream_buffer.c ****         {
 409:../../../../dependencies/freertos/FreeRTOSv10.4.1/FreeRTOS/Source/stream_buffer.c ****             /* Store the stream buffer number so it can be restored after the
 410:../../../../dependencies/freertos/FreeRTOSv10.4.1/FreeRTOS/Source/stream_buffer.c ****              * reset. */
 411:../../../../dependencies/freertos/FreeRTOSv10.4.1/FreeRTOS/Source/stream_buffer.c ****             uxStreamBufferNumber = pxStreamBuffer->uxStreamBufferNumber;
 304              		.loc 1 411 0
 305 002a 3B69     		ldr	r3, [r7, #16]
 306 002c 1B6A     		ldr	r3, [r3, #32]
 307 002e FB60     		str	r3, [r7, #12]
 412:../../../../dependencies/freertos/FreeRTOSv10.4.1/FreeRTOS/Source/stream_buffer.c ****         }
 413:../../../../dependencies/freertos/FreeRTOSv10.4.1/FreeRTOS/Source/stream_buffer.c ****     #endif
ARM GAS  /var/folders/_8/_cw6l3nd335f_j6cn6z79m4m0000gn/T//ccSM72RG.s 			page 17


 414:../../../../dependencies/freertos/FreeRTOSv10.4.1/FreeRTOS/Source/stream_buffer.c **** 
 415:../../../../dependencies/freertos/FreeRTOSv10.4.1/FreeRTOS/Source/stream_buffer.c ****     /* Can only reset a message buffer if there are no tasks blocked on it. */
 416:../../../../dependencies/freertos/FreeRTOSv10.4.1/FreeRTOS/Source/stream_buffer.c ****     taskENTER_CRITICAL();
 308              		.loc 1 416 0
 309 0030 FFF7FEFF 		bl	vPortEnterCritical
 417:../../../../dependencies/freertos/FreeRTOSv10.4.1/FreeRTOS/Source/stream_buffer.c ****     {
 418:../../../../dependencies/freertos/FreeRTOSv10.4.1/FreeRTOS/Source/stream_buffer.c ****         if( pxStreamBuffer->xTaskWaitingToReceive == NULL )
 310              		.loc 1 418 0
 311 0034 3B69     		ldr	r3, [r7, #16]
 312 0036 1B69     		ldr	r3, [r3, #16]
 313 0038 002B     		cmp	r3, #0
 314 003a 15D1     		bne	.L19
 419:../../../../dependencies/freertos/FreeRTOSv10.4.1/FreeRTOS/Source/stream_buffer.c ****         {
 420:../../../../dependencies/freertos/FreeRTOSv10.4.1/FreeRTOS/Source/stream_buffer.c ****             if( pxStreamBuffer->xTaskWaitingToSend == NULL )
 315              		.loc 1 420 0
 316 003c 3B69     		ldr	r3, [r7, #16]
 317 003e 5B69     		ldr	r3, [r3, #20]
 318 0040 002B     		cmp	r3, #0
 319 0042 11D1     		bne	.L19
 421:../../../../dependencies/freertos/FreeRTOSv10.4.1/FreeRTOS/Source/stream_buffer.c ****             {
 422:../../../../dependencies/freertos/FreeRTOSv10.4.1/FreeRTOS/Source/stream_buffer.c ****                 prvInitialiseNewStreamBuffer( pxStreamBuffer,
 320              		.loc 1 422 0
 321 0044 3B69     		ldr	r3, [r7, #16]
 322 0046 9969     		ldr	r1, [r3, #24]
 323 0048 3B69     		ldr	r3, [r7, #16]
 324 004a 9A68     		ldr	r2, [r3, #8]
 325 004c 3B69     		ldr	r3, [r7, #16]
 326 004e DC68     		ldr	r4, [r3, #12]
 327 0050 3B69     		ldr	r3, [r7, #16]
 328 0052 1B7F     		ldrb	r3, [r3, #28]	@ zero_extendqisi2
 329 0054 0093     		str	r3, [sp]
 330 0056 3869     		ldr	r0, [r7, #16]
 331 0058 2346     		mov	r3, r4
 332 005a FFF7FEFF 		bl	prvInitialiseNewStreamBuffer
 423:../../../../dependencies/freertos/FreeRTOSv10.4.1/FreeRTOS/Source/stream_buffer.c ****                                               pxStreamBuffer->pucBuffer,
 424:../../../../dependencies/freertos/FreeRTOSv10.4.1/FreeRTOS/Source/stream_buffer.c ****                                               pxStreamBuffer->xLength,
 425:../../../../dependencies/freertos/FreeRTOSv10.4.1/FreeRTOS/Source/stream_buffer.c ****                                               pxStreamBuffer->xTriggerLevelBytes,
 426:../../../../dependencies/freertos/FreeRTOSv10.4.1/FreeRTOS/Source/stream_buffer.c ****                                               pxStreamBuffer->ucFlags );
 427:../../../../dependencies/freertos/FreeRTOSv10.4.1/FreeRTOS/Source/stream_buffer.c ****                 xReturn = pdPASS;
 333              		.loc 1 427 0
 334 005e 0123     		movs	r3, #1
 335 0060 7B61     		str	r3, [r7, #20]
 428:../../../../dependencies/freertos/FreeRTOSv10.4.1/FreeRTOS/Source/stream_buffer.c **** 
 429:../../../../dependencies/freertos/FreeRTOSv10.4.1/FreeRTOS/Source/stream_buffer.c ****                 #if ( configUSE_TRACE_FACILITY == 1 )
 430:../../../../dependencies/freertos/FreeRTOSv10.4.1/FreeRTOS/Source/stream_buffer.c ****                     {
 431:../../../../dependencies/freertos/FreeRTOSv10.4.1/FreeRTOS/Source/stream_buffer.c ****                         pxStreamBuffer->uxStreamBufferNumber = uxStreamBufferNumber;
 336              		.loc 1 431 0
 337 0062 3B69     		ldr	r3, [r7, #16]
 338 0064 FA68     		ldr	r2, [r7, #12]
 339 0066 1A62     		str	r2, [r3, #32]
 340              	.L19:
 432:../../../../dependencies/freertos/FreeRTOSv10.4.1/FreeRTOS/Source/stream_buffer.c ****                     }
 433:../../../../dependencies/freertos/FreeRTOSv10.4.1/FreeRTOS/Source/stream_buffer.c ****                 #endif
 434:../../../../dependencies/freertos/FreeRTOSv10.4.1/FreeRTOS/Source/stream_buffer.c **** 
 435:../../../../dependencies/freertos/FreeRTOSv10.4.1/FreeRTOS/Source/stream_buffer.c ****                 traceSTREAM_BUFFER_RESET( xStreamBuffer );
 436:../../../../dependencies/freertos/FreeRTOSv10.4.1/FreeRTOS/Source/stream_buffer.c ****             }
 437:../../../../dependencies/freertos/FreeRTOSv10.4.1/FreeRTOS/Source/stream_buffer.c ****         }
ARM GAS  /var/folders/_8/_cw6l3nd335f_j6cn6z79m4m0000gn/T//ccSM72RG.s 			page 18


 438:../../../../dependencies/freertos/FreeRTOSv10.4.1/FreeRTOS/Source/stream_buffer.c ****     }
 439:../../../../dependencies/freertos/FreeRTOSv10.4.1/FreeRTOS/Source/stream_buffer.c ****     taskEXIT_CRITICAL();
 341              		.loc 1 439 0
 342 0068 FFF7FEFF 		bl	vPortExitCritical
 440:../../../../dependencies/freertos/FreeRTOSv10.4.1/FreeRTOS/Source/stream_buffer.c **** 
 441:../../../../dependencies/freertos/FreeRTOSv10.4.1/FreeRTOS/Source/stream_buffer.c ****     return xReturn;
 343              		.loc 1 441 0
 344 006c 7B69     		ldr	r3, [r7, #20]
 442:../../../../dependencies/freertos/FreeRTOSv10.4.1/FreeRTOS/Source/stream_buffer.c **** }
 345              		.loc 1 442 0
 346 006e 1846     		mov	r0, r3
 347 0070 1C37     		adds	r7, r7, #28
 348              	.LCFI13:
 349              		.cfi_def_cfa_offset 12
 350 0072 BD46     		mov	sp, r7
 351              	.LCFI14:
 352              		.cfi_def_cfa_register 13
 353              		@ sp needed
 354 0074 90BD     		pop	{r4, r7, pc}
 355              		.cfi_endproc
 356              	.LFE7:
 358 0076 00BF     		.section	.text.xStreamBufferSetTriggerLevel,"ax",%progbits
 359              		.align	2
 360              		.global	xStreamBufferSetTriggerLevel
 361              		.thumb
 362              		.thumb_func
 364              	xStreamBufferSetTriggerLevel:
 365              	.LFB8:
 443:../../../../dependencies/freertos/FreeRTOSv10.4.1/FreeRTOS/Source/stream_buffer.c **** /*-----------------------------------------------------------*/
 444:../../../../dependencies/freertos/FreeRTOSv10.4.1/FreeRTOS/Source/stream_buffer.c **** 
 445:../../../../dependencies/freertos/FreeRTOSv10.4.1/FreeRTOS/Source/stream_buffer.c **** BaseType_t xStreamBufferSetTriggerLevel( StreamBufferHandle_t xStreamBuffer,
 446:../../../../dependencies/freertos/FreeRTOSv10.4.1/FreeRTOS/Source/stream_buffer.c ****                                          size_t xTriggerLevel )
 447:../../../../dependencies/freertos/FreeRTOSv10.4.1/FreeRTOS/Source/stream_buffer.c **** {
 366              		.loc 1 447 0
 367              		.cfi_startproc
 368              		@ args = 0, pretend = 0, frame = 24
 369              		@ frame_needed = 1, uses_anonymous_args = 0
 370              		@ link register save eliminated.
 371 0000 80B4     		push	{r7}
 372              	.LCFI15:
 373              		.cfi_def_cfa_offset 4
 374              		.cfi_offset 7, -4
 375 0002 87B0     		sub	sp, sp, #28
 376              	.LCFI16:
 377              		.cfi_def_cfa_offset 32
 378 0004 00AF     		add	r7, sp, #0
 379              	.LCFI17:
 380              		.cfi_def_cfa_register 7
 381 0006 7860     		str	r0, [r7, #4]
 382 0008 3960     		str	r1, [r7]
 448:../../../../dependencies/freertos/FreeRTOSv10.4.1/FreeRTOS/Source/stream_buffer.c ****     StreamBuffer_t * const pxStreamBuffer = xStreamBuffer;
 383              		.loc 1 448 0
 384 000a 7B68     		ldr	r3, [r7, #4]
 385 000c 3B61     		str	r3, [r7, #16]
 449:../../../../dependencies/freertos/FreeRTOSv10.4.1/FreeRTOS/Source/stream_buffer.c ****     BaseType_t xReturn;
 450:../../../../dependencies/freertos/FreeRTOSv10.4.1/FreeRTOS/Source/stream_buffer.c **** 
 451:../../../../dependencies/freertos/FreeRTOSv10.4.1/FreeRTOS/Source/stream_buffer.c ****     configASSERT( pxStreamBuffer );
ARM GAS  /var/folders/_8/_cw6l3nd335f_j6cn6z79m4m0000gn/T//ccSM72RG.s 			page 19


 386              		.loc 1 451 0
 387 000e 3B69     		ldr	r3, [r7, #16]
 388 0010 002B     		cmp	r3, #0
 389 0012 09D1     		bne	.L22
 390              	.LBB95:
 391              	.LBB96:
 392              		.loc 2 197 0 discriminator 1
 393              	@ 197 "../../../../dependencies/freertos/FreeRTOSv10.4.1/FreeRTOS/Source/portable/GCC/ARM_CM4F/port
 394 0014 4FF05003 			mov r3, #80												
 395 0018 83F31188 		msr basepri, r3											
 396 001c BFF36F8F 		isb														
 397 0020 BFF34F8F 		dsb														
 398              	
 399              	@ 0 "" 2
 400              		.thumb
 401 0024 FB60     		str	r3, [r7, #12]
 402              	.L23:
 403              	.LBE96:
 404              	.LBE95:
 405              		.loc 1 451 0 discriminator 1
 406 0026 FEE7     		b	.L23
 407              	.L22:
 452:../../../../dependencies/freertos/FreeRTOSv10.4.1/FreeRTOS/Source/stream_buffer.c **** 
 453:../../../../dependencies/freertos/FreeRTOSv10.4.1/FreeRTOS/Source/stream_buffer.c ****     /* It is not valid for the trigger level to be 0. */
 454:../../../../dependencies/freertos/FreeRTOSv10.4.1/FreeRTOS/Source/stream_buffer.c ****     if( xTriggerLevel == ( size_t ) 0 )
 408              		.loc 1 454 0
 409 0028 3B68     		ldr	r3, [r7]
 410 002a 002B     		cmp	r3, #0
 411 002c 01D1     		bne	.L24
 455:../../../../dependencies/freertos/FreeRTOSv10.4.1/FreeRTOS/Source/stream_buffer.c ****     {
 456:../../../../dependencies/freertos/FreeRTOSv10.4.1/FreeRTOS/Source/stream_buffer.c ****         xTriggerLevel = ( size_t ) 1;
 412              		.loc 1 456 0
 413 002e 0123     		movs	r3, #1
 414 0030 3B60     		str	r3, [r7]
 415              	.L24:
 457:../../../../dependencies/freertos/FreeRTOSv10.4.1/FreeRTOS/Source/stream_buffer.c ****     }
 458:../../../../dependencies/freertos/FreeRTOSv10.4.1/FreeRTOS/Source/stream_buffer.c **** 
 459:../../../../dependencies/freertos/FreeRTOSv10.4.1/FreeRTOS/Source/stream_buffer.c ****     /* The trigger level is the number of bytes that must be in the stream
 460:../../../../dependencies/freertos/FreeRTOSv10.4.1/FreeRTOS/Source/stream_buffer.c ****      * buffer before a task that is waiting for data is unblocked. */
 461:../../../../dependencies/freertos/FreeRTOSv10.4.1/FreeRTOS/Source/stream_buffer.c ****     if( xTriggerLevel <= pxStreamBuffer->xLength )
 416              		.loc 1 461 0
 417 0032 3B69     		ldr	r3, [r7, #16]
 418 0034 9A68     		ldr	r2, [r3, #8]
 419 0036 3B68     		ldr	r3, [r7]
 420 0038 9A42     		cmp	r2, r3
 421 003a 05D3     		bcc	.L25
 462:../../../../dependencies/freertos/FreeRTOSv10.4.1/FreeRTOS/Source/stream_buffer.c ****     {
 463:../../../../dependencies/freertos/FreeRTOSv10.4.1/FreeRTOS/Source/stream_buffer.c ****         pxStreamBuffer->xTriggerLevelBytes = xTriggerLevel;
 422              		.loc 1 463 0
 423 003c 3B69     		ldr	r3, [r7, #16]
 424 003e 3A68     		ldr	r2, [r7]
 425 0040 DA60     		str	r2, [r3, #12]
 464:../../../../dependencies/freertos/FreeRTOSv10.4.1/FreeRTOS/Source/stream_buffer.c ****         xReturn = pdPASS;
 426              		.loc 1 464 0
 427 0042 0123     		movs	r3, #1
 428 0044 7B61     		str	r3, [r7, #20]
 429 0046 01E0     		b	.L26
ARM GAS  /var/folders/_8/_cw6l3nd335f_j6cn6z79m4m0000gn/T//ccSM72RG.s 			page 20


 430              	.L25:
 465:../../../../dependencies/freertos/FreeRTOSv10.4.1/FreeRTOS/Source/stream_buffer.c ****     }
 466:../../../../dependencies/freertos/FreeRTOSv10.4.1/FreeRTOS/Source/stream_buffer.c ****     else
 467:../../../../dependencies/freertos/FreeRTOSv10.4.1/FreeRTOS/Source/stream_buffer.c ****     {
 468:../../../../dependencies/freertos/FreeRTOSv10.4.1/FreeRTOS/Source/stream_buffer.c ****         xReturn = pdFALSE;
 431              		.loc 1 468 0
 432 0048 0023     		movs	r3, #0
 433 004a 7B61     		str	r3, [r7, #20]
 434              	.L26:
 469:../../../../dependencies/freertos/FreeRTOSv10.4.1/FreeRTOS/Source/stream_buffer.c ****     }
 470:../../../../dependencies/freertos/FreeRTOSv10.4.1/FreeRTOS/Source/stream_buffer.c **** 
 471:../../../../dependencies/freertos/FreeRTOSv10.4.1/FreeRTOS/Source/stream_buffer.c ****     return xReturn;
 435              		.loc 1 471 0
 436 004c 7B69     		ldr	r3, [r7, #20]
 472:../../../../dependencies/freertos/FreeRTOSv10.4.1/FreeRTOS/Source/stream_buffer.c **** }
 437              		.loc 1 472 0
 438 004e 1846     		mov	r0, r3
 439 0050 1C37     		adds	r7, r7, #28
 440              	.LCFI18:
 441              		.cfi_def_cfa_offset 4
 442 0052 BD46     		mov	sp, r7
 443              	.LCFI19:
 444              		.cfi_def_cfa_register 13
 445              		@ sp needed
 446 0054 5DF8047B 		ldr	r7, [sp], #4
 447              	.LCFI20:
 448              		.cfi_restore 7
 449              		.cfi_def_cfa_offset 0
 450 0058 7047     		bx	lr
 451              		.cfi_endproc
 452              	.LFE8:
 454 005a 00BF     		.section	.text.xStreamBufferSpacesAvailable,"ax",%progbits
 455              		.align	2
 456              		.global	xStreamBufferSpacesAvailable
 457              		.thumb
 458              		.thumb_func
 460              	xStreamBufferSpacesAvailable:
 461              	.LFB9:
 473:../../../../dependencies/freertos/FreeRTOSv10.4.1/FreeRTOS/Source/stream_buffer.c **** /*-----------------------------------------------------------*/
 474:../../../../dependencies/freertos/FreeRTOSv10.4.1/FreeRTOS/Source/stream_buffer.c **** 
 475:../../../../dependencies/freertos/FreeRTOSv10.4.1/FreeRTOS/Source/stream_buffer.c **** size_t xStreamBufferSpacesAvailable( StreamBufferHandle_t xStreamBuffer )
 476:../../../../dependencies/freertos/FreeRTOSv10.4.1/FreeRTOS/Source/stream_buffer.c **** {
 462              		.loc 1 476 0
 463              		.cfi_startproc
 464              		@ args = 0, pretend = 0, frame = 24
 465              		@ frame_needed = 1, uses_anonymous_args = 0
 466              		@ link register save eliminated.
 467 0000 80B4     		push	{r7}
 468              	.LCFI21:
 469              		.cfi_def_cfa_offset 4
 470              		.cfi_offset 7, -4
 471 0002 87B0     		sub	sp, sp, #28
 472              	.LCFI22:
 473              		.cfi_def_cfa_offset 32
 474 0004 00AF     		add	r7, sp, #0
 475              	.LCFI23:
 476              		.cfi_def_cfa_register 7
ARM GAS  /var/folders/_8/_cw6l3nd335f_j6cn6z79m4m0000gn/T//ccSM72RG.s 			page 21


 477 0006 7860     		str	r0, [r7, #4]
 477:../../../../dependencies/freertos/FreeRTOSv10.4.1/FreeRTOS/Source/stream_buffer.c ****     const StreamBuffer_t * const pxStreamBuffer = xStreamBuffer;
 478              		.loc 1 477 0
 479 0008 7B68     		ldr	r3, [r7, #4]
 480 000a 3B61     		str	r3, [r7, #16]
 478:../../../../dependencies/freertos/FreeRTOSv10.4.1/FreeRTOS/Source/stream_buffer.c ****     size_t xSpace;
 479:../../../../dependencies/freertos/FreeRTOSv10.4.1/FreeRTOS/Source/stream_buffer.c **** 
 480:../../../../dependencies/freertos/FreeRTOSv10.4.1/FreeRTOS/Source/stream_buffer.c ****     configASSERT( pxStreamBuffer );
 481              		.loc 1 480 0
 482 000c 3B69     		ldr	r3, [r7, #16]
 483 000e 002B     		cmp	r3, #0
 484 0010 09D1     		bne	.L29
 485              	.LBB97:
 486              	.LBB98:
 487              		.loc 2 197 0 discriminator 1
 488              	@ 197 "../../../../dependencies/freertos/FreeRTOSv10.4.1/FreeRTOS/Source/portable/GCC/ARM_CM4F/port
 489 0012 4FF05003 			mov r3, #80												
 490 0016 83F31188 		msr basepri, r3											
 491 001a BFF36F8F 		isb														
 492 001e BFF34F8F 		dsb														
 493              	
 494              	@ 0 "" 2
 495              		.thumb
 496 0022 FB60     		str	r3, [r7, #12]
 497              	.L30:
 498              	.LBE98:
 499              	.LBE97:
 500              		.loc 1 480 0 discriminator 1
 501 0024 FEE7     		b	.L30
 502              	.L29:
 481:../../../../dependencies/freertos/FreeRTOSv10.4.1/FreeRTOS/Source/stream_buffer.c **** 
 482:../../../../dependencies/freertos/FreeRTOSv10.4.1/FreeRTOS/Source/stream_buffer.c ****     xSpace = pxStreamBuffer->xLength + pxStreamBuffer->xTail;
 503              		.loc 1 482 0
 504 0026 3B69     		ldr	r3, [r7, #16]
 505 0028 9A68     		ldr	r2, [r3, #8]
 506 002a 3B69     		ldr	r3, [r7, #16]
 507 002c 1B68     		ldr	r3, [r3]
 508 002e 1344     		add	r3, r3, r2
 509 0030 7B61     		str	r3, [r7, #20]
 483:../../../../dependencies/freertos/FreeRTOSv10.4.1/FreeRTOS/Source/stream_buffer.c ****     xSpace -= pxStreamBuffer->xHead;
 510              		.loc 1 483 0
 511 0032 3B69     		ldr	r3, [r7, #16]
 512 0034 5B68     		ldr	r3, [r3, #4]
 513 0036 7A69     		ldr	r2, [r7, #20]
 514 0038 D31A     		subs	r3, r2, r3
 515 003a 7B61     		str	r3, [r7, #20]
 484:../../../../dependencies/freertos/FreeRTOSv10.4.1/FreeRTOS/Source/stream_buffer.c ****     xSpace -= ( size_t ) 1;
 516              		.loc 1 484 0
 517 003c 7B69     		ldr	r3, [r7, #20]
 518 003e 013B     		subs	r3, r3, #1
 519 0040 7B61     		str	r3, [r7, #20]
 485:../../../../dependencies/freertos/FreeRTOSv10.4.1/FreeRTOS/Source/stream_buffer.c **** 
 486:../../../../dependencies/freertos/FreeRTOSv10.4.1/FreeRTOS/Source/stream_buffer.c ****     if( xSpace >= pxStreamBuffer->xLength )
 520              		.loc 1 486 0
 521 0042 3B69     		ldr	r3, [r7, #16]
 522 0044 9A68     		ldr	r2, [r3, #8]
 523 0046 7B69     		ldr	r3, [r7, #20]
ARM GAS  /var/folders/_8/_cw6l3nd335f_j6cn6z79m4m0000gn/T//ccSM72RG.s 			page 22


 524 0048 9A42     		cmp	r2, r3
 525 004a 04D8     		bhi	.L31
 487:../../../../dependencies/freertos/FreeRTOSv10.4.1/FreeRTOS/Source/stream_buffer.c ****     {
 488:../../../../dependencies/freertos/FreeRTOSv10.4.1/FreeRTOS/Source/stream_buffer.c ****         xSpace -= pxStreamBuffer->xLength;
 526              		.loc 1 488 0
 527 004c 3B69     		ldr	r3, [r7, #16]
 528 004e 9B68     		ldr	r3, [r3, #8]
 529 0050 7A69     		ldr	r2, [r7, #20]
 530 0052 D31A     		subs	r3, r2, r3
 531 0054 7B61     		str	r3, [r7, #20]
 532              	.L31:
 489:../../../../dependencies/freertos/FreeRTOSv10.4.1/FreeRTOS/Source/stream_buffer.c ****     }
 490:../../../../dependencies/freertos/FreeRTOSv10.4.1/FreeRTOS/Source/stream_buffer.c ****     else
 491:../../../../dependencies/freertos/FreeRTOSv10.4.1/FreeRTOS/Source/stream_buffer.c ****     {
 492:../../../../dependencies/freertos/FreeRTOSv10.4.1/FreeRTOS/Source/stream_buffer.c ****         mtCOVERAGE_TEST_MARKER();
 493:../../../../dependencies/freertos/FreeRTOSv10.4.1/FreeRTOS/Source/stream_buffer.c ****     }
 494:../../../../dependencies/freertos/FreeRTOSv10.4.1/FreeRTOS/Source/stream_buffer.c **** 
 495:../../../../dependencies/freertos/FreeRTOSv10.4.1/FreeRTOS/Source/stream_buffer.c ****     return xSpace;
 533              		.loc 1 495 0
 534 0056 7B69     		ldr	r3, [r7, #20]
 496:../../../../dependencies/freertos/FreeRTOSv10.4.1/FreeRTOS/Source/stream_buffer.c **** }
 535              		.loc 1 496 0
 536 0058 1846     		mov	r0, r3
 537 005a 1C37     		adds	r7, r7, #28
 538              	.LCFI24:
 539              		.cfi_def_cfa_offset 4
 540 005c BD46     		mov	sp, r7
 541              	.LCFI25:
 542              		.cfi_def_cfa_register 13
 543              		@ sp needed
 544 005e 5DF8047B 		ldr	r7, [sp], #4
 545              	.LCFI26:
 546              		.cfi_restore 7
 547              		.cfi_def_cfa_offset 0
 548 0062 7047     		bx	lr
 549              		.cfi_endproc
 550              	.LFE9:
 552              		.section	.text.xStreamBufferBytesAvailable,"ax",%progbits
 553              		.align	2
 554              		.global	xStreamBufferBytesAvailable
 555              		.thumb
 556              		.thumb_func
 558              	xStreamBufferBytesAvailable:
 559              	.LFB10:
 497:../../../../dependencies/freertos/FreeRTOSv10.4.1/FreeRTOS/Source/stream_buffer.c **** /*-----------------------------------------------------------*/
 498:../../../../dependencies/freertos/FreeRTOSv10.4.1/FreeRTOS/Source/stream_buffer.c **** 
 499:../../../../dependencies/freertos/FreeRTOSv10.4.1/FreeRTOS/Source/stream_buffer.c **** size_t xStreamBufferBytesAvailable( StreamBufferHandle_t xStreamBuffer )
 500:../../../../dependencies/freertos/FreeRTOSv10.4.1/FreeRTOS/Source/stream_buffer.c **** {
 560              		.loc 1 500 0
 561              		.cfi_startproc
 562              		@ args = 0, pretend = 0, frame = 24
 563              		@ frame_needed = 1, uses_anonymous_args = 0
 564 0000 80B5     		push	{r7, lr}
 565              	.LCFI27:
 566              		.cfi_def_cfa_offset 8
 567              		.cfi_offset 7, -8
 568              		.cfi_offset 14, -4
ARM GAS  /var/folders/_8/_cw6l3nd335f_j6cn6z79m4m0000gn/T//ccSM72RG.s 			page 23


 569 0002 86B0     		sub	sp, sp, #24
 570              	.LCFI28:
 571              		.cfi_def_cfa_offset 32
 572 0004 00AF     		add	r7, sp, #0
 573              	.LCFI29:
 574              		.cfi_def_cfa_register 7
 575 0006 7860     		str	r0, [r7, #4]
 501:../../../../dependencies/freertos/FreeRTOSv10.4.1/FreeRTOS/Source/stream_buffer.c ****     const StreamBuffer_t * const pxStreamBuffer = xStreamBuffer;
 576              		.loc 1 501 0
 577 0008 7B68     		ldr	r3, [r7, #4]
 578 000a 7B61     		str	r3, [r7, #20]
 502:../../../../dependencies/freertos/FreeRTOSv10.4.1/FreeRTOS/Source/stream_buffer.c ****     size_t xReturn;
 503:../../../../dependencies/freertos/FreeRTOSv10.4.1/FreeRTOS/Source/stream_buffer.c **** 
 504:../../../../dependencies/freertos/FreeRTOSv10.4.1/FreeRTOS/Source/stream_buffer.c ****     configASSERT( pxStreamBuffer );
 579              		.loc 1 504 0
 580 000c 7B69     		ldr	r3, [r7, #20]
 581 000e 002B     		cmp	r3, #0
 582 0010 09D1     		bne	.L34
 583              	.LBB99:
 584              	.LBB100:
 585              		.loc 2 197 0 discriminator 1
 586              	@ 197 "../../../../dependencies/freertos/FreeRTOSv10.4.1/FreeRTOS/Source/portable/GCC/ARM_CM4F/port
 587 0012 4FF05003 			mov r3, #80												
 588 0016 83F31188 		msr basepri, r3											
 589 001a BFF36F8F 		isb														
 590 001e BFF34F8F 		dsb														
 591              	
 592              	@ 0 "" 2
 593              		.thumb
 594 0022 FB60     		str	r3, [r7, #12]
 595              	.L35:
 596              	.LBE100:
 597              	.LBE99:
 598              		.loc 1 504 0 discriminator 1
 599 0024 FEE7     		b	.L35
 600              	.L34:
 505:../../../../dependencies/freertos/FreeRTOSv10.4.1/FreeRTOS/Source/stream_buffer.c **** 
 506:../../../../dependencies/freertos/FreeRTOSv10.4.1/FreeRTOS/Source/stream_buffer.c ****     xReturn = prvBytesInBuffer( pxStreamBuffer );
 601              		.loc 1 506 0
 602 0026 7869     		ldr	r0, [r7, #20]
 603 0028 FFF7FEFF 		bl	prvBytesInBuffer
 604 002c 3861     		str	r0, [r7, #16]
 507:../../../../dependencies/freertos/FreeRTOSv10.4.1/FreeRTOS/Source/stream_buffer.c ****     return xReturn;
 605              		.loc 1 507 0
 606 002e 3B69     		ldr	r3, [r7, #16]
 508:../../../../dependencies/freertos/FreeRTOSv10.4.1/FreeRTOS/Source/stream_buffer.c **** }
 607              		.loc 1 508 0
 608 0030 1846     		mov	r0, r3
 609 0032 1837     		adds	r7, r7, #24
 610              	.LCFI30:
 611              		.cfi_def_cfa_offset 8
 612 0034 BD46     		mov	sp, r7
 613              	.LCFI31:
 614              		.cfi_def_cfa_register 13
 615              		@ sp needed
 616 0036 80BD     		pop	{r7, pc}
 617              		.cfi_endproc
ARM GAS  /var/folders/_8/_cw6l3nd335f_j6cn6z79m4m0000gn/T//ccSM72RG.s 			page 24


 618              	.LFE10:
 620              		.section	.text.xStreamBufferSend,"ax",%progbits
 621              		.align	2
 622              		.global	xStreamBufferSend
 623              		.thumb
 624              		.thumb_func
 626              	xStreamBufferSend:
 627              	.LFB11:
 509:../../../../dependencies/freertos/FreeRTOSv10.4.1/FreeRTOS/Source/stream_buffer.c **** /*-----------------------------------------------------------*/
 510:../../../../dependencies/freertos/FreeRTOSv10.4.1/FreeRTOS/Source/stream_buffer.c **** 
 511:../../../../dependencies/freertos/FreeRTOSv10.4.1/FreeRTOS/Source/stream_buffer.c **** size_t xStreamBufferSend( StreamBufferHandle_t xStreamBuffer,
 512:../../../../dependencies/freertos/FreeRTOSv10.4.1/FreeRTOS/Source/stream_buffer.c ****                           const void * pvTxData,
 513:../../../../dependencies/freertos/FreeRTOSv10.4.1/FreeRTOS/Source/stream_buffer.c ****                           size_t xDataLengthBytes,
 514:../../../../dependencies/freertos/FreeRTOSv10.4.1/FreeRTOS/Source/stream_buffer.c ****                           TickType_t xTicksToWait )
 515:../../../../dependencies/freertos/FreeRTOSv10.4.1/FreeRTOS/Source/stream_buffer.c **** {
 628              		.loc 1 515 0
 629              		.cfi_startproc
 630              		@ args = 0, pretend = 0, frame = 64
 631              		@ frame_needed = 1, uses_anonymous_args = 0
 632 0000 80B5     		push	{r7, lr}
 633              	.LCFI32:
 634              		.cfi_def_cfa_offset 8
 635              		.cfi_offset 7, -8
 636              		.cfi_offset 14, -4
 637 0002 92B0     		sub	sp, sp, #72
 638              	.LCFI33:
 639              		.cfi_def_cfa_offset 80
 640 0004 02AF     		add	r7, sp, #8
 641              	.LCFI34:
 642              		.cfi_def_cfa 7, 72
 643 0006 F860     		str	r0, [r7, #12]
 644 0008 B960     		str	r1, [r7, #8]
 645 000a 7A60     		str	r2, [r7, #4]
 646 000c 3B60     		str	r3, [r7]
 516:../../../../dependencies/freertos/FreeRTOSv10.4.1/FreeRTOS/Source/stream_buffer.c ****     StreamBuffer_t * const pxStreamBuffer = xStreamBuffer;
 647              		.loc 1 516 0
 648 000e FB68     		ldr	r3, [r7, #12]
 649 0010 3B63     		str	r3, [r7, #48]
 517:../../../../dependencies/freertos/FreeRTOSv10.4.1/FreeRTOS/Source/stream_buffer.c ****     size_t xReturn, xSpace = 0;
 650              		.loc 1 517 0
 651 0012 0023     		movs	r3, #0
 652 0014 FB63     		str	r3, [r7, #60]
 518:../../../../dependencies/freertos/FreeRTOSv10.4.1/FreeRTOS/Source/stream_buffer.c ****     size_t xRequiredSpace = xDataLengthBytes;
 653              		.loc 1 518 0
 654 0016 7B68     		ldr	r3, [r7, #4]
 655 0018 BB63     		str	r3, [r7, #56]
 519:../../../../dependencies/freertos/FreeRTOSv10.4.1/FreeRTOS/Source/stream_buffer.c ****     TimeOut_t xTimeOut;
 520:../../../../dependencies/freertos/FreeRTOSv10.4.1/FreeRTOS/Source/stream_buffer.c **** 
 521:../../../../dependencies/freertos/FreeRTOSv10.4.1/FreeRTOS/Source/stream_buffer.c ****     /* Having a 'isFeasible' variable allows to respect the convention that there is only a return 
 522:../../../../dependencies/freertos/FreeRTOSv10.4.1/FreeRTOS/Source/stream_buffer.c ****      * could be done as soon as we realise the send cannot happen. We will let the call to 'prvWrit
 523:../../../../dependencies/freertos/FreeRTOSv10.4.1/FreeRTOS/Source/stream_buffer.c ****     BaseType_t xIsFeasible;
 524:../../../../dependencies/freertos/FreeRTOSv10.4.1/FreeRTOS/Source/stream_buffer.c **** 
 525:../../../../dependencies/freertos/FreeRTOSv10.4.1/FreeRTOS/Source/stream_buffer.c ****     configASSERT( pvTxData );
 656              		.loc 1 525 0
 657 001a BB68     		ldr	r3, [r7, #8]
 658 001c 002B     		cmp	r3, #0
 659 001e 09D1     		bne	.L38
ARM GAS  /var/folders/_8/_cw6l3nd335f_j6cn6z79m4m0000gn/T//ccSM72RG.s 			page 25


 660              	.LBB101:
 661              	.LBB102:
 662              		.loc 2 197 0 discriminator 1
 663              	@ 197 "../../../../dependencies/freertos/FreeRTOSv10.4.1/FreeRTOS/Source/portable/GCC/ARM_CM4F/port
 664 0020 4FF05003 			mov r3, #80												
 665 0024 83F31188 		msr basepri, r3											
 666 0028 BFF36F8F 		isb														
 667 002c BFF34F8F 		dsb														
 668              	
 669              	@ 0 "" 2
 670              		.thumb
 671 0030 BB62     		str	r3, [r7, #40]
 672              	.L39:
 673              	.LBE102:
 674              	.LBE101:
 675              		.loc 1 525 0 discriminator 1
 676 0032 FEE7     		b	.L39
 677              	.L38:
 526:../../../../dependencies/freertos/FreeRTOSv10.4.1/FreeRTOS/Source/stream_buffer.c ****     configASSERT( pxStreamBuffer );
 678              		.loc 1 526 0
 679 0034 3B6B     		ldr	r3, [r7, #48]
 680 0036 002B     		cmp	r3, #0
 681 0038 09D1     		bne	.L40
 682              	.LBB103:
 683              	.LBB104:
 684              		.loc 2 197 0 discriminator 1
 685              	@ 197 "../../../../dependencies/freertos/FreeRTOSv10.4.1/FreeRTOS/Source/portable/GCC/ARM_CM4F/port
 686 003a 4FF05003 			mov r3, #80												
 687 003e 83F31188 		msr basepri, r3											
 688 0042 BFF36F8F 		isb														
 689 0046 BFF34F8F 		dsb														
 690              	
 691              	@ 0 "" 2
 692              		.thumb
 693 004a 7B62     		str	r3, [r7, #36]
 694              	.L41:
 695              	.LBE104:
 696              	.LBE103:
 697              		.loc 1 526 0 discriminator 2
 698 004c FEE7     		b	.L41
 699              	.L40:
 527:../../../../dependencies/freertos/FreeRTOSv10.4.1/FreeRTOS/Source/stream_buffer.c **** 
 528:../../../../dependencies/freertos/FreeRTOSv10.4.1/FreeRTOS/Source/stream_buffer.c ****     /* This send function is used to write to both message buffers and stream
 529:../../../../dependencies/freertos/FreeRTOSv10.4.1/FreeRTOS/Source/stream_buffer.c ****      * buffers.  If this is a message buffer then the space needed must be
 530:../../../../dependencies/freertos/FreeRTOSv10.4.1/FreeRTOS/Source/stream_buffer.c ****      * increased by the amount of bytes needed to store the length of the
 531:../../../../dependencies/freertos/FreeRTOSv10.4.1/FreeRTOS/Source/stream_buffer.c ****      * message. */
 532:../../../../dependencies/freertos/FreeRTOSv10.4.1/FreeRTOS/Source/stream_buffer.c ****     if( ( pxStreamBuffer->ucFlags & sbFLAGS_IS_MESSAGE_BUFFER ) != ( uint8_t ) 0 )
 700              		.loc 1 532 0
 701 004e 3B6B     		ldr	r3, [r7, #48]
 702 0050 1B7F     		ldrb	r3, [r3, #28]	@ zero_extendqisi2
 703 0052 03F00103 		and	r3, r3, #1
 704 0056 002B     		cmp	r3, #0
 705 0058 1BD0     		beq	.L42
 533:../../../../dependencies/freertos/FreeRTOSv10.4.1/FreeRTOS/Source/stream_buffer.c ****     {
 534:../../../../dependencies/freertos/FreeRTOSv10.4.1/FreeRTOS/Source/stream_buffer.c ****         xRequiredSpace += sbBYTES_TO_STORE_MESSAGE_LENGTH;
 706              		.loc 1 534 0
 707 005a BB6B     		ldr	r3, [r7, #56]
ARM GAS  /var/folders/_8/_cw6l3nd335f_j6cn6z79m4m0000gn/T//ccSM72RG.s 			page 26


 708 005c 0433     		adds	r3, r3, #4
 709 005e BB63     		str	r3, [r7, #56]
 535:../../../../dependencies/freertos/FreeRTOSv10.4.1/FreeRTOS/Source/stream_buffer.c **** 
 536:../../../../dependencies/freertos/FreeRTOSv10.4.1/FreeRTOS/Source/stream_buffer.c ****         /* Overflow? */
 537:../../../../dependencies/freertos/FreeRTOSv10.4.1/FreeRTOS/Source/stream_buffer.c ****         configASSERT( xRequiredSpace > xDataLengthBytes );
 710              		.loc 1 537 0
 711 0060 BA6B     		ldr	r2, [r7, #56]
 712 0062 7B68     		ldr	r3, [r7, #4]
 713 0064 9A42     		cmp	r2, r3
 714 0066 09D8     		bhi	.L43
 715              	.LBB105:
 716              	.LBB106:
 717              		.loc 2 197 0 discriminator 1
 718              	@ 197 "../../../../dependencies/freertos/FreeRTOSv10.4.1/FreeRTOS/Source/portable/GCC/ARM_CM4F/port
 719 0068 4FF05003 			mov r3, #80												
 720 006c 83F31188 		msr basepri, r3											
 721 0070 BFF36F8F 		isb														
 722 0074 BFF34F8F 		dsb														
 723              	
 724              	@ 0 "" 2
 725              		.thumb
 726 0078 3B62     		str	r3, [r7, #32]
 727              	.L44:
 728              	.LBE106:
 729              	.LBE105:
 730              		.loc 1 537 0 discriminator 3
 731 007a FEE7     		b	.L44
 732              	.L43:
 538:../../../../dependencies/freertos/FreeRTOSv10.4.1/FreeRTOS/Source/stream_buffer.c **** 
 539:../../../../dependencies/freertos/FreeRTOSv10.4.1/FreeRTOS/Source/stream_buffer.c ****         /* In the case of the message buffer, one has to be able to write the complete message as o
 540:../../../../dependencies/freertos/FreeRTOSv10.4.1/FreeRTOS/Source/stream_buffer.c ****          * a stream buffer for semantic reasons. Check if it is physically possible to write the me
 541:../../../../dependencies/freertos/FreeRTOSv10.4.1/FreeRTOS/Source/stream_buffer.c ****          * the length of the buffer. */
 542:../../../../dependencies/freertos/FreeRTOSv10.4.1/FreeRTOS/Source/stream_buffer.c ****         if( xRequiredSpace > pxStreamBuffer->xLength )
 733              		.loc 1 542 0
 734 007c 3B6B     		ldr	r3, [r7, #48]
 735 007e 9A68     		ldr	r2, [r3, #8]
 736 0080 BB6B     		ldr	r3, [r7, #56]
 737 0082 9A42     		cmp	r2, r3
 738 0084 02D2     		bcs	.L45
 543:../../../../dependencies/freertos/FreeRTOSv10.4.1/FreeRTOS/Source/stream_buffer.c ****         {
 544:../../../../dependencies/freertos/FreeRTOSv10.4.1/FreeRTOS/Source/stream_buffer.c ****             /* The message could never be written because it is greater than the buffer length.
 545:../../../../dependencies/freertos/FreeRTOSv10.4.1/FreeRTOS/Source/stream_buffer.c ****              * By setting xIsFeasable to FALSE, we skip over the following do..while loop, thus avo
 546:../../../../dependencies/freertos/FreeRTOSv10.4.1/FreeRTOS/Source/stream_buffer.c ****              * a deadlock. The call to 'prvWriteMessageToBuffer' toward the end of this function wi
 547:../../../../dependencies/freertos/FreeRTOSv10.4.1/FreeRTOS/Source/stream_buffer.c ****              * xRequiredSpace greater than xSpace will suffice in not writing anything to the inter
 548:../../../../dependencies/freertos/FreeRTOSv10.4.1/FreeRTOS/Source/stream_buffer.c ****              * Now, the function will return 0 because the message could not be written. Should an 
 549:../../../../dependencies/freertos/FreeRTOSv10.4.1/FreeRTOS/Source/stream_buffer.c ****              * returned instead ??? In my opinion, probably.. But the return type doesn't allow for
 550:../../../../dependencies/freertos/FreeRTOSv10.4.1/FreeRTOS/Source/stream_buffer.c ****              * values to be returned. A confusion could exist to the caller. Returning 0 because a 
 551:../../../../dependencies/freertos/FreeRTOSv10.4.1/FreeRTOS/Source/stream_buffer.c ****              * and a subsequent send attempts could eventually succeed, and returning 0 because a w
 552:../../../../dependencies/freertos/FreeRTOSv10.4.1/FreeRTOS/Source/stream_buffer.c ****              * happen because of the size are two scenarios to me :/ */
 553:../../../../dependencies/freertos/FreeRTOSv10.4.1/FreeRTOS/Source/stream_buffer.c ****             xIsFeasible = pdFALSE;
 739              		.loc 1 553 0
 740 0086 0023     		movs	r3, #0
 741 0088 7B63     		str	r3, [r7, #52]
 742 008a 0FE0     		b	.L47
 743              	.L45:
 554:../../../../dependencies/freertos/FreeRTOSv10.4.1/FreeRTOS/Source/stream_buffer.c ****         }
 555:../../../../dependencies/freertos/FreeRTOSv10.4.1/FreeRTOS/Source/stream_buffer.c ****         else
ARM GAS  /var/folders/_8/_cw6l3nd335f_j6cn6z79m4m0000gn/T//ccSM72RG.s 			page 27


 556:../../../../dependencies/freertos/FreeRTOSv10.4.1/FreeRTOS/Source/stream_buffer.c ****         {
 557:../../../../dependencies/freertos/FreeRTOSv10.4.1/FreeRTOS/Source/stream_buffer.c ****             /* It is possible to write the message completely in the buffer. This is the intended r
 558:../../../../dependencies/freertos/FreeRTOSv10.4.1/FreeRTOS/Source/stream_buffer.c ****              * Let's continue with the regular timeout logic. */
 559:../../../../dependencies/freertos/FreeRTOSv10.4.1/FreeRTOS/Source/stream_buffer.c ****             xIsFeasible = pdTRUE;
 744              		.loc 1 559 0
 745 008c 0123     		movs	r3, #1
 746 008e 7B63     		str	r3, [r7, #52]
 747 0090 0CE0     		b	.L47
 748              	.L42:
 560:../../../../dependencies/freertos/FreeRTOSv10.4.1/FreeRTOS/Source/stream_buffer.c ****         }
 561:../../../../dependencies/freertos/FreeRTOSv10.4.1/FreeRTOS/Source/stream_buffer.c ****     }
 562:../../../../dependencies/freertos/FreeRTOSv10.4.1/FreeRTOS/Source/stream_buffer.c ****     else
 563:../../../../dependencies/freertos/FreeRTOSv10.4.1/FreeRTOS/Source/stream_buffer.c ****     {
 564:../../../../dependencies/freertos/FreeRTOSv10.4.1/FreeRTOS/Source/stream_buffer.c ****         /* In the case of the stream buffer, not being able to completely write the message in the 
 565:../../../../dependencies/freertos/FreeRTOSv10.4.1/FreeRTOS/Source/stream_buffer.c ****          * is an acceptable scenario, but it has to be dealt with properly */
 566:../../../../dependencies/freertos/FreeRTOSv10.4.1/FreeRTOS/Source/stream_buffer.c ****         if( xRequiredSpace > pxStreamBuffer->xLength )
 749              		.loc 1 566 0
 750 0092 3B6B     		ldr	r3, [r7, #48]
 751 0094 9A68     		ldr	r2, [r3, #8]
 752 0096 BB6B     		ldr	r3, [r7, #56]
 753 0098 9A42     		cmp	r2, r3
 754 009a 05D2     		bcs	.L48
 567:../../../../dependencies/freertos/FreeRTOSv10.4.1/FreeRTOS/Source/stream_buffer.c ****         {
 568:../../../../dependencies/freertos/FreeRTOSv10.4.1/FreeRTOS/Source/stream_buffer.c ****             /* Not enough buffer space. We will attempt to write as much as we can in this run
 569:../../../../dependencies/freertos/FreeRTOSv10.4.1/FreeRTOS/Source/stream_buffer.c ****              * so that the caller can send the remaining in subsequent calls. We avoid a deadlock b
 570:../../../../dependencies/freertos/FreeRTOSv10.4.1/FreeRTOS/Source/stream_buffer.c ****              * offering the possibility to take the 'else' branch in the  'if( xSpace < xRequiredSp
 571:../../../../dependencies/freertos/FreeRTOSv10.4.1/FreeRTOS/Source/stream_buffer.c ****              * condition inside the following do..while loop */
 572:../../../../dependencies/freertos/FreeRTOSv10.4.1/FreeRTOS/Source/stream_buffer.c ****             xRequiredSpace = pxStreamBuffer->xLength;
 755              		.loc 1 572 0
 756 009c 3B6B     		ldr	r3, [r7, #48]
 757 009e 9B68     		ldr	r3, [r3, #8]
 758 00a0 BB63     		str	r3, [r7, #56]
 573:../../../../dependencies/freertos/FreeRTOSv10.4.1/FreeRTOS/Source/stream_buffer.c **** 
 574:../../../../dependencies/freertos/FreeRTOSv10.4.1/FreeRTOS/Source/stream_buffer.c ****             /* TODO FIXME: Is there a check we should do with the xTriggerLevelBytes value ? */
 575:../../../../dependencies/freertos/FreeRTOSv10.4.1/FreeRTOS/Source/stream_buffer.c **** 
 576:../../../../dependencies/freertos/FreeRTOSv10.4.1/FreeRTOS/Source/stream_buffer.c ****             /* With the adjustment to 'xRequiredSpace', the deadlock is avoided, thus it's now feas
 577:../../../../dependencies/freertos/FreeRTOSv10.4.1/FreeRTOS/Source/stream_buffer.c ****             xIsFeasible = pdTRUE;
 759              		.loc 1 577 0
 760 00a2 0123     		movs	r3, #1
 761 00a4 7B63     		str	r3, [r7, #52]
 762 00a6 01E0     		b	.L47
 763              	.L48:
 578:../../../../dependencies/freertos/FreeRTOSv10.4.1/FreeRTOS/Source/stream_buffer.c ****         }
 579:../../../../dependencies/freertos/FreeRTOSv10.4.1/FreeRTOS/Source/stream_buffer.c ****         else
 580:../../../../dependencies/freertos/FreeRTOSv10.4.1/FreeRTOS/Source/stream_buffer.c ****         {
 581:../../../../dependencies/freertos/FreeRTOSv10.4.1/FreeRTOS/Source/stream_buffer.c ****             /* It is possible to write the message completely in the buffer. */
 582:../../../../dependencies/freertos/FreeRTOSv10.4.1/FreeRTOS/Source/stream_buffer.c ****             xIsFeasible = pdTRUE;
 764              		.loc 1 582 0
 765 00a8 0123     		movs	r3, #1
 766 00aa 7B63     		str	r3, [r7, #52]
 767              	.L47:
 583:../../../../dependencies/freertos/FreeRTOSv10.4.1/FreeRTOS/Source/stream_buffer.c ****         }
 584:../../../../dependencies/freertos/FreeRTOSv10.4.1/FreeRTOS/Source/stream_buffer.c ****     }
 585:../../../../dependencies/freertos/FreeRTOSv10.4.1/FreeRTOS/Source/stream_buffer.c **** 
 586:../../../../dependencies/freertos/FreeRTOSv10.4.1/FreeRTOS/Source/stream_buffer.c ****     /* Added check against xIsFeasible. If it's not feasible, don't even wait for notification, let
 587:../../../../dependencies/freertos/FreeRTOSv10.4.1/FreeRTOS/Source/stream_buffer.c ****     if( ( xTicksToWait != ( TickType_t ) 0 ) && ( xIsFeasible == pdTRUE ) )
 768              		.loc 1 587 0
ARM GAS  /var/folders/_8/_cw6l3nd335f_j6cn6z79m4m0000gn/T//ccSM72RG.s 			page 28


 769 00ac 3B68     		ldr	r3, [r7]
 770 00ae 002B     		cmp	r3, #0
 771 00b0 44D0     		beq	.L49
 772              		.loc 1 587 0 is_stmt 0 discriminator 1
 773 00b2 7B6B     		ldr	r3, [r7, #52]
 774 00b4 012B     		cmp	r3, #1
 775 00b6 41D1     		bne	.L49
 588:../../../../dependencies/freertos/FreeRTOSv10.4.1/FreeRTOS/Source/stream_buffer.c ****     {
 589:../../../../dependencies/freertos/FreeRTOSv10.4.1/FreeRTOS/Source/stream_buffer.c ****         vTaskSetTimeOutState( &xTimeOut );
 776              		.loc 1 589 0 is_stmt 1
 777 00b8 07F11403 		add	r3, r7, #20
 778 00bc 1846     		mov	r0, r3
 779 00be FFF7FEFF 		bl	vTaskSetTimeOutState
 780              	.L55:
 590:../../../../dependencies/freertos/FreeRTOSv10.4.1/FreeRTOS/Source/stream_buffer.c **** 
 591:../../../../dependencies/freertos/FreeRTOSv10.4.1/FreeRTOS/Source/stream_buffer.c ****         do
 592:../../../../dependencies/freertos/FreeRTOSv10.4.1/FreeRTOS/Source/stream_buffer.c ****         {
 593:../../../../dependencies/freertos/FreeRTOSv10.4.1/FreeRTOS/Source/stream_buffer.c ****             /* Wait until the required number of bytes are free in the message
 594:../../../../dependencies/freertos/FreeRTOSv10.4.1/FreeRTOS/Source/stream_buffer.c ****              * buffer. */
 595:../../../../dependencies/freertos/FreeRTOSv10.4.1/FreeRTOS/Source/stream_buffer.c ****             taskENTER_CRITICAL();
 781              		.loc 1 595 0
 782 00c2 FFF7FEFF 		bl	vPortEnterCritical
 596:../../../../dependencies/freertos/FreeRTOSv10.4.1/FreeRTOS/Source/stream_buffer.c ****             {
 597:../../../../dependencies/freertos/FreeRTOSv10.4.1/FreeRTOS/Source/stream_buffer.c ****                 xSpace = xStreamBufferSpacesAvailable( pxStreamBuffer );
 783              		.loc 1 597 0
 784 00c6 386B     		ldr	r0, [r7, #48]
 785 00c8 FFF7FEFF 		bl	xStreamBufferSpacesAvailable
 786 00cc F863     		str	r0, [r7, #60]
 598:../../../../dependencies/freertos/FreeRTOSv10.4.1/FreeRTOS/Source/stream_buffer.c **** 
 599:../../../../dependencies/freertos/FreeRTOSv10.4.1/FreeRTOS/Source/stream_buffer.c ****                 if( xSpace < xRequiredSpace )
 787              		.loc 1 599 0
 788 00ce FA6B     		ldr	r2, [r7, #60]
 789 00d0 BB6B     		ldr	r3, [r7, #56]
 790 00d2 9A42     		cmp	r2, r3
 791 00d4 17D2     		bcs	.L50
 600:../../../../dependencies/freertos/FreeRTOSv10.4.1/FreeRTOS/Source/stream_buffer.c ****                 {
 601:../../../../dependencies/freertos/FreeRTOSv10.4.1/FreeRTOS/Source/stream_buffer.c ****                     /* Clear notification state as going to wait for space. */
 602:../../../../dependencies/freertos/FreeRTOSv10.4.1/FreeRTOS/Source/stream_buffer.c ****                     ( void ) xTaskNotifyStateClear( NULL );
 792              		.loc 1 602 0
 793 00d6 0020     		movs	r0, #0
 794 00d8 0021     		movs	r1, #0
 795 00da FFF7FEFF 		bl	xTaskGenericNotifyStateClear
 603:../../../../dependencies/freertos/FreeRTOSv10.4.1/FreeRTOS/Source/stream_buffer.c **** 
 604:../../../../dependencies/freertos/FreeRTOSv10.4.1/FreeRTOS/Source/stream_buffer.c ****                     /* Should only be one writer. */
 605:../../../../dependencies/freertos/FreeRTOSv10.4.1/FreeRTOS/Source/stream_buffer.c ****                     configASSERT( pxStreamBuffer->xTaskWaitingToSend == NULL );
 796              		.loc 1 605 0
 797 00de 3B6B     		ldr	r3, [r7, #48]
 798 00e0 5B69     		ldr	r3, [r3, #20]
 799 00e2 002B     		cmp	r3, #0
 800 00e4 09D0     		beq	.L51
 801              	.LBB107:
 802              	.LBB108:
 803              		.loc 2 197 0 discriminator 1
 804              	@ 197 "../../../../dependencies/freertos/FreeRTOSv10.4.1/FreeRTOS/Source/portable/GCC/ARM_CM4F/port
 805 00e6 4FF05003 			mov r3, #80												
 806 00ea 83F31188 		msr basepri, r3											
 807 00ee BFF36F8F 		isb														
ARM GAS  /var/folders/_8/_cw6l3nd335f_j6cn6z79m4m0000gn/T//ccSM72RG.s 			page 29


 808 00f2 BFF34F8F 		dsb														
 809              	
 810              	@ 0 "" 2
 811              		.thumb
 812 00f6 FB61     		str	r3, [r7, #28]
 813              	.L52:
 814              	.LBE108:
 815              	.LBE107:
 816              		.loc 1 605 0 discriminator 4
 817 00f8 FEE7     		b	.L52
 818              	.L51:
 606:../../../../dependencies/freertos/FreeRTOSv10.4.1/FreeRTOS/Source/stream_buffer.c ****                     pxStreamBuffer->xTaskWaitingToSend = xTaskGetCurrentTaskHandle();
 819              		.loc 1 606 0
 820 00fa FFF7FEFF 		bl	xTaskGetCurrentTaskHandle
 821 00fe 0246     		mov	r2, r0
 822 0100 3B6B     		ldr	r3, [r7, #48]
 823 0102 5A61     		str	r2, [r3, #20]
 824 0104 03E0     		b	.L60
 825              	.L50:
 607:../../../../dependencies/freertos/FreeRTOSv10.4.1/FreeRTOS/Source/stream_buffer.c ****                 }
 608:../../../../dependencies/freertos/FreeRTOSv10.4.1/FreeRTOS/Source/stream_buffer.c ****                 else
 609:../../../../dependencies/freertos/FreeRTOSv10.4.1/FreeRTOS/Source/stream_buffer.c ****                 {
 610:../../../../dependencies/freertos/FreeRTOSv10.4.1/FreeRTOS/Source/stream_buffer.c ****                     taskEXIT_CRITICAL();
 826              		.loc 1 610 0
 827 0106 FFF7FEFF 		bl	vPortExitCritical
 611:../../../../dependencies/freertos/FreeRTOSv10.4.1/FreeRTOS/Source/stream_buffer.c ****                     break;
 828              		.loc 1 611 0
 829 010a 00BF     		nop
 830 010c 16E0     		b	.L49
 831              	.L60:
 612:../../../../dependencies/freertos/FreeRTOSv10.4.1/FreeRTOS/Source/stream_buffer.c ****                 }
 613:../../../../dependencies/freertos/FreeRTOSv10.4.1/FreeRTOS/Source/stream_buffer.c ****             }
 614:../../../../dependencies/freertos/FreeRTOSv10.4.1/FreeRTOS/Source/stream_buffer.c ****             taskEXIT_CRITICAL();
 832              		.loc 1 614 0
 833 010e FFF7FEFF 		bl	vPortExitCritical
 615:../../../../dependencies/freertos/FreeRTOSv10.4.1/FreeRTOS/Source/stream_buffer.c **** 
 616:../../../../dependencies/freertos/FreeRTOSv10.4.1/FreeRTOS/Source/stream_buffer.c ****             traceBLOCKING_ON_STREAM_BUFFER_SEND( xStreamBuffer );
 617:../../../../dependencies/freertos/FreeRTOSv10.4.1/FreeRTOS/Source/stream_buffer.c ****             ( void ) xTaskNotifyWait( ( uint32_t ) 0, ( uint32_t ) 0, NULL, xTicksToWait );
 834              		.loc 1 617 0
 835 0112 3B68     		ldr	r3, [r7]
 836 0114 0093     		str	r3, [sp]
 837 0116 0020     		movs	r0, #0
 838 0118 0021     		movs	r1, #0
 839 011a 0022     		movs	r2, #0
 840 011c 0023     		movs	r3, #0
 841 011e FFF7FEFF 		bl	xTaskGenericNotifyWait
 618:../../../../dependencies/freertos/FreeRTOSv10.4.1/FreeRTOS/Source/stream_buffer.c ****             pxStreamBuffer->xTaskWaitingToSend = NULL;
 842              		.loc 1 618 0
 843 0122 3B6B     		ldr	r3, [r7, #48]
 844 0124 0022     		movs	r2, #0
 845 0126 5A61     		str	r2, [r3, #20]
 619:../../../../dependencies/freertos/FreeRTOSv10.4.1/FreeRTOS/Source/stream_buffer.c ****         } while( xTaskCheckForTimeOut( &xTimeOut, &xTicksToWait ) == pdFALSE );
 846              		.loc 1 619 0
 847 0128 07F11402 		add	r2, r7, #20
 848 012c 3B46     		mov	r3, r7
 849 012e 1046     		mov	r0, r2
 850 0130 1946     		mov	r1, r3
ARM GAS  /var/folders/_8/_cw6l3nd335f_j6cn6z79m4m0000gn/T//ccSM72RG.s 			page 30


 851 0132 FFF7FEFF 		bl	xTaskCheckForTimeOut
 852 0136 0346     		mov	r3, r0
 853 0138 002B     		cmp	r3, #0
 854 013a C2D0     		beq	.L55
 855              	.L49:
 620:../../../../dependencies/freertos/FreeRTOSv10.4.1/FreeRTOS/Source/stream_buffer.c ****     }
 621:../../../../dependencies/freertos/FreeRTOSv10.4.1/FreeRTOS/Source/stream_buffer.c ****     else
 622:../../../../dependencies/freertos/FreeRTOSv10.4.1/FreeRTOS/Source/stream_buffer.c ****     {
 623:../../../../dependencies/freertos/FreeRTOSv10.4.1/FreeRTOS/Source/stream_buffer.c ****         mtCOVERAGE_TEST_MARKER();
 624:../../../../dependencies/freertos/FreeRTOSv10.4.1/FreeRTOS/Source/stream_buffer.c ****     }
 625:../../../../dependencies/freertos/FreeRTOSv10.4.1/FreeRTOS/Source/stream_buffer.c **** 
 626:../../../../dependencies/freertos/FreeRTOSv10.4.1/FreeRTOS/Source/stream_buffer.c ****     if( xSpace == ( size_t ) 0 )
 856              		.loc 1 626 0
 857 013c FB6B     		ldr	r3, [r7, #60]
 858 013e 002B     		cmp	r3, #0
 859 0140 03D1     		bne	.L56
 627:../../../../dependencies/freertos/FreeRTOSv10.4.1/FreeRTOS/Source/stream_buffer.c ****     {
 628:../../../../dependencies/freertos/FreeRTOSv10.4.1/FreeRTOS/Source/stream_buffer.c ****         xSpace = xStreamBufferSpacesAvailable( pxStreamBuffer );
 860              		.loc 1 628 0
 861 0142 386B     		ldr	r0, [r7, #48]
 862 0144 FFF7FEFF 		bl	xStreamBufferSpacesAvailable
 863 0148 F863     		str	r0, [r7, #60]
 864              	.L56:
 629:../../../../dependencies/freertos/FreeRTOSv10.4.1/FreeRTOS/Source/stream_buffer.c ****     }
 630:../../../../dependencies/freertos/FreeRTOSv10.4.1/FreeRTOS/Source/stream_buffer.c ****     else
 631:../../../../dependencies/freertos/FreeRTOSv10.4.1/FreeRTOS/Source/stream_buffer.c ****     {
 632:../../../../dependencies/freertos/FreeRTOSv10.4.1/FreeRTOS/Source/stream_buffer.c ****         mtCOVERAGE_TEST_MARKER();
 633:../../../../dependencies/freertos/FreeRTOSv10.4.1/FreeRTOS/Source/stream_buffer.c ****     }
 634:../../../../dependencies/freertos/FreeRTOSv10.4.1/FreeRTOS/Source/stream_buffer.c **** 
 635:../../../../dependencies/freertos/FreeRTOSv10.4.1/FreeRTOS/Source/stream_buffer.c ****     xReturn = prvWriteMessageToBuffer( pxStreamBuffer, pvTxData, xDataLengthBytes, xSpace, xRequire
 865              		.loc 1 635 0
 866 014a BB6B     		ldr	r3, [r7, #56]
 867 014c 0093     		str	r3, [sp]
 868 014e 386B     		ldr	r0, [r7, #48]
 869 0150 B968     		ldr	r1, [r7, #8]
 870 0152 7A68     		ldr	r2, [r7, #4]
 871 0154 FB6B     		ldr	r3, [r7, #60]
 872 0156 FFF7FEFF 		bl	prvWriteMessageToBuffer
 873 015a F862     		str	r0, [r7, #44]
 636:../../../../dependencies/freertos/FreeRTOSv10.4.1/FreeRTOS/Source/stream_buffer.c **** 
 637:../../../../dependencies/freertos/FreeRTOSv10.4.1/FreeRTOS/Source/stream_buffer.c ****     if( xReturn > ( size_t ) 0 )
 874              		.loc 1 637 0
 875 015c FB6A     		ldr	r3, [r7, #44]
 876 015e 002B     		cmp	r3, #0
 877 0160 1CD0     		beq	.L57
 638:../../../../dependencies/freertos/FreeRTOSv10.4.1/FreeRTOS/Source/stream_buffer.c ****     {
 639:../../../../dependencies/freertos/FreeRTOSv10.4.1/FreeRTOS/Source/stream_buffer.c ****         traceSTREAM_BUFFER_SEND( xStreamBuffer, xReturn );
 640:../../../../dependencies/freertos/FreeRTOSv10.4.1/FreeRTOS/Source/stream_buffer.c **** 
 641:../../../../dependencies/freertos/FreeRTOSv10.4.1/FreeRTOS/Source/stream_buffer.c ****         /* Was a task waiting for the data? */
 642:../../../../dependencies/freertos/FreeRTOSv10.4.1/FreeRTOS/Source/stream_buffer.c ****         if( prvBytesInBuffer( pxStreamBuffer ) >= pxStreamBuffer->xTriggerLevelBytes )
 878              		.loc 1 642 0
 879 0162 386B     		ldr	r0, [r7, #48]
 880 0164 FFF7FEFF 		bl	prvBytesInBuffer
 881 0168 0246     		mov	r2, r0
 882 016a 3B6B     		ldr	r3, [r7, #48]
 883 016c DB68     		ldr	r3, [r3, #12]
 884 016e 9A42     		cmp	r2, r3
ARM GAS  /var/folders/_8/_cw6l3nd335f_j6cn6z79m4m0000gn/T//ccSM72RG.s 			page 31


 885 0170 14D3     		bcc	.L57
 643:../../../../dependencies/freertos/FreeRTOSv10.4.1/FreeRTOS/Source/stream_buffer.c ****         {
 644:../../../../dependencies/freertos/FreeRTOSv10.4.1/FreeRTOS/Source/stream_buffer.c ****             sbSEND_COMPLETED( pxStreamBuffer );
 886              		.loc 1 644 0
 887 0172 FFF7FEFF 		bl	vTaskSuspendAll
 888 0176 3B6B     		ldr	r3, [r7, #48]
 889 0178 1B69     		ldr	r3, [r3, #16]
 890 017a 002B     		cmp	r3, #0
 891 017c 0CD0     		beq	.L58
 892              		.loc 1 644 0 is_stmt 0 discriminator 1
 893 017e 3B6B     		ldr	r3, [r7, #48]
 894 0180 1A69     		ldr	r2, [r3, #16]
 895 0182 0023     		movs	r3, #0
 896 0184 0093     		str	r3, [sp]
 897 0186 1046     		mov	r0, r2
 898 0188 0021     		movs	r1, #0
 899 018a 0022     		movs	r2, #0
 900 018c 0023     		movs	r3, #0
 901 018e FFF7FEFF 		bl	xTaskGenericNotify
 902 0192 3B6B     		ldr	r3, [r7, #48]
 903 0194 0022     		movs	r2, #0
 904 0196 1A61     		str	r2, [r3, #16]
 905              	.L58:
 906              		.loc 1 644 0 discriminator 3
 907 0198 FFF7FEFF 		bl	xTaskResumeAll
 908              	.L57:
 645:../../../../dependencies/freertos/FreeRTOSv10.4.1/FreeRTOS/Source/stream_buffer.c ****         }
 646:../../../../dependencies/freertos/FreeRTOSv10.4.1/FreeRTOS/Source/stream_buffer.c ****         else
 647:../../../../dependencies/freertos/FreeRTOSv10.4.1/FreeRTOS/Source/stream_buffer.c ****         {
 648:../../../../dependencies/freertos/FreeRTOSv10.4.1/FreeRTOS/Source/stream_buffer.c ****             mtCOVERAGE_TEST_MARKER();
 649:../../../../dependencies/freertos/FreeRTOSv10.4.1/FreeRTOS/Source/stream_buffer.c ****         }
 650:../../../../dependencies/freertos/FreeRTOSv10.4.1/FreeRTOS/Source/stream_buffer.c ****     }
 651:../../../../dependencies/freertos/FreeRTOSv10.4.1/FreeRTOS/Source/stream_buffer.c ****     else
 652:../../../../dependencies/freertos/FreeRTOSv10.4.1/FreeRTOS/Source/stream_buffer.c ****     {
 653:../../../../dependencies/freertos/FreeRTOSv10.4.1/FreeRTOS/Source/stream_buffer.c ****         mtCOVERAGE_TEST_MARKER();
 654:../../../../dependencies/freertos/FreeRTOSv10.4.1/FreeRTOS/Source/stream_buffer.c ****         traceSTREAM_BUFFER_SEND_FAILED( xStreamBuffer );
 655:../../../../dependencies/freertos/FreeRTOSv10.4.1/FreeRTOS/Source/stream_buffer.c ****     }
 656:../../../../dependencies/freertos/FreeRTOSv10.4.1/FreeRTOS/Source/stream_buffer.c **** 
 657:../../../../dependencies/freertos/FreeRTOSv10.4.1/FreeRTOS/Source/stream_buffer.c ****     return xReturn;
 909              		.loc 1 657 0 is_stmt 1
 910 019c FB6A     		ldr	r3, [r7, #44]
 658:../../../../dependencies/freertos/FreeRTOSv10.4.1/FreeRTOS/Source/stream_buffer.c **** }
 911              		.loc 1 658 0
 912 019e 1846     		mov	r0, r3
 913 01a0 4037     		adds	r7, r7, #64
 914              	.LCFI35:
 915              		.cfi_def_cfa_offset 8
 916 01a2 BD46     		mov	sp, r7
 917              	.LCFI36:
 918              		.cfi_def_cfa_register 13
 919              		@ sp needed
 920 01a4 80BD     		pop	{r7, pc}
 921              		.cfi_endproc
 922              	.LFE11:
 924 01a6 00BF     		.section	.text.xStreamBufferSendFromISR,"ax",%progbits
 925              		.align	2
 926              		.global	xStreamBufferSendFromISR
ARM GAS  /var/folders/_8/_cw6l3nd335f_j6cn6z79m4m0000gn/T//ccSM72RG.s 			page 32


 927              		.thumb
 928              		.thumb_func
 930              	xStreamBufferSendFromISR:
 931              	.LFB12:
 659:../../../../dependencies/freertos/FreeRTOSv10.4.1/FreeRTOS/Source/stream_buffer.c **** /*-----------------------------------------------------------*/
 660:../../../../dependencies/freertos/FreeRTOSv10.4.1/FreeRTOS/Source/stream_buffer.c **** 
 661:../../../../dependencies/freertos/FreeRTOSv10.4.1/FreeRTOS/Source/stream_buffer.c **** size_t xStreamBufferSendFromISR( StreamBufferHandle_t xStreamBuffer,
 662:../../../../dependencies/freertos/FreeRTOSv10.4.1/FreeRTOS/Source/stream_buffer.c ****                                  const void * pvTxData,
 663:../../../../dependencies/freertos/FreeRTOSv10.4.1/FreeRTOS/Source/stream_buffer.c ****                                  size_t xDataLengthBytes,
 664:../../../../dependencies/freertos/FreeRTOSv10.4.1/FreeRTOS/Source/stream_buffer.c ****                                  BaseType_t * const pxHigherPriorityTaskWoken )
 665:../../../../dependencies/freertos/FreeRTOSv10.4.1/FreeRTOS/Source/stream_buffer.c **** {
 932              		.loc 1 665 0
 933              		.cfi_startproc
 934              		@ args = 0, pretend = 0, frame = 56
 935              		@ frame_needed = 1, uses_anonymous_args = 0
 936 0000 80B5     		push	{r7, lr}
 937              	.LCFI37:
 938              		.cfi_def_cfa_offset 8
 939              		.cfi_offset 7, -8
 940              		.cfi_offset 14, -4
 941 0002 90B0     		sub	sp, sp, #64
 942              	.LCFI38:
 943              		.cfi_def_cfa_offset 72
 944 0004 02AF     		add	r7, sp, #8
 945              	.LCFI39:
 946              		.cfi_def_cfa 7, 64
 947 0006 F860     		str	r0, [r7, #12]
 948 0008 B960     		str	r1, [r7, #8]
 949 000a 7A60     		str	r2, [r7, #4]
 950 000c 3B60     		str	r3, [r7]
 666:../../../../dependencies/freertos/FreeRTOSv10.4.1/FreeRTOS/Source/stream_buffer.c ****     StreamBuffer_t * const pxStreamBuffer = xStreamBuffer;
 951              		.loc 1 666 0
 952 000e FB68     		ldr	r3, [r7, #12]
 953 0010 3B63     		str	r3, [r7, #48]
 667:../../../../dependencies/freertos/FreeRTOSv10.4.1/FreeRTOS/Source/stream_buffer.c ****     size_t xReturn, xSpace;
 668:../../../../dependencies/freertos/FreeRTOSv10.4.1/FreeRTOS/Source/stream_buffer.c ****     size_t xRequiredSpace = xDataLengthBytes;
 954              		.loc 1 668 0
 955 0012 7B68     		ldr	r3, [r7, #4]
 956 0014 7B63     		str	r3, [r7, #52]
 669:../../../../dependencies/freertos/FreeRTOSv10.4.1/FreeRTOS/Source/stream_buffer.c **** 
 670:../../../../dependencies/freertos/FreeRTOSv10.4.1/FreeRTOS/Source/stream_buffer.c ****     configASSERT( pvTxData );
 957              		.loc 1 670 0
 958 0016 BB68     		ldr	r3, [r7, #8]
 959 0018 002B     		cmp	r3, #0
 960 001a 09D1     		bne	.L62
 961              	.LBB109:
 962              	.LBB110:
 963              		.loc 2 197 0 discriminator 1
 964              	@ 197 "../../../../dependencies/freertos/FreeRTOSv10.4.1/FreeRTOS/Source/portable/GCC/ARM_CM4F/port
 965 001c 4FF05003 			mov r3, #80												
 966 0020 83F31188 		msr basepri, r3											
 967 0024 BFF36F8F 		isb														
 968 0028 BFF34F8F 		dsb														
 969              	
 970              	@ 0 "" 2
 971              		.thumb
 972 002c 3B62     		str	r3, [r7, #32]
ARM GAS  /var/folders/_8/_cw6l3nd335f_j6cn6z79m4m0000gn/T//ccSM72RG.s 			page 33


 973              	.L63:
 974              	.LBE110:
 975              	.LBE109:
 976              		.loc 1 670 0 discriminator 1
 977 002e FEE7     		b	.L63
 978              	.L62:
 671:../../../../dependencies/freertos/FreeRTOSv10.4.1/FreeRTOS/Source/stream_buffer.c ****     configASSERT( pxStreamBuffer );
 979              		.loc 1 671 0
 980 0030 3B6B     		ldr	r3, [r7, #48]
 981 0032 002B     		cmp	r3, #0
 982 0034 09D1     		bne	.L64
 983              	.LBB111:
 984              	.LBB112:
 985              		.loc 2 197 0 discriminator 1
 986              	@ 197 "../../../../dependencies/freertos/FreeRTOSv10.4.1/FreeRTOS/Source/portable/GCC/ARM_CM4F/port
 987 0036 4FF05003 			mov r3, #80												
 988 003a 83F31188 		msr basepri, r3											
 989 003e BFF36F8F 		isb														
 990 0042 BFF34F8F 		dsb														
 991              	
 992              	@ 0 "" 2
 993              		.thumb
 994 0046 FB61     		str	r3, [r7, #28]
 995              	.L65:
 996              	.LBE112:
 997              	.LBE111:
 998              		.loc 1 671 0 discriminator 2
 999 0048 FEE7     		b	.L65
 1000              	.L64:
 672:../../../../dependencies/freertos/FreeRTOSv10.4.1/FreeRTOS/Source/stream_buffer.c **** 
 673:../../../../dependencies/freertos/FreeRTOSv10.4.1/FreeRTOS/Source/stream_buffer.c ****     /* This send function is used to write to both message buffers and stream
 674:../../../../dependencies/freertos/FreeRTOSv10.4.1/FreeRTOS/Source/stream_buffer.c ****      * buffers.  If this is a message buffer then the space needed must be
 675:../../../../dependencies/freertos/FreeRTOSv10.4.1/FreeRTOS/Source/stream_buffer.c ****      * increased by the amount of bytes needed to store the length of the
 676:../../../../dependencies/freertos/FreeRTOSv10.4.1/FreeRTOS/Source/stream_buffer.c ****      * message. */
 677:../../../../dependencies/freertos/FreeRTOSv10.4.1/FreeRTOS/Source/stream_buffer.c ****     if( ( pxStreamBuffer->ucFlags & sbFLAGS_IS_MESSAGE_BUFFER ) != ( uint8_t ) 0 )
 1001              		.loc 1 677 0
 1002 004a 3B6B     		ldr	r3, [r7, #48]
 1003 004c 1B7F     		ldrb	r3, [r3, #28]	@ zero_extendqisi2
 1004 004e 03F00103 		and	r3, r3, #1
 1005 0052 002B     		cmp	r3, #0
 1006 0054 02D0     		beq	.L66
 678:../../../../dependencies/freertos/FreeRTOSv10.4.1/FreeRTOS/Source/stream_buffer.c ****     {
 679:../../../../dependencies/freertos/FreeRTOSv10.4.1/FreeRTOS/Source/stream_buffer.c ****         xRequiredSpace += sbBYTES_TO_STORE_MESSAGE_LENGTH;
 1007              		.loc 1 679 0
 1008 0056 7B6B     		ldr	r3, [r7, #52]
 1009 0058 0433     		adds	r3, r3, #4
 1010 005a 7B63     		str	r3, [r7, #52]
 1011              	.L66:
 680:../../../../dependencies/freertos/FreeRTOSv10.4.1/FreeRTOS/Source/stream_buffer.c ****     }
 681:../../../../dependencies/freertos/FreeRTOSv10.4.1/FreeRTOS/Source/stream_buffer.c ****     else
 682:../../../../dependencies/freertos/FreeRTOSv10.4.1/FreeRTOS/Source/stream_buffer.c ****     {
 683:../../../../dependencies/freertos/FreeRTOSv10.4.1/FreeRTOS/Source/stream_buffer.c ****         mtCOVERAGE_TEST_MARKER();
 684:../../../../dependencies/freertos/FreeRTOSv10.4.1/FreeRTOS/Source/stream_buffer.c ****     }
 685:../../../../dependencies/freertos/FreeRTOSv10.4.1/FreeRTOS/Source/stream_buffer.c **** 
 686:../../../../dependencies/freertos/FreeRTOSv10.4.1/FreeRTOS/Source/stream_buffer.c ****     xSpace = xStreamBufferSpacesAvailable( pxStreamBuffer );
 1012              		.loc 1 686 0
 1013 005c 386B     		ldr	r0, [r7, #48]
ARM GAS  /var/folders/_8/_cw6l3nd335f_j6cn6z79m4m0000gn/T//ccSM72RG.s 			page 34


 1014 005e FFF7FEFF 		bl	xStreamBufferSpacesAvailable
 1015 0062 F862     		str	r0, [r7, #44]
 687:../../../../dependencies/freertos/FreeRTOSv10.4.1/FreeRTOS/Source/stream_buffer.c ****     xReturn = prvWriteMessageToBuffer( pxStreamBuffer, pvTxData, xDataLengthBytes, xSpace, xRequire
 1016              		.loc 1 687 0
 1017 0064 7B6B     		ldr	r3, [r7, #52]
 1018 0066 0093     		str	r3, [sp]
 1019 0068 386B     		ldr	r0, [r7, #48]
 1020 006a B968     		ldr	r1, [r7, #8]
 1021 006c 7A68     		ldr	r2, [r7, #4]
 1022 006e FB6A     		ldr	r3, [r7, #44]
 1023 0070 FFF7FEFF 		bl	prvWriteMessageToBuffer
 1024 0074 B862     		str	r0, [r7, #40]
 688:../../../../dependencies/freertos/FreeRTOSv10.4.1/FreeRTOS/Source/stream_buffer.c **** 
 689:../../../../dependencies/freertos/FreeRTOSv10.4.1/FreeRTOS/Source/stream_buffer.c ****     if( xReturn > ( size_t ) 0 )
 1025              		.loc 1 689 0
 1026 0076 BB6A     		ldr	r3, [r7, #40]
 1027 0078 002B     		cmp	r3, #0
 1028 007a 2DD0     		beq	.L67
 690:../../../../dependencies/freertos/FreeRTOSv10.4.1/FreeRTOS/Source/stream_buffer.c ****     {
 691:../../../../dependencies/freertos/FreeRTOSv10.4.1/FreeRTOS/Source/stream_buffer.c ****         /* Was a task waiting for the data? */
 692:../../../../dependencies/freertos/FreeRTOSv10.4.1/FreeRTOS/Source/stream_buffer.c ****         if( prvBytesInBuffer( pxStreamBuffer ) >= pxStreamBuffer->xTriggerLevelBytes )
 1029              		.loc 1 692 0
 1030 007c 386B     		ldr	r0, [r7, #48]
 1031 007e FFF7FEFF 		bl	prvBytesInBuffer
 1032 0082 0246     		mov	r2, r0
 1033 0084 3B6B     		ldr	r3, [r7, #48]
 1034 0086 DB68     		ldr	r3, [r3, #12]
 1035 0088 9A42     		cmp	r2, r3
 1036 008a 25D3     		bcc	.L67
 1037              	.LBB113:
 1038              	.LBB114:
 1039              	.LBB115:
 198:../../../../dependencies/freertos/FreeRTOSv10.4.1/FreeRTOS/Source/portable/GCC/ARM_CM4F/portmacro.h ****         (
 199:../../../../dependencies/freertos/FreeRTOSv10.4.1/FreeRTOS/Source/portable/GCC/ARM_CM4F/portmacro.h ****             "	mov %0, %1												\n"\
 200:../../../../dependencies/freertos/FreeRTOSv10.4.1/FreeRTOS/Source/portable/GCC/ARM_CM4F/portmacro.h ****             "	msr basepri, %0											\n"\
 201:../../../../dependencies/freertos/FreeRTOSv10.4.1/FreeRTOS/Source/portable/GCC/ARM_CM4F/portmacro.h ****             "	isb														\n"\
 202:../../../../dependencies/freertos/FreeRTOSv10.4.1/FreeRTOS/Source/portable/GCC/ARM_CM4F/portmacro.h ****             "	dsb														\n"\
 203:../../../../dependencies/freertos/FreeRTOSv10.4.1/FreeRTOS/Source/portable/GCC/ARM_CM4F/portmacro.h ****             : "=r" ( ulNewBASEPRI ) : "i" ( configMAX_SYSCALL_INTERRUPT_PRIORITY ) : "memory"
 204:../../../../dependencies/freertos/FreeRTOSv10.4.1/FreeRTOS/Source/portable/GCC/ARM_CM4F/portmacro.h ****         );
 205:../../../../dependencies/freertos/FreeRTOSv10.4.1/FreeRTOS/Source/portable/GCC/ARM_CM4F/portmacro.h ****     }
 206:../../../../dependencies/freertos/FreeRTOSv10.4.1/FreeRTOS/Source/portable/GCC/ARM_CM4F/portmacro.h **** 
 207:../../../../dependencies/freertos/FreeRTOSv10.4.1/FreeRTOS/Source/portable/GCC/ARM_CM4F/portmacro.h **** /*-----------------------------------------------------------*/
 208:../../../../dependencies/freertos/FreeRTOSv10.4.1/FreeRTOS/Source/portable/GCC/ARM_CM4F/portmacro.h **** 
 209:../../../../dependencies/freertos/FreeRTOSv10.4.1/FreeRTOS/Source/portable/GCC/ARM_CM4F/portmacro.h ****     portFORCE_INLINE static uint32_t ulPortRaiseBASEPRI( void )
 210:../../../../dependencies/freertos/FreeRTOSv10.4.1/FreeRTOS/Source/portable/GCC/ARM_CM4F/portmacro.h ****     {
 211:../../../../dependencies/freertos/FreeRTOSv10.4.1/FreeRTOS/Source/portable/GCC/ARM_CM4F/portmacro.h ****         uint32_t ulOriginalBASEPRI, ulNewBASEPRI;
 212:../../../../dependencies/freertos/FreeRTOSv10.4.1/FreeRTOS/Source/portable/GCC/ARM_CM4F/portmacro.h **** 
 213:../../../../dependencies/freertos/FreeRTOSv10.4.1/FreeRTOS/Source/portable/GCC/ARM_CM4F/portmacro.h ****         __asm volatile
 1040              		.loc 2 213 0
 1041              	@ 213 "../../../../dependencies/freertos/FreeRTOSv10.4.1/FreeRTOS/Source/portable/GCC/ARM_CM4F/port
 1042 008c EFF31182 			mrs r2, basepri											
 1043 0090 4FF05003 		mov r3, #80												
 1044 0094 83F31188 		msr basepri, r3											
 1045 0098 BFF36F8F 		isb														
 1046 009c BFF34F8F 		dsb														
 1047              	
 1048              	@ 0 "" 2
ARM GAS  /var/folders/_8/_cw6l3nd335f_j6cn6z79m4m0000gn/T//ccSM72RG.s 			page 35


 1049              		.thumb
 1050 00a0 BA61     		str	r2, [r7, #24]
 1051 00a2 7B61     		str	r3, [r7, #20]
 214:../../../../dependencies/freertos/FreeRTOSv10.4.1/FreeRTOS/Source/portable/GCC/ARM_CM4F/portmacro.h ****         (
 215:../../../../dependencies/freertos/FreeRTOSv10.4.1/FreeRTOS/Source/portable/GCC/ARM_CM4F/portmacro.h ****             "	mrs %0, basepri											\n"\
 216:../../../../dependencies/freertos/FreeRTOSv10.4.1/FreeRTOS/Source/portable/GCC/ARM_CM4F/portmacro.h ****             "	mov %1, %2												\n"\
 217:../../../../dependencies/freertos/FreeRTOSv10.4.1/FreeRTOS/Source/portable/GCC/ARM_CM4F/portmacro.h ****             "	msr basepri, %1											\n"\
 218:../../../../dependencies/freertos/FreeRTOSv10.4.1/FreeRTOS/Source/portable/GCC/ARM_CM4F/portmacro.h ****             "	isb														\n"\
 219:../../../../dependencies/freertos/FreeRTOSv10.4.1/FreeRTOS/Source/portable/GCC/ARM_CM4F/portmacro.h ****             "	dsb														\n"\
 220:../../../../dependencies/freertos/FreeRTOSv10.4.1/FreeRTOS/Source/portable/GCC/ARM_CM4F/portmacro.h ****             : "=r" ( ulOriginalBASEPRI ), "=r" ( ulNewBASEPRI ) : "i" ( configMAX_SYSCALL_INTERRUPT
 221:../../../../dependencies/freertos/FreeRTOSv10.4.1/FreeRTOS/Source/portable/GCC/ARM_CM4F/portmacro.h ****         );
 222:../../../../dependencies/freertos/FreeRTOSv10.4.1/FreeRTOS/Source/portable/GCC/ARM_CM4F/portmacro.h **** 
 223:../../../../dependencies/freertos/FreeRTOSv10.4.1/FreeRTOS/Source/portable/GCC/ARM_CM4F/portmacro.h ****         /* This return will not be reached but is necessary to prevent compiler
 224:../../../../dependencies/freertos/FreeRTOSv10.4.1/FreeRTOS/Source/portable/GCC/ARM_CM4F/portmacro.h ****          * warnings. */
 225:../../../../dependencies/freertos/FreeRTOSv10.4.1/FreeRTOS/Source/portable/GCC/ARM_CM4F/portmacro.h ****         return ulOriginalBASEPRI;
 1052              		.loc 2 225 0
 1053 00a4 BB69     		ldr	r3, [r7, #24]
 1054              	.LBE115:
 1055              	.LBE114:
 693:../../../../dependencies/freertos/FreeRTOSv10.4.1/FreeRTOS/Source/stream_buffer.c ****         {
 694:../../../../dependencies/freertos/FreeRTOSv10.4.1/FreeRTOS/Source/stream_buffer.c ****             sbSEND_COMPLETE_FROM_ISR( pxStreamBuffer, pxHigherPriorityTaskWoken );
 1056              		.loc 1 694 0
 1057 00a6 7B62     		str	r3, [r7, #36]
 1058 00a8 3B6B     		ldr	r3, [r7, #48]
 1059 00aa 1B69     		ldr	r3, [r3, #16]
 1060 00ac 002B     		cmp	r3, #0
 1061 00ae 0ED0     		beq	.L69
 1062              		.loc 1 694 0 is_stmt 0 discriminator 1
 1063 00b0 3B6B     		ldr	r3, [r7, #48]
 1064 00b2 1A69     		ldr	r2, [r3, #16]
 1065 00b4 0023     		movs	r3, #0
 1066 00b6 0093     		str	r3, [sp]
 1067 00b8 3B68     		ldr	r3, [r7]
 1068 00ba 0193     		str	r3, [sp, #4]
 1069 00bc 1046     		mov	r0, r2
 1070 00be 0021     		movs	r1, #0
 1071 00c0 0022     		movs	r2, #0
 1072 00c2 0023     		movs	r3, #0
 1073 00c4 FFF7FEFF 		bl	xTaskGenericNotifyFromISR
 1074 00c8 3B6B     		ldr	r3, [r7, #48]
 1075 00ca 0022     		movs	r2, #0
 1076 00cc 1A61     		str	r2, [r3, #16]
 1077              	.L69:
 1078 00ce 7B6A     		ldr	r3, [r7, #36]
 1079 00d0 3B61     		str	r3, [r7, #16]
 1080              	.LBB116:
 1081              	.LBB117:
 226:../../../../dependencies/freertos/FreeRTOSv10.4.1/FreeRTOS/Source/portable/GCC/ARM_CM4F/portmacro.h ****     }
 227:../../../../dependencies/freertos/FreeRTOSv10.4.1/FreeRTOS/Source/portable/GCC/ARM_CM4F/portmacro.h **** /*-----------------------------------------------------------*/
 228:../../../../dependencies/freertos/FreeRTOSv10.4.1/FreeRTOS/Source/portable/GCC/ARM_CM4F/portmacro.h **** 
 229:../../../../dependencies/freertos/FreeRTOSv10.4.1/FreeRTOS/Source/portable/GCC/ARM_CM4F/portmacro.h ****     portFORCE_INLINE static void vPortSetBASEPRI( uint32_t ulNewMaskValue )
 230:../../../../dependencies/freertos/FreeRTOSv10.4.1/FreeRTOS/Source/portable/GCC/ARM_CM4F/portmacro.h ****     {
 231:../../../../dependencies/freertos/FreeRTOSv10.4.1/FreeRTOS/Source/portable/GCC/ARM_CM4F/portmacro.h ****         __asm volatile
 1082              		.loc 2 231 0 is_stmt 1 discriminator 3
 1083 00d2 3B69     		ldr	r3, [r7, #16]
 1084              	@ 231 "../../../../dependencies/freertos/FreeRTOSv10.4.1/FreeRTOS/Source/portable/GCC/ARM_CM4F/port
 1085 00d4 83F31188 			msr basepri, r3	
ARM GAS  /var/folders/_8/_cw6l3nd335f_j6cn6z79m4m0000gn/T//ccSM72RG.s 			page 36


 1086              	@ 0 "" 2
 1087              		.thumb
 1088              	.L67:
 1089              	.LBE117:
 1090              	.LBE116:
 1091              	.LBE113:
 695:../../../../dependencies/freertos/FreeRTOSv10.4.1/FreeRTOS/Source/stream_buffer.c ****         }
 696:../../../../dependencies/freertos/FreeRTOSv10.4.1/FreeRTOS/Source/stream_buffer.c ****         else
 697:../../../../dependencies/freertos/FreeRTOSv10.4.1/FreeRTOS/Source/stream_buffer.c ****         {
 698:../../../../dependencies/freertos/FreeRTOSv10.4.1/FreeRTOS/Source/stream_buffer.c ****             mtCOVERAGE_TEST_MARKER();
 699:../../../../dependencies/freertos/FreeRTOSv10.4.1/FreeRTOS/Source/stream_buffer.c ****         }
 700:../../../../dependencies/freertos/FreeRTOSv10.4.1/FreeRTOS/Source/stream_buffer.c ****     }
 701:../../../../dependencies/freertos/FreeRTOSv10.4.1/FreeRTOS/Source/stream_buffer.c ****     else
 702:../../../../dependencies/freertos/FreeRTOSv10.4.1/FreeRTOS/Source/stream_buffer.c ****     {
 703:../../../../dependencies/freertos/FreeRTOSv10.4.1/FreeRTOS/Source/stream_buffer.c ****         mtCOVERAGE_TEST_MARKER();
 704:../../../../dependencies/freertos/FreeRTOSv10.4.1/FreeRTOS/Source/stream_buffer.c ****     }
 705:../../../../dependencies/freertos/FreeRTOSv10.4.1/FreeRTOS/Source/stream_buffer.c **** 
 706:../../../../dependencies/freertos/FreeRTOSv10.4.1/FreeRTOS/Source/stream_buffer.c ****     traceSTREAM_BUFFER_SEND_FROM_ISR( xStreamBuffer, xReturn );
 707:../../../../dependencies/freertos/FreeRTOSv10.4.1/FreeRTOS/Source/stream_buffer.c **** 
 708:../../../../dependencies/freertos/FreeRTOSv10.4.1/FreeRTOS/Source/stream_buffer.c ****     return xReturn;
 1092              		.loc 1 708 0
 1093 00d8 BB6A     		ldr	r3, [r7, #40]
 709:../../../../dependencies/freertos/FreeRTOSv10.4.1/FreeRTOS/Source/stream_buffer.c **** }
 1094              		.loc 1 709 0
 1095 00da 1846     		mov	r0, r3
 1096 00dc 3837     		adds	r7, r7, #56
 1097              	.LCFI40:
 1098              		.cfi_def_cfa_offset 8
 1099 00de BD46     		mov	sp, r7
 1100              	.LCFI41:
 1101              		.cfi_def_cfa_register 13
 1102              		@ sp needed
 1103 00e0 80BD     		pop	{r7, pc}
 1104              		.cfi_endproc
 1105              	.LFE12:
 1107 00e2 00BF     		.section	.text.prvWriteMessageToBuffer,"ax",%progbits
 1108              		.align	2
 1109              		.thumb
 1110              		.thumb_func
 1112              	prvWriteMessageToBuffer:
 1113              	.LFB13:
 710:../../../../dependencies/freertos/FreeRTOSv10.4.1/FreeRTOS/Source/stream_buffer.c **** /*-----------------------------------------------------------*/
 711:../../../../dependencies/freertos/FreeRTOSv10.4.1/FreeRTOS/Source/stream_buffer.c **** 
 712:../../../../dependencies/freertos/FreeRTOSv10.4.1/FreeRTOS/Source/stream_buffer.c **** static size_t prvWriteMessageToBuffer( StreamBuffer_t * const pxStreamBuffer,
 713:../../../../dependencies/freertos/FreeRTOSv10.4.1/FreeRTOS/Source/stream_buffer.c ****                                        const void * pvTxData,
 714:../../../../dependencies/freertos/FreeRTOSv10.4.1/FreeRTOS/Source/stream_buffer.c ****                                        size_t xDataLengthBytes,
 715:../../../../dependencies/freertos/FreeRTOSv10.4.1/FreeRTOS/Source/stream_buffer.c ****                                        size_t xSpace,
 716:../../../../dependencies/freertos/FreeRTOSv10.4.1/FreeRTOS/Source/stream_buffer.c ****                                        size_t xRequiredSpace )
 717:../../../../dependencies/freertos/FreeRTOSv10.4.1/FreeRTOS/Source/stream_buffer.c **** {
 1114              		.loc 1 717 0
 1115              		.cfi_startproc
 1116              		@ args = 4, pretend = 0, frame = 24
 1117              		@ frame_needed = 1, uses_anonymous_args = 0
 1118 0000 80B5     		push	{r7, lr}
 1119              	.LCFI42:
 1120              		.cfi_def_cfa_offset 8
 1121              		.cfi_offset 7, -8
ARM GAS  /var/folders/_8/_cw6l3nd335f_j6cn6z79m4m0000gn/T//ccSM72RG.s 			page 37


 1122              		.cfi_offset 14, -4
 1123 0002 86B0     		sub	sp, sp, #24
 1124              	.LCFI43:
 1125              		.cfi_def_cfa_offset 32
 1126 0004 00AF     		add	r7, sp, #0
 1127              	.LCFI44:
 1128              		.cfi_def_cfa_register 7
 1129 0006 F860     		str	r0, [r7, #12]
 1130 0008 B960     		str	r1, [r7, #8]
 1131 000a 7A60     		str	r2, [r7, #4]
 1132 000c 3B60     		str	r3, [r7]
 718:../../../../dependencies/freertos/FreeRTOSv10.4.1/FreeRTOS/Source/stream_buffer.c ****     BaseType_t xShouldWrite;
 719:../../../../dependencies/freertos/FreeRTOSv10.4.1/FreeRTOS/Source/stream_buffer.c ****     size_t xReturn;
 720:../../../../dependencies/freertos/FreeRTOSv10.4.1/FreeRTOS/Source/stream_buffer.c **** 
 721:../../../../dependencies/freertos/FreeRTOSv10.4.1/FreeRTOS/Source/stream_buffer.c ****     if( xSpace == ( size_t ) 0 )
 1133              		.loc 1 721 0
 1134 000e 3B68     		ldr	r3, [r7]
 1135 0010 002B     		cmp	r3, #0
 1136 0012 02D1     		bne	.L72
 722:../../../../dependencies/freertos/FreeRTOSv10.4.1/FreeRTOS/Source/stream_buffer.c ****     {
 723:../../../../dependencies/freertos/FreeRTOSv10.4.1/FreeRTOS/Source/stream_buffer.c ****         /* Doesn't matter if this is a stream buffer or a message buffer, there
 724:../../../../dependencies/freertos/FreeRTOSv10.4.1/FreeRTOS/Source/stream_buffer.c ****          * is no space to write. */
 725:../../../../dependencies/freertos/FreeRTOSv10.4.1/FreeRTOS/Source/stream_buffer.c ****         xShouldWrite = pdFALSE;
 1137              		.loc 1 725 0
 1138 0014 0023     		movs	r3, #0
 1139 0016 7B61     		str	r3, [r7, #20]
 1140 0018 1DE0     		b	.L73
 1141              	.L72:
 726:../../../../dependencies/freertos/FreeRTOSv10.4.1/FreeRTOS/Source/stream_buffer.c ****     }
 727:../../../../dependencies/freertos/FreeRTOSv10.4.1/FreeRTOS/Source/stream_buffer.c ****     else if( ( pxStreamBuffer->ucFlags & sbFLAGS_IS_MESSAGE_BUFFER ) == ( uint8_t ) 0 )
 1142              		.loc 1 727 0
 1143 001a FB68     		ldr	r3, [r7, #12]
 1144 001c 1B7F     		ldrb	r3, [r3, #28]	@ zero_extendqisi2
 1145 001e 03F00103 		and	r3, r3, #1
 1146 0022 002B     		cmp	r3, #0
 1147 0024 08D1     		bne	.L74
 728:../../../../dependencies/freertos/FreeRTOSv10.4.1/FreeRTOS/Source/stream_buffer.c ****     {
 729:../../../../dependencies/freertos/FreeRTOSv10.4.1/FreeRTOS/Source/stream_buffer.c ****         /* This is a stream buffer, as opposed to a message buffer, so writing a
 730:../../../../dependencies/freertos/FreeRTOSv10.4.1/FreeRTOS/Source/stream_buffer.c ****          * stream of bytes rather than discrete messages.  Write as many bytes as
 731:../../../../dependencies/freertos/FreeRTOSv10.4.1/FreeRTOS/Source/stream_buffer.c ****          * possible. */
 732:../../../../dependencies/freertos/FreeRTOSv10.4.1/FreeRTOS/Source/stream_buffer.c ****         xShouldWrite = pdTRUE;
 1148              		.loc 1 732 0
 1149 0026 0123     		movs	r3, #1
 1150 0028 7B61     		str	r3, [r7, #20]
 733:../../../../dependencies/freertos/FreeRTOSv10.4.1/FreeRTOS/Source/stream_buffer.c ****         xDataLengthBytes = configMIN( xDataLengthBytes, xSpace );
 1151              		.loc 1 733 0
 1152 002a 7A68     		ldr	r2, [r7, #4]
 1153 002c 3B68     		ldr	r3, [r7]
 1154 002e 9342     		cmp	r3, r2
 1155 0030 28BF     		it	cs
 1156 0032 1346     		movcs	r3, r2
 1157 0034 7B60     		str	r3, [r7, #4]
 1158 0036 0EE0     		b	.L73
 1159              	.L74:
 734:../../../../dependencies/freertos/FreeRTOSv10.4.1/FreeRTOS/Source/stream_buffer.c ****     }
 735:../../../../dependencies/freertos/FreeRTOSv10.4.1/FreeRTOS/Source/stream_buffer.c ****     else if( xSpace >= xRequiredSpace )
 1160              		.loc 1 735 0
ARM GAS  /var/folders/_8/_cw6l3nd335f_j6cn6z79m4m0000gn/T//ccSM72RG.s 			page 38


 1161 0038 3A68     		ldr	r2, [r7]
 1162 003a 3B6A     		ldr	r3, [r7, #32]
 1163 003c 9A42     		cmp	r2, r3
 1164 003e 08D3     		bcc	.L75
 736:../../../../dependencies/freertos/FreeRTOSv10.4.1/FreeRTOS/Source/stream_buffer.c ****     {
 737:../../../../dependencies/freertos/FreeRTOSv10.4.1/FreeRTOS/Source/stream_buffer.c ****         /* This is a message buffer, as opposed to a stream buffer, and there
 738:../../../../dependencies/freertos/FreeRTOSv10.4.1/FreeRTOS/Source/stream_buffer.c ****          * is enough space to write both the message length and the message itself
 739:../../../../dependencies/freertos/FreeRTOSv10.4.1/FreeRTOS/Source/stream_buffer.c ****          * into the buffer.  Start by writing the length of the data, the data
 740:../../../../dependencies/freertos/FreeRTOSv10.4.1/FreeRTOS/Source/stream_buffer.c ****          * itself will be written later in this function. */
 741:../../../../dependencies/freertos/FreeRTOSv10.4.1/FreeRTOS/Source/stream_buffer.c ****         xShouldWrite = pdTRUE;
 1165              		.loc 1 741 0
 1166 0040 0123     		movs	r3, #1
 1167 0042 7B61     		str	r3, [r7, #20]
 742:../../../../dependencies/freertos/FreeRTOSv10.4.1/FreeRTOS/Source/stream_buffer.c ****         ( void ) prvWriteBytesToBuffer( pxStreamBuffer, ( const uint8_t * ) &( xDataLengthBytes ), 
 1168              		.loc 1 742 0
 1169 0044 3B1D     		adds	r3, r7, #4
 1170 0046 F868     		ldr	r0, [r7, #12]
 1171 0048 1946     		mov	r1, r3
 1172 004a 0422     		movs	r2, #4
 1173 004c FFF7FEFF 		bl	prvWriteBytesToBuffer
 1174 0050 01E0     		b	.L73
 1175              	.L75:
 743:../../../../dependencies/freertos/FreeRTOSv10.4.1/FreeRTOS/Source/stream_buffer.c ****     }
 744:../../../../dependencies/freertos/FreeRTOSv10.4.1/FreeRTOS/Source/stream_buffer.c ****     else
 745:../../../../dependencies/freertos/FreeRTOSv10.4.1/FreeRTOS/Source/stream_buffer.c ****     {
 746:../../../../dependencies/freertos/FreeRTOSv10.4.1/FreeRTOS/Source/stream_buffer.c ****         /* There is space available, but not enough space. */
 747:../../../../dependencies/freertos/FreeRTOSv10.4.1/FreeRTOS/Source/stream_buffer.c ****         xShouldWrite = pdFALSE;
 1176              		.loc 1 747 0
 1177 0052 0023     		movs	r3, #0
 1178 0054 7B61     		str	r3, [r7, #20]
 1179              	.L73:
 748:../../../../dependencies/freertos/FreeRTOSv10.4.1/FreeRTOS/Source/stream_buffer.c ****     }
 749:../../../../dependencies/freertos/FreeRTOSv10.4.1/FreeRTOS/Source/stream_buffer.c **** 
 750:../../../../dependencies/freertos/FreeRTOSv10.4.1/FreeRTOS/Source/stream_buffer.c ****     if( xShouldWrite != pdFALSE )
 1180              		.loc 1 750 0
 1181 0056 7B69     		ldr	r3, [r7, #20]
 1182 0058 002B     		cmp	r3, #0
 1183 005a 07D0     		beq	.L76
 751:../../../../dependencies/freertos/FreeRTOSv10.4.1/FreeRTOS/Source/stream_buffer.c ****     {
 752:../../../../dependencies/freertos/FreeRTOSv10.4.1/FreeRTOS/Source/stream_buffer.c ****         /* Writes the data itself. */
 753:../../../../dependencies/freertos/FreeRTOSv10.4.1/FreeRTOS/Source/stream_buffer.c ****         xReturn = prvWriteBytesToBuffer( pxStreamBuffer, ( const uint8_t * ) pvTxData, xDataLengthB
 1184              		.loc 1 753 0
 1185 005c 7B68     		ldr	r3, [r7, #4]
 1186 005e F868     		ldr	r0, [r7, #12]
 1187 0060 B968     		ldr	r1, [r7, #8]
 1188 0062 1A46     		mov	r2, r3
 1189 0064 FFF7FEFF 		bl	prvWriteBytesToBuffer
 1190 0068 3861     		str	r0, [r7, #16]
 1191 006a 01E0     		b	.L77
 1192              	.L76:
 754:../../../../dependencies/freertos/FreeRTOSv10.4.1/FreeRTOS/Source/stream_buffer.c ****     }
 755:../../../../dependencies/freertos/FreeRTOSv10.4.1/FreeRTOS/Source/stream_buffer.c ****     else
 756:../../../../dependencies/freertos/FreeRTOSv10.4.1/FreeRTOS/Source/stream_buffer.c ****     {
 757:../../../../dependencies/freertos/FreeRTOSv10.4.1/FreeRTOS/Source/stream_buffer.c ****         xReturn = 0;
 1193              		.loc 1 757 0
 1194 006c 0023     		movs	r3, #0
 1195 006e 3B61     		str	r3, [r7, #16]
ARM GAS  /var/folders/_8/_cw6l3nd335f_j6cn6z79m4m0000gn/T//ccSM72RG.s 			page 39


 1196              	.L77:
 758:../../../../dependencies/freertos/FreeRTOSv10.4.1/FreeRTOS/Source/stream_buffer.c ****     }
 759:../../../../dependencies/freertos/FreeRTOSv10.4.1/FreeRTOS/Source/stream_buffer.c **** 
 760:../../../../dependencies/freertos/FreeRTOSv10.4.1/FreeRTOS/Source/stream_buffer.c ****     return xReturn;
 1197              		.loc 1 760 0
 1198 0070 3B69     		ldr	r3, [r7, #16]
 761:../../../../dependencies/freertos/FreeRTOSv10.4.1/FreeRTOS/Source/stream_buffer.c **** }
 1199              		.loc 1 761 0
 1200 0072 1846     		mov	r0, r3
 1201 0074 1837     		adds	r7, r7, #24
 1202              	.LCFI45:
 1203              		.cfi_def_cfa_offset 8
 1204 0076 BD46     		mov	sp, r7
 1205              	.LCFI46:
 1206              		.cfi_def_cfa_register 13
 1207              		@ sp needed
 1208 0078 80BD     		pop	{r7, pc}
 1209              		.cfi_endproc
 1210              	.LFE13:
 1212 007a 00BF     		.section	.text.xStreamBufferReceive,"ax",%progbits
 1213              		.align	2
 1214              		.global	xStreamBufferReceive
 1215              		.thumb
 1216              		.thumb_func
 1218              	xStreamBufferReceive:
 1219              	.LFB14:
 762:../../../../dependencies/freertos/FreeRTOSv10.4.1/FreeRTOS/Source/stream_buffer.c **** /*-----------------------------------------------------------*/
 763:../../../../dependencies/freertos/FreeRTOSv10.4.1/FreeRTOS/Source/stream_buffer.c **** 
 764:../../../../dependencies/freertos/FreeRTOSv10.4.1/FreeRTOS/Source/stream_buffer.c **** size_t xStreamBufferReceive( StreamBufferHandle_t xStreamBuffer,
 765:../../../../dependencies/freertos/FreeRTOSv10.4.1/FreeRTOS/Source/stream_buffer.c ****                              void * pvRxData,
 766:../../../../dependencies/freertos/FreeRTOSv10.4.1/FreeRTOS/Source/stream_buffer.c ****                              size_t xBufferLengthBytes,
 767:../../../../dependencies/freertos/FreeRTOSv10.4.1/FreeRTOS/Source/stream_buffer.c ****                              TickType_t xTicksToWait )
 768:../../../../dependencies/freertos/FreeRTOSv10.4.1/FreeRTOS/Source/stream_buffer.c **** {
 1220              		.loc 1 768 0
 1221              		.cfi_startproc
 1222              		@ args = 0, pretend = 0, frame = 48
 1223              		@ frame_needed = 1, uses_anonymous_args = 0
 1224 0000 80B5     		push	{r7, lr}
 1225              	.LCFI47:
 1226              		.cfi_def_cfa_offset 8
 1227              		.cfi_offset 7, -8
 1228              		.cfi_offset 14, -4
 1229 0002 8EB0     		sub	sp, sp, #56
 1230              	.LCFI48:
 1231              		.cfi_def_cfa_offset 64
 1232 0004 02AF     		add	r7, sp, #8
 1233              	.LCFI49:
 1234              		.cfi_def_cfa 7, 56
 1235 0006 F860     		str	r0, [r7, #12]
 1236 0008 B960     		str	r1, [r7, #8]
 1237 000a 7A60     		str	r2, [r7, #4]
 1238 000c 3B60     		str	r3, [r7]
 769:../../../../dependencies/freertos/FreeRTOSv10.4.1/FreeRTOS/Source/stream_buffer.c ****     StreamBuffer_t * const pxStreamBuffer = xStreamBuffer;
 1239              		.loc 1 769 0
 1240 000e FB68     		ldr	r3, [r7, #12]
 1241 0010 3B62     		str	r3, [r7, #32]
 770:../../../../dependencies/freertos/FreeRTOSv10.4.1/FreeRTOS/Source/stream_buffer.c ****     size_t xReceivedLength = 0, xBytesAvailable, xBytesToStoreMessageLength;
ARM GAS  /var/folders/_8/_cw6l3nd335f_j6cn6z79m4m0000gn/T//ccSM72RG.s 			page 40


 1242              		.loc 1 770 0
 1243 0012 0023     		movs	r3, #0
 1244 0014 FB62     		str	r3, [r7, #44]
 771:../../../../dependencies/freertos/FreeRTOSv10.4.1/FreeRTOS/Source/stream_buffer.c **** 
 772:../../../../dependencies/freertos/FreeRTOSv10.4.1/FreeRTOS/Source/stream_buffer.c ****     configASSERT( pvRxData );
 1245              		.loc 1 772 0
 1246 0016 BB68     		ldr	r3, [r7, #8]
 1247 0018 002B     		cmp	r3, #0
 1248 001a 09D1     		bne	.L80
 1249              	.LBB118:
 1250              	.LBB119:
 197:../../../../dependencies/freertos/FreeRTOSv10.4.1/FreeRTOS/Source/portable/GCC/ARM_CM4F/portmacro.h ****         (
 1251              		.loc 2 197 0 discriminator 1
 1252              	@ 197 "../../../../dependencies/freertos/FreeRTOSv10.4.1/FreeRTOS/Source/portable/GCC/ARM_CM4F/port
 1253 001c 4FF05003 			mov r3, #80												
 1254 0020 83F31188 		msr basepri, r3											
 1255 0024 BFF36F8F 		isb														
 1256 0028 BFF34F8F 		dsb														
 1257              	
 1258              	@ 0 "" 2
 1259              		.thumb
 1260 002c FB61     		str	r3, [r7, #28]
 1261              	.L81:
 1262              	.LBE119:
 1263              	.LBE118:
 1264              		.loc 1 772 0 discriminator 1
 1265 002e FEE7     		b	.L81
 1266              	.L80:
 773:../../../../dependencies/freertos/FreeRTOSv10.4.1/FreeRTOS/Source/stream_buffer.c ****     configASSERT( pxStreamBuffer );
 1267              		.loc 1 773 0
 1268 0030 3B6A     		ldr	r3, [r7, #32]
 1269 0032 002B     		cmp	r3, #0
 1270 0034 09D1     		bne	.L82
 1271              	.LBB120:
 1272              	.LBB121:
 197:../../../../dependencies/freertos/FreeRTOSv10.4.1/FreeRTOS/Source/portable/GCC/ARM_CM4F/portmacro.h ****         (
 1273              		.loc 2 197 0 discriminator 1
 1274              	@ 197 "../../../../dependencies/freertos/FreeRTOSv10.4.1/FreeRTOS/Source/portable/GCC/ARM_CM4F/port
 1275 0036 4FF05003 			mov r3, #80												
 1276 003a 83F31188 		msr basepri, r3											
 1277 003e BFF36F8F 		isb														
 1278 0042 BFF34F8F 		dsb														
 1279              	
 1280              	@ 0 "" 2
 1281              		.thumb
 1282 0046 BB61     		str	r3, [r7, #24]
 1283              	.L83:
 1284              	.LBE121:
 1285              	.LBE120:
 1286              		.loc 1 773 0 discriminator 2
 1287 0048 FEE7     		b	.L83
 1288              	.L82:
 774:../../../../dependencies/freertos/FreeRTOSv10.4.1/FreeRTOS/Source/stream_buffer.c **** 
 775:../../../../dependencies/freertos/FreeRTOSv10.4.1/FreeRTOS/Source/stream_buffer.c ****     /* This receive function is used by both message buffers, which store
 776:../../../../dependencies/freertos/FreeRTOSv10.4.1/FreeRTOS/Source/stream_buffer.c ****      * discrete messages, and stream buffers, which store a continuous stream of
 777:../../../../dependencies/freertos/FreeRTOSv10.4.1/FreeRTOS/Source/stream_buffer.c ****      * bytes.  Discrete messages include an additional
 778:../../../../dependencies/freertos/FreeRTOSv10.4.1/FreeRTOS/Source/stream_buffer.c ****      * sbBYTES_TO_STORE_MESSAGE_LENGTH bytes that hold the length of the
ARM GAS  /var/folders/_8/_cw6l3nd335f_j6cn6z79m4m0000gn/T//ccSM72RG.s 			page 41


 779:../../../../dependencies/freertos/FreeRTOSv10.4.1/FreeRTOS/Source/stream_buffer.c ****      * message. */
 780:../../../../dependencies/freertos/FreeRTOSv10.4.1/FreeRTOS/Source/stream_buffer.c ****     if( ( pxStreamBuffer->ucFlags & sbFLAGS_IS_MESSAGE_BUFFER ) != ( uint8_t ) 0 )
 1289              		.loc 1 780 0
 1290 004a 3B6A     		ldr	r3, [r7, #32]
 1291 004c 1B7F     		ldrb	r3, [r3, #28]	@ zero_extendqisi2
 1292 004e 03F00103 		and	r3, r3, #1
 1293 0052 002B     		cmp	r3, #0
 1294 0054 02D0     		beq	.L84
 781:../../../../dependencies/freertos/FreeRTOSv10.4.1/FreeRTOS/Source/stream_buffer.c ****     {
 782:../../../../dependencies/freertos/FreeRTOSv10.4.1/FreeRTOS/Source/stream_buffer.c ****         xBytesToStoreMessageLength = sbBYTES_TO_STORE_MESSAGE_LENGTH;
 1295              		.loc 1 782 0
 1296 0056 0423     		movs	r3, #4
 1297 0058 7B62     		str	r3, [r7, #36]
 1298 005a 01E0     		b	.L85
 1299              	.L84:
 783:../../../../dependencies/freertos/FreeRTOSv10.4.1/FreeRTOS/Source/stream_buffer.c ****     }
 784:../../../../dependencies/freertos/FreeRTOSv10.4.1/FreeRTOS/Source/stream_buffer.c ****     else
 785:../../../../dependencies/freertos/FreeRTOSv10.4.1/FreeRTOS/Source/stream_buffer.c ****     {
 786:../../../../dependencies/freertos/FreeRTOSv10.4.1/FreeRTOS/Source/stream_buffer.c ****         xBytesToStoreMessageLength = 0;
 1300              		.loc 1 786 0
 1301 005c 0023     		movs	r3, #0
 1302 005e 7B62     		str	r3, [r7, #36]
 1303              	.L85:
 787:../../../../dependencies/freertos/FreeRTOSv10.4.1/FreeRTOS/Source/stream_buffer.c ****     }
 788:../../../../dependencies/freertos/FreeRTOSv10.4.1/FreeRTOS/Source/stream_buffer.c **** 
 789:../../../../dependencies/freertos/FreeRTOSv10.4.1/FreeRTOS/Source/stream_buffer.c ****     if( xTicksToWait != ( TickType_t ) 0 )
 1304              		.loc 1 789 0
 1305 0060 3B68     		ldr	r3, [r7]
 1306 0062 002B     		cmp	r3, #0
 1307 0064 36D0     		beq	.L86
 790:../../../../dependencies/freertos/FreeRTOSv10.4.1/FreeRTOS/Source/stream_buffer.c ****     {
 791:../../../../dependencies/freertos/FreeRTOSv10.4.1/FreeRTOS/Source/stream_buffer.c ****         /* Checking if there is data and clearing the notification state must be
 792:../../../../dependencies/freertos/FreeRTOSv10.4.1/FreeRTOS/Source/stream_buffer.c ****          * performed atomically. */
 793:../../../../dependencies/freertos/FreeRTOSv10.4.1/FreeRTOS/Source/stream_buffer.c ****         taskENTER_CRITICAL();
 1308              		.loc 1 793 0
 1309 0066 FFF7FEFF 		bl	vPortEnterCritical
 794:../../../../dependencies/freertos/FreeRTOSv10.4.1/FreeRTOS/Source/stream_buffer.c ****         {
 795:../../../../dependencies/freertos/FreeRTOSv10.4.1/FreeRTOS/Source/stream_buffer.c ****             xBytesAvailable = prvBytesInBuffer( pxStreamBuffer );
 1310              		.loc 1 795 0
 1311 006a 386A     		ldr	r0, [r7, #32]
 1312 006c FFF7FEFF 		bl	prvBytesInBuffer
 1313 0070 B862     		str	r0, [r7, #40]
 796:../../../../dependencies/freertos/FreeRTOSv10.4.1/FreeRTOS/Source/stream_buffer.c **** 
 797:../../../../dependencies/freertos/FreeRTOSv10.4.1/FreeRTOS/Source/stream_buffer.c ****             /* If this function was invoked by a message buffer read then
 798:../../../../dependencies/freertos/FreeRTOSv10.4.1/FreeRTOS/Source/stream_buffer.c ****              * xBytesToStoreMessageLength holds the number of bytes used to hold
 799:../../../../dependencies/freertos/FreeRTOSv10.4.1/FreeRTOS/Source/stream_buffer.c ****              * the length of the next discrete message.  If this function was
 800:../../../../dependencies/freertos/FreeRTOSv10.4.1/FreeRTOS/Source/stream_buffer.c ****              * invoked by a stream buffer read then xBytesToStoreMessageLength will
 801:../../../../dependencies/freertos/FreeRTOSv10.4.1/FreeRTOS/Source/stream_buffer.c ****              * be 0. */
 802:../../../../dependencies/freertos/FreeRTOSv10.4.1/FreeRTOS/Source/stream_buffer.c ****             if( xBytesAvailable <= xBytesToStoreMessageLength )
 1314              		.loc 1 802 0
 1315 0072 BA6A     		ldr	r2, [r7, #40]
 1316 0074 7B6A     		ldr	r3, [r7, #36]
 1317 0076 9A42     		cmp	r2, r3
 1318 0078 16D8     		bhi	.L87
 803:../../../../dependencies/freertos/FreeRTOSv10.4.1/FreeRTOS/Source/stream_buffer.c ****             {
 804:../../../../dependencies/freertos/FreeRTOSv10.4.1/FreeRTOS/Source/stream_buffer.c ****                 /* Clear notification state as going to wait for data. */
 805:../../../../dependencies/freertos/FreeRTOSv10.4.1/FreeRTOS/Source/stream_buffer.c ****                 ( void ) xTaskNotifyStateClear( NULL );
ARM GAS  /var/folders/_8/_cw6l3nd335f_j6cn6z79m4m0000gn/T//ccSM72RG.s 			page 42


 1319              		.loc 1 805 0
 1320 007a 0020     		movs	r0, #0
 1321 007c 0021     		movs	r1, #0
 1322 007e FFF7FEFF 		bl	xTaskGenericNotifyStateClear
 806:../../../../dependencies/freertos/FreeRTOSv10.4.1/FreeRTOS/Source/stream_buffer.c **** 
 807:../../../../dependencies/freertos/FreeRTOSv10.4.1/FreeRTOS/Source/stream_buffer.c ****                 /* Should only be one reader. */
 808:../../../../dependencies/freertos/FreeRTOSv10.4.1/FreeRTOS/Source/stream_buffer.c ****                 configASSERT( pxStreamBuffer->xTaskWaitingToReceive == NULL );
 1323              		.loc 1 808 0
 1324 0082 3B6A     		ldr	r3, [r7, #32]
 1325 0084 1B69     		ldr	r3, [r3, #16]
 1326 0086 002B     		cmp	r3, #0
 1327 0088 09D0     		beq	.L88
 1328              	.LBB122:
 1329              	.LBB123:
 197:../../../../dependencies/freertos/FreeRTOSv10.4.1/FreeRTOS/Source/portable/GCC/ARM_CM4F/portmacro.h ****         (
 1330              		.loc 2 197 0 discriminator 1
 1331              	@ 197 "../../../../dependencies/freertos/FreeRTOSv10.4.1/FreeRTOS/Source/portable/GCC/ARM_CM4F/port
 1332 008a 4FF05003 			mov r3, #80												
 1333 008e 83F31188 		msr basepri, r3											
 1334 0092 BFF36F8F 		isb														
 1335 0096 BFF34F8F 		dsb														
 1336              	
 1337              	@ 0 "" 2
 1338              		.thumb
 1339 009a 7B61     		str	r3, [r7, #20]
 1340              	.L89:
 1341              	.LBE123:
 1342              	.LBE122:
 1343              		.loc 1 808 0 discriminator 3
 1344 009c FEE7     		b	.L89
 1345              	.L88:
 809:../../../../dependencies/freertos/FreeRTOSv10.4.1/FreeRTOS/Source/stream_buffer.c ****                 pxStreamBuffer->xTaskWaitingToReceive = xTaskGetCurrentTaskHandle();
 1346              		.loc 1 809 0
 1347 009e FFF7FEFF 		bl	xTaskGetCurrentTaskHandle
 1348 00a2 0246     		mov	r2, r0
 1349 00a4 3B6A     		ldr	r3, [r7, #32]
 1350 00a6 1A61     		str	r2, [r3, #16]
 1351              	.L87:
 810:../../../../dependencies/freertos/FreeRTOSv10.4.1/FreeRTOS/Source/stream_buffer.c ****             }
 811:../../../../dependencies/freertos/FreeRTOSv10.4.1/FreeRTOS/Source/stream_buffer.c ****             else
 812:../../../../dependencies/freertos/FreeRTOSv10.4.1/FreeRTOS/Source/stream_buffer.c ****             {
 813:../../../../dependencies/freertos/FreeRTOSv10.4.1/FreeRTOS/Source/stream_buffer.c ****                 mtCOVERAGE_TEST_MARKER();
 814:../../../../dependencies/freertos/FreeRTOSv10.4.1/FreeRTOS/Source/stream_buffer.c ****             }
 815:../../../../dependencies/freertos/FreeRTOSv10.4.1/FreeRTOS/Source/stream_buffer.c ****         }
 816:../../../../dependencies/freertos/FreeRTOSv10.4.1/FreeRTOS/Source/stream_buffer.c ****         taskEXIT_CRITICAL();
 1352              		.loc 1 816 0
 1353 00a8 FFF7FEFF 		bl	vPortExitCritical
 817:../../../../dependencies/freertos/FreeRTOSv10.4.1/FreeRTOS/Source/stream_buffer.c **** 
 818:../../../../dependencies/freertos/FreeRTOSv10.4.1/FreeRTOS/Source/stream_buffer.c ****         if( xBytesAvailable <= xBytesToStoreMessageLength )
 1354              		.loc 1 818 0
 1355 00ac BA6A     		ldr	r2, [r7, #40]
 1356 00ae 7B6A     		ldr	r3, [r7, #36]
 1357 00b0 9A42     		cmp	r2, r3
 1358 00b2 13D8     		bhi	.L90
 819:../../../../dependencies/freertos/FreeRTOSv10.4.1/FreeRTOS/Source/stream_buffer.c ****         {
 820:../../../../dependencies/freertos/FreeRTOSv10.4.1/FreeRTOS/Source/stream_buffer.c ****             /* Wait for data to be available. */
 821:../../../../dependencies/freertos/FreeRTOSv10.4.1/FreeRTOS/Source/stream_buffer.c ****             traceBLOCKING_ON_STREAM_BUFFER_RECEIVE( xStreamBuffer );
ARM GAS  /var/folders/_8/_cw6l3nd335f_j6cn6z79m4m0000gn/T//ccSM72RG.s 			page 43


 822:../../../../dependencies/freertos/FreeRTOSv10.4.1/FreeRTOS/Source/stream_buffer.c ****             ( void ) xTaskNotifyWait( ( uint32_t ) 0, ( uint32_t ) 0, NULL, xTicksToWait );
 1359              		.loc 1 822 0
 1360 00b4 3B68     		ldr	r3, [r7]
 1361 00b6 0093     		str	r3, [sp]
 1362 00b8 0020     		movs	r0, #0
 1363 00ba 0021     		movs	r1, #0
 1364 00bc 0022     		movs	r2, #0
 1365 00be 0023     		movs	r3, #0
 1366 00c0 FFF7FEFF 		bl	xTaskGenericNotifyWait
 823:../../../../dependencies/freertos/FreeRTOSv10.4.1/FreeRTOS/Source/stream_buffer.c ****             pxStreamBuffer->xTaskWaitingToReceive = NULL;
 1367              		.loc 1 823 0
 1368 00c4 3B6A     		ldr	r3, [r7, #32]
 1369 00c6 0022     		movs	r2, #0
 1370 00c8 1A61     		str	r2, [r3, #16]
 824:../../../../dependencies/freertos/FreeRTOSv10.4.1/FreeRTOS/Source/stream_buffer.c **** 
 825:../../../../dependencies/freertos/FreeRTOSv10.4.1/FreeRTOS/Source/stream_buffer.c ****             /* Recheck the data available after blocking. */
 826:../../../../dependencies/freertos/FreeRTOSv10.4.1/FreeRTOS/Source/stream_buffer.c ****             xBytesAvailable = prvBytesInBuffer( pxStreamBuffer );
 1371              		.loc 1 826 0
 1372 00ca 386A     		ldr	r0, [r7, #32]
 1373 00cc FFF7FEFF 		bl	prvBytesInBuffer
 1374 00d0 B862     		str	r0, [r7, #40]
 1375 00d2 03E0     		b	.L90
 1376              	.L86:
 827:../../../../dependencies/freertos/FreeRTOSv10.4.1/FreeRTOS/Source/stream_buffer.c ****         }
 828:../../../../dependencies/freertos/FreeRTOSv10.4.1/FreeRTOS/Source/stream_buffer.c ****         else
 829:../../../../dependencies/freertos/FreeRTOSv10.4.1/FreeRTOS/Source/stream_buffer.c ****         {
 830:../../../../dependencies/freertos/FreeRTOSv10.4.1/FreeRTOS/Source/stream_buffer.c ****             mtCOVERAGE_TEST_MARKER();
 831:../../../../dependencies/freertos/FreeRTOSv10.4.1/FreeRTOS/Source/stream_buffer.c ****         }
 832:../../../../dependencies/freertos/FreeRTOSv10.4.1/FreeRTOS/Source/stream_buffer.c ****     }
 833:../../../../dependencies/freertos/FreeRTOSv10.4.1/FreeRTOS/Source/stream_buffer.c ****     else
 834:../../../../dependencies/freertos/FreeRTOSv10.4.1/FreeRTOS/Source/stream_buffer.c ****     {
 835:../../../../dependencies/freertos/FreeRTOSv10.4.1/FreeRTOS/Source/stream_buffer.c ****         xBytesAvailable = prvBytesInBuffer( pxStreamBuffer );
 1377              		.loc 1 835 0
 1378 00d4 386A     		ldr	r0, [r7, #32]
 1379 00d6 FFF7FEFF 		bl	prvBytesInBuffer
 1380 00da B862     		str	r0, [r7, #40]
 1381              	.L90:
 836:../../../../dependencies/freertos/FreeRTOSv10.4.1/FreeRTOS/Source/stream_buffer.c ****     }
 837:../../../../dependencies/freertos/FreeRTOSv10.4.1/FreeRTOS/Source/stream_buffer.c **** 
 838:../../../../dependencies/freertos/FreeRTOSv10.4.1/FreeRTOS/Source/stream_buffer.c ****     /* Whether receiving a discrete message (where xBytesToStoreMessageLength
 839:../../../../dependencies/freertos/FreeRTOSv10.4.1/FreeRTOS/Source/stream_buffer.c ****      * holds the number of bytes used to store the message length) or a stream of
 840:../../../../dependencies/freertos/FreeRTOSv10.4.1/FreeRTOS/Source/stream_buffer.c ****      * bytes (where xBytesToStoreMessageLength is zero), the number of bytes
 841:../../../../dependencies/freertos/FreeRTOSv10.4.1/FreeRTOS/Source/stream_buffer.c ****      * available must be greater than xBytesToStoreMessageLength to be able to
 842:../../../../dependencies/freertos/FreeRTOSv10.4.1/FreeRTOS/Source/stream_buffer.c ****      * read bytes from the buffer. */
 843:../../../../dependencies/freertos/FreeRTOSv10.4.1/FreeRTOS/Source/stream_buffer.c ****     if( xBytesAvailable > xBytesToStoreMessageLength )
 1382              		.loc 1 843 0
 1383 00dc BA6A     		ldr	r2, [r7, #40]
 1384 00de 7B6A     		ldr	r3, [r7, #36]
 1385 00e0 9A42     		cmp	r2, r3
 1386 00e2 20D9     		bls	.L91
 844:../../../../dependencies/freertos/FreeRTOSv10.4.1/FreeRTOS/Source/stream_buffer.c ****     {
 845:../../../../dependencies/freertos/FreeRTOSv10.4.1/FreeRTOS/Source/stream_buffer.c ****         xReceivedLength = prvReadMessageFromBuffer( pxStreamBuffer, pvRxData, xBufferLengthBytes, x
 1387              		.loc 1 845 0
 1388 00e4 7B6A     		ldr	r3, [r7, #36]
 1389 00e6 0093     		str	r3, [sp]
 1390 00e8 386A     		ldr	r0, [r7, #32]
 1391 00ea B968     		ldr	r1, [r7, #8]
ARM GAS  /var/folders/_8/_cw6l3nd335f_j6cn6z79m4m0000gn/T//ccSM72RG.s 			page 44


 1392 00ec 7A68     		ldr	r2, [r7, #4]
 1393 00ee BB6A     		ldr	r3, [r7, #40]
 1394 00f0 FFF7FEFF 		bl	prvReadMessageFromBuffer
 1395 00f4 F862     		str	r0, [r7, #44]
 846:../../../../dependencies/freertos/FreeRTOSv10.4.1/FreeRTOS/Source/stream_buffer.c **** 
 847:../../../../dependencies/freertos/FreeRTOSv10.4.1/FreeRTOS/Source/stream_buffer.c ****         /* Was a task waiting for space in the buffer? */
 848:../../../../dependencies/freertos/FreeRTOSv10.4.1/FreeRTOS/Source/stream_buffer.c ****         if( xReceivedLength != ( size_t ) 0 )
 1396              		.loc 1 848 0
 1397 00f6 FB6A     		ldr	r3, [r7, #44]
 1398 00f8 002B     		cmp	r3, #0
 1399 00fa 14D0     		beq	.L91
 849:../../../../dependencies/freertos/FreeRTOSv10.4.1/FreeRTOS/Source/stream_buffer.c ****         {
 850:../../../../dependencies/freertos/FreeRTOSv10.4.1/FreeRTOS/Source/stream_buffer.c ****             traceSTREAM_BUFFER_RECEIVE( xStreamBuffer, xReceivedLength );
 851:../../../../dependencies/freertos/FreeRTOSv10.4.1/FreeRTOS/Source/stream_buffer.c ****             sbRECEIVE_COMPLETED( pxStreamBuffer );
 1400              		.loc 1 851 0
 1401 00fc FFF7FEFF 		bl	vTaskSuspendAll
 1402 0100 3B6A     		ldr	r3, [r7, #32]
 1403 0102 5B69     		ldr	r3, [r3, #20]
 1404 0104 002B     		cmp	r3, #0
 1405 0106 0CD0     		beq	.L92
 1406              		.loc 1 851 0 is_stmt 0 discriminator 1
 1407 0108 3B6A     		ldr	r3, [r7, #32]
 1408 010a 5A69     		ldr	r2, [r3, #20]
 1409 010c 0023     		movs	r3, #0
 1410 010e 0093     		str	r3, [sp]
 1411 0110 1046     		mov	r0, r2
 1412 0112 0021     		movs	r1, #0
 1413 0114 0022     		movs	r2, #0
 1414 0116 0023     		movs	r3, #0
 1415 0118 FFF7FEFF 		bl	xTaskGenericNotify
 1416 011c 3B6A     		ldr	r3, [r7, #32]
 1417 011e 0022     		movs	r2, #0
 1418 0120 5A61     		str	r2, [r3, #20]
 1419              	.L92:
 1420              		.loc 1 851 0 discriminator 3
 1421 0122 FFF7FEFF 		bl	xTaskResumeAll
 1422              	.L91:
 852:../../../../dependencies/freertos/FreeRTOSv10.4.1/FreeRTOS/Source/stream_buffer.c ****         }
 853:../../../../dependencies/freertos/FreeRTOSv10.4.1/FreeRTOS/Source/stream_buffer.c ****         else
 854:../../../../dependencies/freertos/FreeRTOSv10.4.1/FreeRTOS/Source/stream_buffer.c ****         {
 855:../../../../dependencies/freertos/FreeRTOSv10.4.1/FreeRTOS/Source/stream_buffer.c ****             mtCOVERAGE_TEST_MARKER();
 856:../../../../dependencies/freertos/FreeRTOSv10.4.1/FreeRTOS/Source/stream_buffer.c ****         }
 857:../../../../dependencies/freertos/FreeRTOSv10.4.1/FreeRTOS/Source/stream_buffer.c ****     }
 858:../../../../dependencies/freertos/FreeRTOSv10.4.1/FreeRTOS/Source/stream_buffer.c ****     else
 859:../../../../dependencies/freertos/FreeRTOSv10.4.1/FreeRTOS/Source/stream_buffer.c ****     {
 860:../../../../dependencies/freertos/FreeRTOSv10.4.1/FreeRTOS/Source/stream_buffer.c ****         traceSTREAM_BUFFER_RECEIVE_FAILED( xStreamBuffer );
 861:../../../../dependencies/freertos/FreeRTOSv10.4.1/FreeRTOS/Source/stream_buffer.c ****         mtCOVERAGE_TEST_MARKER();
 862:../../../../dependencies/freertos/FreeRTOSv10.4.1/FreeRTOS/Source/stream_buffer.c ****     }
 863:../../../../dependencies/freertos/FreeRTOSv10.4.1/FreeRTOS/Source/stream_buffer.c **** 
 864:../../../../dependencies/freertos/FreeRTOSv10.4.1/FreeRTOS/Source/stream_buffer.c ****     return xReceivedLength;
 1423              		.loc 1 864 0 is_stmt 1
 1424 0126 FB6A     		ldr	r3, [r7, #44]
 865:../../../../dependencies/freertos/FreeRTOSv10.4.1/FreeRTOS/Source/stream_buffer.c **** }
 1425              		.loc 1 865 0
 1426 0128 1846     		mov	r0, r3
 1427 012a 3037     		adds	r7, r7, #48
 1428              	.LCFI50:
ARM GAS  /var/folders/_8/_cw6l3nd335f_j6cn6z79m4m0000gn/T//ccSM72RG.s 			page 45


 1429              		.cfi_def_cfa_offset 8
 1430 012c BD46     		mov	sp, r7
 1431              	.LCFI51:
 1432              		.cfi_def_cfa_register 13
 1433              		@ sp needed
 1434 012e 80BD     		pop	{r7, pc}
 1435              		.cfi_endproc
 1436              	.LFE14:
 1438              		.section	.text.xStreamBufferNextMessageLengthBytes,"ax",%progbits
 1439              		.align	2
 1440              		.global	xStreamBufferNextMessageLengthBytes
 1441              		.thumb
 1442              		.thumb_func
 1444              	xStreamBufferNextMessageLengthBytes:
 1445              	.LFB15:
 866:../../../../dependencies/freertos/FreeRTOSv10.4.1/FreeRTOS/Source/stream_buffer.c **** /*-----------------------------------------------------------*/
 867:../../../../dependencies/freertos/FreeRTOSv10.4.1/FreeRTOS/Source/stream_buffer.c **** 
 868:../../../../dependencies/freertos/FreeRTOSv10.4.1/FreeRTOS/Source/stream_buffer.c **** size_t xStreamBufferNextMessageLengthBytes( StreamBufferHandle_t xStreamBuffer )
 869:../../../../dependencies/freertos/FreeRTOSv10.4.1/FreeRTOS/Source/stream_buffer.c **** {
 1446              		.loc 1 869 0
 1447              		.cfi_startproc
 1448              		@ args = 0, pretend = 0, frame = 40
 1449              		@ frame_needed = 1, uses_anonymous_args = 0
 1450 0000 80B5     		push	{r7, lr}
 1451              	.LCFI52:
 1452              		.cfi_def_cfa_offset 8
 1453              		.cfi_offset 7, -8
 1454              		.cfi_offset 14, -4
 1455 0002 8AB0     		sub	sp, sp, #40
 1456              	.LCFI53:
 1457              		.cfi_def_cfa_offset 48
 1458 0004 00AF     		add	r7, sp, #0
 1459              	.LCFI54:
 1460              		.cfi_def_cfa_register 7
 1461 0006 7860     		str	r0, [r7, #4]
 870:../../../../dependencies/freertos/FreeRTOSv10.4.1/FreeRTOS/Source/stream_buffer.c ****     StreamBuffer_t * const pxStreamBuffer = xStreamBuffer;
 1462              		.loc 1 870 0
 1463 0008 7B68     		ldr	r3, [r7, #4]
 1464 000a 3B62     		str	r3, [r7, #32]
 871:../../../../dependencies/freertos/FreeRTOSv10.4.1/FreeRTOS/Source/stream_buffer.c ****     size_t xReturn, xBytesAvailable, xOriginalTail;
 872:../../../../dependencies/freertos/FreeRTOSv10.4.1/FreeRTOS/Source/stream_buffer.c ****     configMESSAGE_BUFFER_LENGTH_TYPE xTempReturn;
 873:../../../../dependencies/freertos/FreeRTOSv10.4.1/FreeRTOS/Source/stream_buffer.c **** 
 874:../../../../dependencies/freertos/FreeRTOSv10.4.1/FreeRTOS/Source/stream_buffer.c ****     configASSERT( pxStreamBuffer );
 1465              		.loc 1 874 0
 1466 000c 3B6A     		ldr	r3, [r7, #32]
 1467 000e 002B     		cmp	r3, #0
 1468 0010 09D1     		bne	.L95
 1469              	.LBB124:
 1470              	.LBB125:
 197:../../../../dependencies/freertos/FreeRTOSv10.4.1/FreeRTOS/Source/portable/GCC/ARM_CM4F/portmacro.h ****         (
 1471              		.loc 2 197 0 discriminator 1
 1472              	@ 197 "../../../../dependencies/freertos/FreeRTOSv10.4.1/FreeRTOS/Source/portable/GCC/ARM_CM4F/port
 1473 0012 4FF05003 			mov r3, #80												
 1474 0016 83F31188 		msr basepri, r3											
 1475 001a BFF36F8F 		isb														
 1476 001e BFF34F8F 		dsb														
 1477              	
ARM GAS  /var/folders/_8/_cw6l3nd335f_j6cn6z79m4m0000gn/T//ccSM72RG.s 			page 46


 1478              	@ 0 "" 2
 1479              		.thumb
 1480 0022 7B61     		str	r3, [r7, #20]
 1481              	.L96:
 1482              	.LBE125:
 1483              	.LBE124:
 1484              		.loc 1 874 0 discriminator 1
 1485 0024 FEE7     		b	.L96
 1486              	.L95:
 875:../../../../dependencies/freertos/FreeRTOSv10.4.1/FreeRTOS/Source/stream_buffer.c **** 
 876:../../../../dependencies/freertos/FreeRTOSv10.4.1/FreeRTOS/Source/stream_buffer.c ****     /* Ensure the stream buffer is being used as a message buffer. */
 877:../../../../dependencies/freertos/FreeRTOSv10.4.1/FreeRTOS/Source/stream_buffer.c ****     if( ( pxStreamBuffer->ucFlags & sbFLAGS_IS_MESSAGE_BUFFER ) != ( uint8_t ) 0 )
 1487              		.loc 1 877 0
 1488 0026 3B6A     		ldr	r3, [r7, #32]
 1489 0028 1B7F     		ldrb	r3, [r3, #28]	@ zero_extendqisi2
 1490 002a 03F00103 		and	r3, r3, #1
 1491 002e 002B     		cmp	r3, #0
 1492 0030 27D0     		beq	.L97
 878:../../../../dependencies/freertos/FreeRTOSv10.4.1/FreeRTOS/Source/stream_buffer.c ****     {
 879:../../../../dependencies/freertos/FreeRTOSv10.4.1/FreeRTOS/Source/stream_buffer.c ****         xBytesAvailable = prvBytesInBuffer( pxStreamBuffer );
 1493              		.loc 1 879 0
 1494 0032 386A     		ldr	r0, [r7, #32]
 1495 0034 FFF7FEFF 		bl	prvBytesInBuffer
 1496 0038 F861     		str	r0, [r7, #28]
 880:../../../../dependencies/freertos/FreeRTOSv10.4.1/FreeRTOS/Source/stream_buffer.c **** 
 881:../../../../dependencies/freertos/FreeRTOSv10.4.1/FreeRTOS/Source/stream_buffer.c ****         if( xBytesAvailable > sbBYTES_TO_STORE_MESSAGE_LENGTH )
 1497              		.loc 1 881 0
 1498 003a FB69     		ldr	r3, [r7, #28]
 1499 003c 042B     		cmp	r3, #4
 1500 003e 10D9     		bls	.L98
 882:../../../../dependencies/freertos/FreeRTOSv10.4.1/FreeRTOS/Source/stream_buffer.c ****         {
 883:../../../../dependencies/freertos/FreeRTOSv10.4.1/FreeRTOS/Source/stream_buffer.c ****             /* The number of bytes available is greater than the number of bytes
 884:../../../../dependencies/freertos/FreeRTOSv10.4.1/FreeRTOS/Source/stream_buffer.c ****              * required to hold the length of the next message, so another message
 885:../../../../dependencies/freertos/FreeRTOSv10.4.1/FreeRTOS/Source/stream_buffer.c ****              * is available.  Return its length without removing the length bytes
 886:../../../../dependencies/freertos/FreeRTOSv10.4.1/FreeRTOS/Source/stream_buffer.c ****              * from the buffer.  A copy of the tail is stored so the buffer can be
 887:../../../../dependencies/freertos/FreeRTOSv10.4.1/FreeRTOS/Source/stream_buffer.c ****              * returned to its prior state as the message is not actually being
 888:../../../../dependencies/freertos/FreeRTOSv10.4.1/FreeRTOS/Source/stream_buffer.c ****              * removed from the buffer. */
 889:../../../../dependencies/freertos/FreeRTOSv10.4.1/FreeRTOS/Source/stream_buffer.c ****             xOriginalTail = pxStreamBuffer->xTail;
 1501              		.loc 1 889 0
 1502 0040 3B6A     		ldr	r3, [r7, #32]
 1503 0042 1B68     		ldr	r3, [r3]
 1504 0044 BB61     		str	r3, [r7, #24]
 890:../../../../dependencies/freertos/FreeRTOSv10.4.1/FreeRTOS/Source/stream_buffer.c ****             ( void ) prvReadBytesFromBuffer( pxStreamBuffer, ( uint8_t * ) &xTempReturn, sbBYTES_TO
 1505              		.loc 1 890 0
 1506 0046 07F10C03 		add	r3, r7, #12
 1507 004a 386A     		ldr	r0, [r7, #32]
 1508 004c 1946     		mov	r1, r3
 1509 004e 0422     		movs	r2, #4
 1510 0050 FB69     		ldr	r3, [r7, #28]
 1511 0052 FFF7FEFF 		bl	prvReadBytesFromBuffer
 891:../../../../dependencies/freertos/FreeRTOSv10.4.1/FreeRTOS/Source/stream_buffer.c ****             xReturn = ( size_t ) xTempReturn;
 1512              		.loc 1 891 0
 1513 0056 FB68     		ldr	r3, [r7, #12]
 1514 0058 7B62     		str	r3, [r7, #36]
 892:../../../../dependencies/freertos/FreeRTOSv10.4.1/FreeRTOS/Source/stream_buffer.c ****             pxStreamBuffer->xTail = xOriginalTail;
 1515              		.loc 1 892 0
 1516 005a 3B6A     		ldr	r3, [r7, #32]
ARM GAS  /var/folders/_8/_cw6l3nd335f_j6cn6z79m4m0000gn/T//ccSM72RG.s 			page 47


 1517 005c BA69     		ldr	r2, [r7, #24]
 1518 005e 1A60     		str	r2, [r3]
 1519 0060 11E0     		b	.L102
 1520              	.L98:
 893:../../../../dependencies/freertos/FreeRTOSv10.4.1/FreeRTOS/Source/stream_buffer.c ****         }
 894:../../../../dependencies/freertos/FreeRTOSv10.4.1/FreeRTOS/Source/stream_buffer.c ****         else
 895:../../../../dependencies/freertos/FreeRTOSv10.4.1/FreeRTOS/Source/stream_buffer.c ****         {
 896:../../../../dependencies/freertos/FreeRTOSv10.4.1/FreeRTOS/Source/stream_buffer.c ****             /* The minimum amount of bytes in a message buffer is
 897:../../../../dependencies/freertos/FreeRTOSv10.4.1/FreeRTOS/Source/stream_buffer.c ****              * ( sbBYTES_TO_STORE_MESSAGE_LENGTH + 1 ), so if xBytesAvailable is
 898:../../../../dependencies/freertos/FreeRTOSv10.4.1/FreeRTOS/Source/stream_buffer.c ****              * less than sbBYTES_TO_STORE_MESSAGE_LENGTH the only other valid
 899:../../../../dependencies/freertos/FreeRTOSv10.4.1/FreeRTOS/Source/stream_buffer.c ****              * value is 0. */
 900:../../../../dependencies/freertos/FreeRTOSv10.4.1/FreeRTOS/Source/stream_buffer.c ****             configASSERT( xBytesAvailable == 0 );
 1521              		.loc 1 900 0
 1522 0062 FB69     		ldr	r3, [r7, #28]
 1523 0064 002B     		cmp	r3, #0
 1524 0066 09D0     		beq	.L100
 1525              	.LBB126:
 1526              	.LBB127:
 197:../../../../dependencies/freertos/FreeRTOSv10.4.1/FreeRTOS/Source/portable/GCC/ARM_CM4F/portmacro.h ****         (
 1527              		.loc 2 197 0 discriminator 1
 1528              	@ 197 "../../../../dependencies/freertos/FreeRTOSv10.4.1/FreeRTOS/Source/portable/GCC/ARM_CM4F/port
 1529 0068 4FF05003 			mov r3, #80												
 1530 006c 83F31188 		msr basepri, r3											
 1531 0070 BFF36F8F 		isb														
 1532 0074 BFF34F8F 		dsb														
 1533              	
 1534              	@ 0 "" 2
 1535              		.thumb
 1536 0078 3B61     		str	r3, [r7, #16]
 1537              	.L101:
 1538              	.LBE127:
 1539              	.LBE126:
 1540              		.loc 1 900 0 discriminator 2
 1541 007a FEE7     		b	.L101
 1542              	.L100:
 901:../../../../dependencies/freertos/FreeRTOSv10.4.1/FreeRTOS/Source/stream_buffer.c ****             xReturn = 0;
 1543              		.loc 1 901 0
 1544 007c 0023     		movs	r3, #0
 1545 007e 7B62     		str	r3, [r7, #36]
 1546 0080 01E0     		b	.L102
 1547              	.L97:
 902:../../../../dependencies/freertos/FreeRTOSv10.4.1/FreeRTOS/Source/stream_buffer.c ****         }
 903:../../../../dependencies/freertos/FreeRTOSv10.4.1/FreeRTOS/Source/stream_buffer.c ****     }
 904:../../../../dependencies/freertos/FreeRTOSv10.4.1/FreeRTOS/Source/stream_buffer.c ****     else
 905:../../../../dependencies/freertos/FreeRTOSv10.4.1/FreeRTOS/Source/stream_buffer.c ****     {
 906:../../../../dependencies/freertos/FreeRTOSv10.4.1/FreeRTOS/Source/stream_buffer.c ****         xReturn = 0;
 1548              		.loc 1 906 0
 1549 0082 0023     		movs	r3, #0
 1550 0084 7B62     		str	r3, [r7, #36]
 1551              	.L102:
 907:../../../../dependencies/freertos/FreeRTOSv10.4.1/FreeRTOS/Source/stream_buffer.c ****     }
 908:../../../../dependencies/freertos/FreeRTOSv10.4.1/FreeRTOS/Source/stream_buffer.c **** 
 909:../../../../dependencies/freertos/FreeRTOSv10.4.1/FreeRTOS/Source/stream_buffer.c ****     return xReturn;
 1552              		.loc 1 909 0
 1553 0086 7B6A     		ldr	r3, [r7, #36]
 910:../../../../dependencies/freertos/FreeRTOSv10.4.1/FreeRTOS/Source/stream_buffer.c **** }
 1554              		.loc 1 910 0
ARM GAS  /var/folders/_8/_cw6l3nd335f_j6cn6z79m4m0000gn/T//ccSM72RG.s 			page 48


 1555 0088 1846     		mov	r0, r3
 1556 008a 2837     		adds	r7, r7, #40
 1557              	.LCFI55:
 1558              		.cfi_def_cfa_offset 8
 1559 008c BD46     		mov	sp, r7
 1560              	.LCFI56:
 1561              		.cfi_def_cfa_register 13
 1562              		@ sp needed
 1563 008e 80BD     		pop	{r7, pc}
 1564              		.cfi_endproc
 1565              	.LFE15:
 1567              		.section	.text.xStreamBufferReceiveFromISR,"ax",%progbits
 1568              		.align	2
 1569              		.global	xStreamBufferReceiveFromISR
 1570              		.thumb
 1571              		.thumb_func
 1573              	xStreamBufferReceiveFromISR:
 1574              	.LFB16:
 911:../../../../dependencies/freertos/FreeRTOSv10.4.1/FreeRTOS/Source/stream_buffer.c **** /*-----------------------------------------------------------*/
 912:../../../../dependencies/freertos/FreeRTOSv10.4.1/FreeRTOS/Source/stream_buffer.c **** 
 913:../../../../dependencies/freertos/FreeRTOSv10.4.1/FreeRTOS/Source/stream_buffer.c **** size_t xStreamBufferReceiveFromISR( StreamBufferHandle_t xStreamBuffer,
 914:../../../../dependencies/freertos/FreeRTOSv10.4.1/FreeRTOS/Source/stream_buffer.c ****                                     void * pvRxData,
 915:../../../../dependencies/freertos/FreeRTOSv10.4.1/FreeRTOS/Source/stream_buffer.c ****                                     size_t xBufferLengthBytes,
 916:../../../../dependencies/freertos/FreeRTOSv10.4.1/FreeRTOS/Source/stream_buffer.c ****                                     BaseType_t * const pxHigherPriorityTaskWoken )
 917:../../../../dependencies/freertos/FreeRTOSv10.4.1/FreeRTOS/Source/stream_buffer.c **** {
 1575              		.loc 1 917 0
 1576              		.cfi_startproc
 1577              		@ args = 0, pretend = 0, frame = 56
 1578              		@ frame_needed = 1, uses_anonymous_args = 0
 1579 0000 80B5     		push	{r7, lr}
 1580              	.LCFI57:
 1581              		.cfi_def_cfa_offset 8
 1582              		.cfi_offset 7, -8
 1583              		.cfi_offset 14, -4
 1584 0002 90B0     		sub	sp, sp, #64
 1585              	.LCFI58:
 1586              		.cfi_def_cfa_offset 72
 1587 0004 02AF     		add	r7, sp, #8
 1588              	.LCFI59:
 1589              		.cfi_def_cfa 7, 64
 1590 0006 F860     		str	r0, [r7, #12]
 1591 0008 B960     		str	r1, [r7, #8]
 1592 000a 7A60     		str	r2, [r7, #4]
 1593 000c 3B60     		str	r3, [r7]
 918:../../../../dependencies/freertos/FreeRTOSv10.4.1/FreeRTOS/Source/stream_buffer.c ****     StreamBuffer_t * const pxStreamBuffer = xStreamBuffer;
 1594              		.loc 1 918 0
 1595 000e FB68     		ldr	r3, [r7, #12]
 1596 0010 FB62     		str	r3, [r7, #44]
 919:../../../../dependencies/freertos/FreeRTOSv10.4.1/FreeRTOS/Source/stream_buffer.c ****     size_t xReceivedLength = 0, xBytesAvailable, xBytesToStoreMessageLength;
 1597              		.loc 1 919 0
 1598 0012 0023     		movs	r3, #0
 1599 0014 7B63     		str	r3, [r7, #52]
 920:../../../../dependencies/freertos/FreeRTOSv10.4.1/FreeRTOS/Source/stream_buffer.c **** 
 921:../../../../dependencies/freertos/FreeRTOSv10.4.1/FreeRTOS/Source/stream_buffer.c ****     configASSERT( pvRxData );
 1600              		.loc 1 921 0
 1601 0016 BB68     		ldr	r3, [r7, #8]
 1602 0018 002B     		cmp	r3, #0
ARM GAS  /var/folders/_8/_cw6l3nd335f_j6cn6z79m4m0000gn/T//ccSM72RG.s 			page 49


 1603 001a 09D1     		bne	.L105
 1604              	.LBB128:
 1605              	.LBB129:
 197:../../../../dependencies/freertos/FreeRTOSv10.4.1/FreeRTOS/Source/portable/GCC/ARM_CM4F/portmacro.h ****         (
 1606              		.loc 2 197 0 discriminator 1
 1607              	@ 197 "../../../../dependencies/freertos/FreeRTOSv10.4.1/FreeRTOS/Source/portable/GCC/ARM_CM4F/port
 1608 001c 4FF05003 			mov r3, #80												
 1609 0020 83F31188 		msr basepri, r3											
 1610 0024 BFF36F8F 		isb														
 1611 0028 BFF34F8F 		dsb														
 1612              	
 1613              	@ 0 "" 2
 1614              		.thumb
 1615 002c 3B62     		str	r3, [r7, #32]
 1616              	.L106:
 1617              	.LBE129:
 1618              	.LBE128:
 1619              		.loc 1 921 0 discriminator 1
 1620 002e FEE7     		b	.L106
 1621              	.L105:
 922:../../../../dependencies/freertos/FreeRTOSv10.4.1/FreeRTOS/Source/stream_buffer.c ****     configASSERT( pxStreamBuffer );
 1622              		.loc 1 922 0
 1623 0030 FB6A     		ldr	r3, [r7, #44]
 1624 0032 002B     		cmp	r3, #0
 1625 0034 09D1     		bne	.L107
 1626              	.LBB130:
 1627              	.LBB131:
 197:../../../../dependencies/freertos/FreeRTOSv10.4.1/FreeRTOS/Source/portable/GCC/ARM_CM4F/portmacro.h ****         (
 1628              		.loc 2 197 0 discriminator 1
 1629              	@ 197 "../../../../dependencies/freertos/FreeRTOSv10.4.1/FreeRTOS/Source/portable/GCC/ARM_CM4F/port
 1630 0036 4FF05003 			mov r3, #80												
 1631 003a 83F31188 		msr basepri, r3											
 1632 003e BFF36F8F 		isb														
 1633 0042 BFF34F8F 		dsb														
 1634              	
 1635              	@ 0 "" 2
 1636              		.thumb
 1637 0046 FB61     		str	r3, [r7, #28]
 1638              	.L108:
 1639              	.LBE131:
 1640              	.LBE130:
 1641              		.loc 1 922 0 discriminator 2
 1642 0048 FEE7     		b	.L108
 1643              	.L107:
 923:../../../../dependencies/freertos/FreeRTOSv10.4.1/FreeRTOS/Source/stream_buffer.c **** 
 924:../../../../dependencies/freertos/FreeRTOSv10.4.1/FreeRTOS/Source/stream_buffer.c ****     /* This receive function is used by both message buffers, which store
 925:../../../../dependencies/freertos/FreeRTOSv10.4.1/FreeRTOS/Source/stream_buffer.c ****      * discrete messages, and stream buffers, which store a continuous stream of
 926:../../../../dependencies/freertos/FreeRTOSv10.4.1/FreeRTOS/Source/stream_buffer.c ****      * bytes.  Discrete messages include an additional
 927:../../../../dependencies/freertos/FreeRTOSv10.4.1/FreeRTOS/Source/stream_buffer.c ****      * sbBYTES_TO_STORE_MESSAGE_LENGTH bytes that hold the length of the
 928:../../../../dependencies/freertos/FreeRTOSv10.4.1/FreeRTOS/Source/stream_buffer.c ****      * message. */
 929:../../../../dependencies/freertos/FreeRTOSv10.4.1/FreeRTOS/Source/stream_buffer.c ****     if( ( pxStreamBuffer->ucFlags & sbFLAGS_IS_MESSAGE_BUFFER ) != ( uint8_t ) 0 )
 1644              		.loc 1 929 0
 1645 004a FB6A     		ldr	r3, [r7, #44]
 1646 004c 1B7F     		ldrb	r3, [r3, #28]	@ zero_extendqisi2
 1647 004e 03F00103 		and	r3, r3, #1
 1648 0052 002B     		cmp	r3, #0
 1649 0054 02D0     		beq	.L109
ARM GAS  /var/folders/_8/_cw6l3nd335f_j6cn6z79m4m0000gn/T//ccSM72RG.s 			page 50


 930:../../../../dependencies/freertos/FreeRTOSv10.4.1/FreeRTOS/Source/stream_buffer.c ****     {
 931:../../../../dependencies/freertos/FreeRTOSv10.4.1/FreeRTOS/Source/stream_buffer.c ****         xBytesToStoreMessageLength = sbBYTES_TO_STORE_MESSAGE_LENGTH;
 1650              		.loc 1 931 0
 1651 0056 0423     		movs	r3, #4
 1652 0058 3B63     		str	r3, [r7, #48]
 1653 005a 01E0     		b	.L110
 1654              	.L109:
 932:../../../../dependencies/freertos/FreeRTOSv10.4.1/FreeRTOS/Source/stream_buffer.c ****     }
 933:../../../../dependencies/freertos/FreeRTOSv10.4.1/FreeRTOS/Source/stream_buffer.c ****     else
 934:../../../../dependencies/freertos/FreeRTOSv10.4.1/FreeRTOS/Source/stream_buffer.c ****     {
 935:../../../../dependencies/freertos/FreeRTOSv10.4.1/FreeRTOS/Source/stream_buffer.c ****         xBytesToStoreMessageLength = 0;
 1655              		.loc 1 935 0
 1656 005c 0023     		movs	r3, #0
 1657 005e 3B63     		str	r3, [r7, #48]
 1658              	.L110:
 936:../../../../dependencies/freertos/FreeRTOSv10.4.1/FreeRTOS/Source/stream_buffer.c ****     }
 937:../../../../dependencies/freertos/FreeRTOSv10.4.1/FreeRTOS/Source/stream_buffer.c **** 
 938:../../../../dependencies/freertos/FreeRTOSv10.4.1/FreeRTOS/Source/stream_buffer.c ****     xBytesAvailable = prvBytesInBuffer( pxStreamBuffer );
 1659              		.loc 1 938 0
 1660 0060 F86A     		ldr	r0, [r7, #44]
 1661 0062 FFF7FEFF 		bl	prvBytesInBuffer
 1662 0066 B862     		str	r0, [r7, #40]
 939:../../../../dependencies/freertos/FreeRTOSv10.4.1/FreeRTOS/Source/stream_buffer.c **** 
 940:../../../../dependencies/freertos/FreeRTOSv10.4.1/FreeRTOS/Source/stream_buffer.c ****     /* Whether receiving a discrete message (where xBytesToStoreMessageLength
 941:../../../../dependencies/freertos/FreeRTOSv10.4.1/FreeRTOS/Source/stream_buffer.c ****      * holds the number of bytes used to store the message length) or a stream of
 942:../../../../dependencies/freertos/FreeRTOSv10.4.1/FreeRTOS/Source/stream_buffer.c ****      * bytes (where xBytesToStoreMessageLength is zero), the number of bytes
 943:../../../../dependencies/freertos/FreeRTOSv10.4.1/FreeRTOS/Source/stream_buffer.c ****      * available must be greater than xBytesToStoreMessageLength to be able to
 944:../../../../dependencies/freertos/FreeRTOSv10.4.1/FreeRTOS/Source/stream_buffer.c ****      * read bytes from the buffer. */
 945:../../../../dependencies/freertos/FreeRTOSv10.4.1/FreeRTOS/Source/stream_buffer.c ****     if( xBytesAvailable > xBytesToStoreMessageLength )
 1663              		.loc 1 945 0
 1664 0068 BA6A     		ldr	r2, [r7, #40]
 1665 006a 3B6B     		ldr	r3, [r7, #48]
 1666 006c 9A42     		cmp	r2, r3
 1667 006e 31D9     		bls	.L111
 946:../../../../dependencies/freertos/FreeRTOSv10.4.1/FreeRTOS/Source/stream_buffer.c ****     {
 947:../../../../dependencies/freertos/FreeRTOSv10.4.1/FreeRTOS/Source/stream_buffer.c ****         xReceivedLength = prvReadMessageFromBuffer( pxStreamBuffer, pvRxData, xBufferLengthBytes, x
 1668              		.loc 1 947 0
 1669 0070 3B6B     		ldr	r3, [r7, #48]
 1670 0072 0093     		str	r3, [sp]
 1671 0074 F86A     		ldr	r0, [r7, #44]
 1672 0076 B968     		ldr	r1, [r7, #8]
 1673 0078 7A68     		ldr	r2, [r7, #4]
 1674 007a BB6A     		ldr	r3, [r7, #40]
 1675 007c FFF7FEFF 		bl	prvReadMessageFromBuffer
 1676 0080 7863     		str	r0, [r7, #52]
 948:../../../../dependencies/freertos/FreeRTOSv10.4.1/FreeRTOS/Source/stream_buffer.c **** 
 949:../../../../dependencies/freertos/FreeRTOSv10.4.1/FreeRTOS/Source/stream_buffer.c ****         /* Was a task waiting for space in the buffer? */
 950:../../../../dependencies/freertos/FreeRTOSv10.4.1/FreeRTOS/Source/stream_buffer.c ****         if( xReceivedLength != ( size_t ) 0 )
 1677              		.loc 1 950 0
 1678 0082 7B6B     		ldr	r3, [r7, #52]
 1679 0084 002B     		cmp	r3, #0
 1680 0086 25D0     		beq	.L111
 1681              	.LBB132:
 1682              	.LBB133:
 1683              	.LBB134:
 213:../../../../dependencies/freertos/FreeRTOSv10.4.1/FreeRTOS/Source/portable/GCC/ARM_CM4F/portmacro.h ****         (
 1684              		.loc 2 213 0
ARM GAS  /var/folders/_8/_cw6l3nd335f_j6cn6z79m4m0000gn/T//ccSM72RG.s 			page 51


 1685              	@ 213 "../../../../dependencies/freertos/FreeRTOSv10.4.1/FreeRTOS/Source/portable/GCC/ARM_CM4F/port
 1686 0088 EFF31182 			mrs r2, basepri											
 1687 008c 4FF05003 		mov r3, #80												
 1688 0090 83F31188 		msr basepri, r3											
 1689 0094 BFF36F8F 		isb														
 1690 0098 BFF34F8F 		dsb														
 1691              	
 1692              	@ 0 "" 2
 1693              		.thumb
 1694 009c BA61     		str	r2, [r7, #24]
 1695 009e 7B61     		str	r3, [r7, #20]
 225:../../../../dependencies/freertos/FreeRTOSv10.4.1/FreeRTOS/Source/portable/GCC/ARM_CM4F/portmacro.h ****     }
 1696              		.loc 2 225 0
 1697 00a0 BB69     		ldr	r3, [r7, #24]
 1698              	.LBE134:
 1699              	.LBE133:
 951:../../../../dependencies/freertos/FreeRTOSv10.4.1/FreeRTOS/Source/stream_buffer.c ****         {
 952:../../../../dependencies/freertos/FreeRTOSv10.4.1/FreeRTOS/Source/stream_buffer.c ****             sbRECEIVE_COMPLETED_FROM_ISR( pxStreamBuffer, pxHigherPriorityTaskWoken );
 1700              		.loc 1 952 0
 1701 00a2 7B62     		str	r3, [r7, #36]
 1702 00a4 FB6A     		ldr	r3, [r7, #44]
 1703 00a6 5B69     		ldr	r3, [r3, #20]
 1704 00a8 002B     		cmp	r3, #0
 1705 00aa 0ED0     		beq	.L113
 1706              		.loc 1 952 0 is_stmt 0 discriminator 1
 1707 00ac FB6A     		ldr	r3, [r7, #44]
 1708 00ae 5A69     		ldr	r2, [r3, #20]
 1709 00b0 0023     		movs	r3, #0
 1710 00b2 0093     		str	r3, [sp]
 1711 00b4 3B68     		ldr	r3, [r7]
 1712 00b6 0193     		str	r3, [sp, #4]
 1713 00b8 1046     		mov	r0, r2
 1714 00ba 0021     		movs	r1, #0
 1715 00bc 0022     		movs	r2, #0
 1716 00be 0023     		movs	r3, #0
 1717 00c0 FFF7FEFF 		bl	xTaskGenericNotifyFromISR
 1718 00c4 FB6A     		ldr	r3, [r7, #44]
 1719 00c6 0022     		movs	r2, #0
 1720 00c8 5A61     		str	r2, [r3, #20]
 1721              	.L113:
 1722 00ca 7B6A     		ldr	r3, [r7, #36]
 1723 00cc 3B61     		str	r3, [r7, #16]
 1724              	.LBB135:
 1725              	.LBB136:
 1726              		.loc 2 231 0 is_stmt 1 discriminator 3
 1727 00ce 3B69     		ldr	r3, [r7, #16]
 1728              	@ 231 "../../../../dependencies/freertos/FreeRTOSv10.4.1/FreeRTOS/Source/portable/GCC/ARM_CM4F/port
 1729 00d0 83F31188 			msr basepri, r3	
 1730              	@ 0 "" 2
 1731              		.thumb
 1732              	.L111:
 1733              	.LBE136:
 1734              	.LBE135:
 1735              	.LBE132:
 953:../../../../dependencies/freertos/FreeRTOSv10.4.1/FreeRTOS/Source/stream_buffer.c ****         }
 954:../../../../dependencies/freertos/FreeRTOSv10.4.1/FreeRTOS/Source/stream_buffer.c ****         else
 955:../../../../dependencies/freertos/FreeRTOSv10.4.1/FreeRTOS/Source/stream_buffer.c ****         {
ARM GAS  /var/folders/_8/_cw6l3nd335f_j6cn6z79m4m0000gn/T//ccSM72RG.s 			page 52


 956:../../../../dependencies/freertos/FreeRTOSv10.4.1/FreeRTOS/Source/stream_buffer.c ****             mtCOVERAGE_TEST_MARKER();
 957:../../../../dependencies/freertos/FreeRTOSv10.4.1/FreeRTOS/Source/stream_buffer.c ****         }
 958:../../../../dependencies/freertos/FreeRTOSv10.4.1/FreeRTOS/Source/stream_buffer.c ****     }
 959:../../../../dependencies/freertos/FreeRTOSv10.4.1/FreeRTOS/Source/stream_buffer.c ****     else
 960:../../../../dependencies/freertos/FreeRTOSv10.4.1/FreeRTOS/Source/stream_buffer.c ****     {
 961:../../../../dependencies/freertos/FreeRTOSv10.4.1/FreeRTOS/Source/stream_buffer.c ****         mtCOVERAGE_TEST_MARKER();
 962:../../../../dependencies/freertos/FreeRTOSv10.4.1/FreeRTOS/Source/stream_buffer.c ****     }
 963:../../../../dependencies/freertos/FreeRTOSv10.4.1/FreeRTOS/Source/stream_buffer.c **** 
 964:../../../../dependencies/freertos/FreeRTOSv10.4.1/FreeRTOS/Source/stream_buffer.c ****     traceSTREAM_BUFFER_RECEIVE_FROM_ISR( xStreamBuffer, xReceivedLength );
 965:../../../../dependencies/freertos/FreeRTOSv10.4.1/FreeRTOS/Source/stream_buffer.c **** 
 966:../../../../dependencies/freertos/FreeRTOSv10.4.1/FreeRTOS/Source/stream_buffer.c ****     return xReceivedLength;
 1736              		.loc 1 966 0
 1737 00d4 7B6B     		ldr	r3, [r7, #52]
 967:../../../../dependencies/freertos/FreeRTOSv10.4.1/FreeRTOS/Source/stream_buffer.c **** }
 1738              		.loc 1 967 0
 1739 00d6 1846     		mov	r0, r3
 1740 00d8 3837     		adds	r7, r7, #56
 1741              	.LCFI60:
 1742              		.cfi_def_cfa_offset 8
 1743 00da BD46     		mov	sp, r7
 1744              	.LCFI61:
 1745              		.cfi_def_cfa_register 13
 1746              		@ sp needed
 1747 00dc 80BD     		pop	{r7, pc}
 1748              		.cfi_endproc
 1749              	.LFE16:
 1751 00de 00BF     		.section	.text.prvReadMessageFromBuffer,"ax",%progbits
 1752              		.align	2
 1753              		.thumb
 1754              		.thumb_func
 1756              	prvReadMessageFromBuffer:
 1757              	.LFB17:
 968:../../../../dependencies/freertos/FreeRTOSv10.4.1/FreeRTOS/Source/stream_buffer.c **** /*-----------------------------------------------------------*/
 969:../../../../dependencies/freertos/FreeRTOSv10.4.1/FreeRTOS/Source/stream_buffer.c **** 
 970:../../../../dependencies/freertos/FreeRTOSv10.4.1/FreeRTOS/Source/stream_buffer.c **** static size_t prvReadMessageFromBuffer( StreamBuffer_t * pxStreamBuffer,
 971:../../../../dependencies/freertos/FreeRTOSv10.4.1/FreeRTOS/Source/stream_buffer.c ****                                         void * pvRxData,
 972:../../../../dependencies/freertos/FreeRTOSv10.4.1/FreeRTOS/Source/stream_buffer.c ****                                         size_t xBufferLengthBytes,
 973:../../../../dependencies/freertos/FreeRTOSv10.4.1/FreeRTOS/Source/stream_buffer.c ****                                         size_t xBytesAvailable,
 974:../../../../dependencies/freertos/FreeRTOSv10.4.1/FreeRTOS/Source/stream_buffer.c ****                                         size_t xBytesToStoreMessageLength )
 975:../../../../dependencies/freertos/FreeRTOSv10.4.1/FreeRTOS/Source/stream_buffer.c **** {
 1758              		.loc 1 975 0
 1759              		.cfi_startproc
 1760              		@ args = 4, pretend = 0, frame = 32
 1761              		@ frame_needed = 1, uses_anonymous_args = 0
 1762 0000 80B5     		push	{r7, lr}
 1763              	.LCFI62:
 1764              		.cfi_def_cfa_offset 8
 1765              		.cfi_offset 7, -8
 1766              		.cfi_offset 14, -4
 1767 0002 88B0     		sub	sp, sp, #32
 1768              	.LCFI63:
 1769              		.cfi_def_cfa_offset 40
 1770 0004 00AF     		add	r7, sp, #0
 1771              	.LCFI64:
 1772              		.cfi_def_cfa_register 7
 1773 0006 F860     		str	r0, [r7, #12]
 1774 0008 B960     		str	r1, [r7, #8]
ARM GAS  /var/folders/_8/_cw6l3nd335f_j6cn6z79m4m0000gn/T//ccSM72RG.s 			page 53


 1775 000a 7A60     		str	r2, [r7, #4]
 1776 000c 3B60     		str	r3, [r7]
 976:../../../../dependencies/freertos/FreeRTOSv10.4.1/FreeRTOS/Source/stream_buffer.c ****     size_t xOriginalTail, xReceivedLength, xNextMessageLength;
 977:../../../../dependencies/freertos/FreeRTOSv10.4.1/FreeRTOS/Source/stream_buffer.c ****     configMESSAGE_BUFFER_LENGTH_TYPE xTempNextMessageLength;
 978:../../../../dependencies/freertos/FreeRTOSv10.4.1/FreeRTOS/Source/stream_buffer.c **** 
 979:../../../../dependencies/freertos/FreeRTOSv10.4.1/FreeRTOS/Source/stream_buffer.c ****     if( xBytesToStoreMessageLength != ( size_t ) 0 )
 1777              		.loc 1 979 0
 1778 000e BB6A     		ldr	r3, [r7, #40]
 1779 0010 002B     		cmp	r3, #0
 1780 0012 1AD0     		beq	.L116
 980:../../../../dependencies/freertos/FreeRTOSv10.4.1/FreeRTOS/Source/stream_buffer.c ****     {
 981:../../../../dependencies/freertos/FreeRTOSv10.4.1/FreeRTOS/Source/stream_buffer.c ****         /* A discrete message is being received.  First receive the length
 982:../../../../dependencies/freertos/FreeRTOSv10.4.1/FreeRTOS/Source/stream_buffer.c ****          * of the message.  A copy of the tail is stored so the buffer can be
 983:../../../../dependencies/freertos/FreeRTOSv10.4.1/FreeRTOS/Source/stream_buffer.c ****          * returned to its prior state if the length of the message is too
 984:../../../../dependencies/freertos/FreeRTOSv10.4.1/FreeRTOS/Source/stream_buffer.c ****          * large for the provided buffer. */
 985:../../../../dependencies/freertos/FreeRTOSv10.4.1/FreeRTOS/Source/stream_buffer.c ****         xOriginalTail = pxStreamBuffer->xTail;
 1781              		.loc 1 985 0
 1782 0014 FB68     		ldr	r3, [r7, #12]
 1783 0016 1B68     		ldr	r3, [r3]
 1784 0018 BB61     		str	r3, [r7, #24]
 986:../../../../dependencies/freertos/FreeRTOSv10.4.1/FreeRTOS/Source/stream_buffer.c ****         ( void ) prvReadBytesFromBuffer( pxStreamBuffer, ( uint8_t * ) &xTempNextMessageLength, xBy
 1785              		.loc 1 986 0
 1786 001a 07F11003 		add	r3, r7, #16
 1787 001e F868     		ldr	r0, [r7, #12]
 1788 0020 1946     		mov	r1, r3
 1789 0022 BA6A     		ldr	r2, [r7, #40]
 1790 0024 3B68     		ldr	r3, [r7]
 1791 0026 FFF7FEFF 		bl	prvReadBytesFromBuffer
 987:../../../../dependencies/freertos/FreeRTOSv10.4.1/FreeRTOS/Source/stream_buffer.c ****         xNextMessageLength = ( size_t ) xTempNextMessageLength;
 1792              		.loc 1 987 0
 1793 002a 3B69     		ldr	r3, [r7, #16]
 1794 002c FB61     		str	r3, [r7, #28]
 988:../../../../dependencies/freertos/FreeRTOSv10.4.1/FreeRTOS/Source/stream_buffer.c **** 
 989:../../../../dependencies/freertos/FreeRTOSv10.4.1/FreeRTOS/Source/stream_buffer.c ****         /* Reduce the number of bytes available by the number of bytes just
 990:../../../../dependencies/freertos/FreeRTOSv10.4.1/FreeRTOS/Source/stream_buffer.c ****          * read out. */
 991:../../../../dependencies/freertos/FreeRTOSv10.4.1/FreeRTOS/Source/stream_buffer.c ****         xBytesAvailable -= xBytesToStoreMessageLength;
 1795              		.loc 1 991 0
 1796 002e 3A68     		ldr	r2, [r7]
 1797 0030 BB6A     		ldr	r3, [r7, #40]
 1798 0032 D31A     		subs	r3, r2, r3
 1799 0034 3B60     		str	r3, [r7]
 992:../../../../dependencies/freertos/FreeRTOSv10.4.1/FreeRTOS/Source/stream_buffer.c **** 
 993:../../../../dependencies/freertos/FreeRTOSv10.4.1/FreeRTOS/Source/stream_buffer.c ****         /* Check there is enough space in the buffer provided by the
 994:../../../../dependencies/freertos/FreeRTOSv10.4.1/FreeRTOS/Source/stream_buffer.c ****          * user. */
 995:../../../../dependencies/freertos/FreeRTOSv10.4.1/FreeRTOS/Source/stream_buffer.c ****         if( xNextMessageLength > xBufferLengthBytes )
 1800              		.loc 1 995 0
 1801 0036 FA69     		ldr	r2, [r7, #28]
 1802 0038 7B68     		ldr	r3, [r7, #4]
 1803 003a 9A42     		cmp	r2, r3
 1804 003c 07D9     		bls	.L117
 996:../../../../dependencies/freertos/FreeRTOSv10.4.1/FreeRTOS/Source/stream_buffer.c ****         {
 997:../../../../dependencies/freertos/FreeRTOSv10.4.1/FreeRTOS/Source/stream_buffer.c ****             /* The user has provided insufficient space to read the message
 998:../../../../dependencies/freertos/FreeRTOSv10.4.1/FreeRTOS/Source/stream_buffer.c ****              * so return the buffer to its previous state (so the length of
 999:../../../../dependencies/freertos/FreeRTOSv10.4.1/FreeRTOS/Source/stream_buffer.c ****              * the message is in the buffer again). */
1000:../../../../dependencies/freertos/FreeRTOSv10.4.1/FreeRTOS/Source/stream_buffer.c ****             pxStreamBuffer->xTail = xOriginalTail;
 1805              		.loc 1 1000 0
 1806 003e FB68     		ldr	r3, [r7, #12]
ARM GAS  /var/folders/_8/_cw6l3nd335f_j6cn6z79m4m0000gn/T//ccSM72RG.s 			page 54


 1807 0040 BA69     		ldr	r2, [r7, #24]
 1808 0042 1A60     		str	r2, [r3]
1001:../../../../dependencies/freertos/FreeRTOSv10.4.1/FreeRTOS/Source/stream_buffer.c ****             xNextMessageLength = 0;
 1809              		.loc 1 1001 0
 1810 0044 0023     		movs	r3, #0
 1811 0046 FB61     		str	r3, [r7, #28]
 1812 0048 01E0     		b	.L117
 1813              	.L116:
1002:../../../../dependencies/freertos/FreeRTOSv10.4.1/FreeRTOS/Source/stream_buffer.c ****         }
1003:../../../../dependencies/freertos/FreeRTOSv10.4.1/FreeRTOS/Source/stream_buffer.c ****         else
1004:../../../../dependencies/freertos/FreeRTOSv10.4.1/FreeRTOS/Source/stream_buffer.c ****         {
1005:../../../../dependencies/freertos/FreeRTOSv10.4.1/FreeRTOS/Source/stream_buffer.c ****             mtCOVERAGE_TEST_MARKER();
1006:../../../../dependencies/freertos/FreeRTOSv10.4.1/FreeRTOS/Source/stream_buffer.c ****         }
1007:../../../../dependencies/freertos/FreeRTOSv10.4.1/FreeRTOS/Source/stream_buffer.c ****     }
1008:../../../../dependencies/freertos/FreeRTOSv10.4.1/FreeRTOS/Source/stream_buffer.c ****     else
1009:../../../../dependencies/freertos/FreeRTOSv10.4.1/FreeRTOS/Source/stream_buffer.c ****     {
1010:../../../../dependencies/freertos/FreeRTOSv10.4.1/FreeRTOS/Source/stream_buffer.c ****         /* A stream of bytes is being received (as opposed to a discrete
1011:../../../../dependencies/freertos/FreeRTOSv10.4.1/FreeRTOS/Source/stream_buffer.c ****          * message), so read as many bytes as possible. */
1012:../../../../dependencies/freertos/FreeRTOSv10.4.1/FreeRTOS/Source/stream_buffer.c ****         xNextMessageLength = xBufferLengthBytes;
 1814              		.loc 1 1012 0
 1815 004a 7B68     		ldr	r3, [r7, #4]
 1816 004c FB61     		str	r3, [r7, #28]
 1817              	.L117:
1013:../../../../dependencies/freertos/FreeRTOSv10.4.1/FreeRTOS/Source/stream_buffer.c ****     }
1014:../../../../dependencies/freertos/FreeRTOSv10.4.1/FreeRTOS/Source/stream_buffer.c **** 
1015:../../../../dependencies/freertos/FreeRTOSv10.4.1/FreeRTOS/Source/stream_buffer.c ****     /* Read the actual data. */
1016:../../../../dependencies/freertos/FreeRTOSv10.4.1/FreeRTOS/Source/stream_buffer.c ****     xReceivedLength = prvReadBytesFromBuffer( pxStreamBuffer, ( uint8_t * ) pvRxData, xNextMessageL
 1818              		.loc 1 1016 0
 1819 004e F868     		ldr	r0, [r7, #12]
 1820 0050 B968     		ldr	r1, [r7, #8]
 1821 0052 FA69     		ldr	r2, [r7, #28]
 1822 0054 3B68     		ldr	r3, [r7]
 1823 0056 FFF7FEFF 		bl	prvReadBytesFromBuffer
 1824 005a 7861     		str	r0, [r7, #20]
1017:../../../../dependencies/freertos/FreeRTOSv10.4.1/FreeRTOS/Source/stream_buffer.c **** 
1018:../../../../dependencies/freertos/FreeRTOSv10.4.1/FreeRTOS/Source/stream_buffer.c ****     return xReceivedLength;
 1825              		.loc 1 1018 0
 1826 005c 7B69     		ldr	r3, [r7, #20]
1019:../../../../dependencies/freertos/FreeRTOSv10.4.1/FreeRTOS/Source/stream_buffer.c **** }
 1827              		.loc 1 1019 0
 1828 005e 1846     		mov	r0, r3
 1829 0060 2037     		adds	r7, r7, #32
 1830              	.LCFI65:
 1831              		.cfi_def_cfa_offset 8
 1832 0062 BD46     		mov	sp, r7
 1833              	.LCFI66:
 1834              		.cfi_def_cfa_register 13
 1835              		@ sp needed
 1836 0064 80BD     		pop	{r7, pc}
 1837              		.cfi_endproc
 1838              	.LFE17:
 1840 0066 00BF     		.section	.text.xStreamBufferIsEmpty,"ax",%progbits
 1841              		.align	2
 1842              		.global	xStreamBufferIsEmpty
 1843              		.thumb
 1844              		.thumb_func
 1846              	xStreamBufferIsEmpty:
ARM GAS  /var/folders/_8/_cw6l3nd335f_j6cn6z79m4m0000gn/T//ccSM72RG.s 			page 55


 1847              	.LFB18:
1020:../../../../dependencies/freertos/FreeRTOSv10.4.1/FreeRTOS/Source/stream_buffer.c **** /*-----------------------------------------------------------*/
1021:../../../../dependencies/freertos/FreeRTOSv10.4.1/FreeRTOS/Source/stream_buffer.c **** 
1022:../../../../dependencies/freertos/FreeRTOSv10.4.1/FreeRTOS/Source/stream_buffer.c **** BaseType_t xStreamBufferIsEmpty( StreamBufferHandle_t xStreamBuffer )
1023:../../../../dependencies/freertos/FreeRTOSv10.4.1/FreeRTOS/Source/stream_buffer.c **** {
 1848              		.loc 1 1023 0
 1849              		.cfi_startproc
 1850              		@ args = 0, pretend = 0, frame = 24
 1851              		@ frame_needed = 1, uses_anonymous_args = 0
 1852              		@ link register save eliminated.
 1853 0000 80B4     		push	{r7}
 1854              	.LCFI67:
 1855              		.cfi_def_cfa_offset 4
 1856              		.cfi_offset 7, -4
 1857 0002 87B0     		sub	sp, sp, #28
 1858              	.LCFI68:
 1859              		.cfi_def_cfa_offset 32
 1860 0004 00AF     		add	r7, sp, #0
 1861              	.LCFI69:
 1862              		.cfi_def_cfa_register 7
 1863 0006 7860     		str	r0, [r7, #4]
1024:../../../../dependencies/freertos/FreeRTOSv10.4.1/FreeRTOS/Source/stream_buffer.c ****     const StreamBuffer_t * const pxStreamBuffer = xStreamBuffer;
 1864              		.loc 1 1024 0
 1865 0008 7B68     		ldr	r3, [r7, #4]
 1866 000a 3B61     		str	r3, [r7, #16]
1025:../../../../dependencies/freertos/FreeRTOSv10.4.1/FreeRTOS/Source/stream_buffer.c ****     BaseType_t xReturn;
1026:../../../../dependencies/freertos/FreeRTOSv10.4.1/FreeRTOS/Source/stream_buffer.c ****     size_t xTail;
1027:../../../../dependencies/freertos/FreeRTOSv10.4.1/FreeRTOS/Source/stream_buffer.c **** 
1028:../../../../dependencies/freertos/FreeRTOSv10.4.1/FreeRTOS/Source/stream_buffer.c ****     configASSERT( pxStreamBuffer );
 1867              		.loc 1 1028 0
 1868 000c 3B69     		ldr	r3, [r7, #16]
 1869 000e 002B     		cmp	r3, #0
 1870 0010 09D1     		bne	.L120
 1871              	.LBB137:
 1872              	.LBB138:
 197:../../../../dependencies/freertos/FreeRTOSv10.4.1/FreeRTOS/Source/portable/GCC/ARM_CM4F/portmacro.h ****         (
 1873              		.loc 2 197 0 discriminator 1
 1874              	@ 197 "../../../../dependencies/freertos/FreeRTOSv10.4.1/FreeRTOS/Source/portable/GCC/ARM_CM4F/port
 1875 0012 4FF05003 			mov r3, #80												
 1876 0016 83F31188 		msr basepri, r3											
 1877 001a BFF36F8F 		isb														
 1878 001e BFF34F8F 		dsb														
 1879              	
 1880              	@ 0 "" 2
 1881              		.thumb
 1882 0022 BB60     		str	r3, [r7, #8]
 1883              	.L121:
 1884              	.LBE138:
 1885              	.LBE137:
 1886              		.loc 1 1028 0 discriminator 1
 1887 0024 FEE7     		b	.L121
 1888              	.L120:
1029:../../../../dependencies/freertos/FreeRTOSv10.4.1/FreeRTOS/Source/stream_buffer.c **** 
1030:../../../../dependencies/freertos/FreeRTOSv10.4.1/FreeRTOS/Source/stream_buffer.c ****     /* True if no bytes are available. */
1031:../../../../dependencies/freertos/FreeRTOSv10.4.1/FreeRTOS/Source/stream_buffer.c ****     xTail = pxStreamBuffer->xTail;
 1889              		.loc 1 1031 0
 1890 0026 3B69     		ldr	r3, [r7, #16]
ARM GAS  /var/folders/_8/_cw6l3nd335f_j6cn6z79m4m0000gn/T//ccSM72RG.s 			page 56


 1891 0028 1B68     		ldr	r3, [r3]
 1892 002a FB60     		str	r3, [r7, #12]
1032:../../../../dependencies/freertos/FreeRTOSv10.4.1/FreeRTOS/Source/stream_buffer.c **** 
1033:../../../../dependencies/freertos/FreeRTOSv10.4.1/FreeRTOS/Source/stream_buffer.c ****     if( pxStreamBuffer->xHead == xTail )
 1893              		.loc 1 1033 0
 1894 002c 3B69     		ldr	r3, [r7, #16]
 1895 002e 5A68     		ldr	r2, [r3, #4]
 1896 0030 FB68     		ldr	r3, [r7, #12]
 1897 0032 9A42     		cmp	r2, r3
 1898 0034 02D1     		bne	.L122
1034:../../../../dependencies/freertos/FreeRTOSv10.4.1/FreeRTOS/Source/stream_buffer.c ****     {
1035:../../../../dependencies/freertos/FreeRTOSv10.4.1/FreeRTOS/Source/stream_buffer.c ****         xReturn = pdTRUE;
 1899              		.loc 1 1035 0
 1900 0036 0123     		movs	r3, #1
 1901 0038 7B61     		str	r3, [r7, #20]
 1902 003a 01E0     		b	.L123
 1903              	.L122:
1036:../../../../dependencies/freertos/FreeRTOSv10.4.1/FreeRTOS/Source/stream_buffer.c ****     }
1037:../../../../dependencies/freertos/FreeRTOSv10.4.1/FreeRTOS/Source/stream_buffer.c ****     else
1038:../../../../dependencies/freertos/FreeRTOSv10.4.1/FreeRTOS/Source/stream_buffer.c ****     {
1039:../../../../dependencies/freertos/FreeRTOSv10.4.1/FreeRTOS/Source/stream_buffer.c ****         xReturn = pdFALSE;
 1904              		.loc 1 1039 0
 1905 003c 0023     		movs	r3, #0
 1906 003e 7B61     		str	r3, [r7, #20]
 1907              	.L123:
1040:../../../../dependencies/freertos/FreeRTOSv10.4.1/FreeRTOS/Source/stream_buffer.c ****     }
1041:../../../../dependencies/freertos/FreeRTOSv10.4.1/FreeRTOS/Source/stream_buffer.c **** 
1042:../../../../dependencies/freertos/FreeRTOSv10.4.1/FreeRTOS/Source/stream_buffer.c ****     return xReturn;
 1908              		.loc 1 1042 0
 1909 0040 7B69     		ldr	r3, [r7, #20]
1043:../../../../dependencies/freertos/FreeRTOSv10.4.1/FreeRTOS/Source/stream_buffer.c **** }
 1910              		.loc 1 1043 0
 1911 0042 1846     		mov	r0, r3
 1912 0044 1C37     		adds	r7, r7, #28
 1913              	.LCFI70:
 1914              		.cfi_def_cfa_offset 4
 1915 0046 BD46     		mov	sp, r7
 1916              	.LCFI71:
 1917              		.cfi_def_cfa_register 13
 1918              		@ sp needed
 1919 0048 5DF8047B 		ldr	r7, [sp], #4
 1920              	.LCFI72:
 1921              		.cfi_restore 7
 1922              		.cfi_def_cfa_offset 0
 1923 004c 7047     		bx	lr
 1924              		.cfi_endproc
 1925              	.LFE18:
 1927 004e 00BF     		.section	.text.xStreamBufferIsFull,"ax",%progbits
 1928              		.align	2
 1929              		.global	xStreamBufferIsFull
 1930              		.thumb
 1931              		.thumb_func
