ARM GAS  /var/folders/_8/_cw6l3nd335f_j6cn6z79m4m0000gn/T//ccbV1VDy.s 			page 1


   1              		.syntax unified
   2              		.cpu cortex-m4
   3              		.eabi_attribute 27, 1
   4              		.eabi_attribute 28, 1
   5              		.fpu fpv4-sp-d16
   6              		.eabi_attribute 20, 1
   7              		.eabi_attribute 21, 1
   8              		.eabi_attribute 23, 3
   9              		.eabi_attribute 24, 1
  10              		.eabi_attribute 25, 1
  11              		.eabi_attribute 26, 1
  12              		.eabi_attribute 30, 6
  13              		.eabi_attribute 34, 1
  14              		.eabi_attribute 18, 4
  15              		.thumb
  16              		.file	"timers.c"
  17              		.text
  18              	.Ltext0:
  19              		.cfi_sections	.debug_frame
  20              		.section	.bss.xActiveTimerList1,"aw",%nobits
  21              		.align	2
  24              	xActiveTimerList1:
  25 0000 00000000 		.space	20
  25      00000000 
  25      00000000 
  25      00000000 
  25      00000000 
  26              		.section	.bss.xActiveTimerList2,"aw",%nobits
  27              		.align	2
  30              	xActiveTimerList2:
  31 0000 00000000 		.space	20
  31      00000000 
  31      00000000 
  31      00000000 
  31      00000000 
  32              		.section	.bss.pxCurrentTimerList,"aw",%nobits
  33              		.align	2
  36              	pxCurrentTimerList:
  37 0000 00000000 		.space	4
  38              		.section	.bss.pxOverflowTimerList,"aw",%nobits
  39              		.align	2
  42              	pxOverflowTimerList:
  43 0000 00000000 		.space	4
  44              		.section	.bss.xTimerQueue,"aw",%nobits
  45              		.align	2
  48              	xTimerQueue:
  49 0000 00000000 		.space	4
  50              		.section	.bss.xTimerTaskHandle,"aw",%nobits
  51              		.align	2
  54              	xTimerTaskHandle:
  55 0000 00000000 		.space	4
  56              		.section	.rodata
  57              		.align	2
  58              	.LC0:
  59 0000 546D7220 		.ascii	"Tmr Svc\000"
  59      53766300 
  60              		.section	.text.xTimerCreateTimerTask,"ax",%progbits
ARM GAS  /var/folders/_8/_cw6l3nd335f_j6cn6z79m4m0000gn/T//ccbV1VDy.s 			page 2


  61              		.align	2
  62              		.global	xTimerCreateTimerTask
  63              		.thumb
  64              		.thumb_func
  66              	xTimerCreateTimerTask:
  67              	.LFB5:
  68              		.file 1 "../../../../dependencies/freertos/FreeRTOSv10.4.1/FreeRTOS/Source/timers.c"
   1:../../../../dependencies/freertos/FreeRTOSv10.4.1/FreeRTOS/Source/timers.c **** /*
   2:../../../../dependencies/freertos/FreeRTOSv10.4.1/FreeRTOS/Source/timers.c ****  * FreeRTOS Kernel V10.4.1
   3:../../../../dependencies/freertos/FreeRTOSv10.4.1/FreeRTOS/Source/timers.c ****  * Copyright (C) 2020 Amazon.com, Inc. or its affiliates.  All Rights Reserved.
   4:../../../../dependencies/freertos/FreeRTOSv10.4.1/FreeRTOS/Source/timers.c ****  *
   5:../../../../dependencies/freertos/FreeRTOSv10.4.1/FreeRTOS/Source/timers.c ****  * Permission is hereby granted, free of charge, to any person obtaining a copy of
   6:../../../../dependencies/freertos/FreeRTOSv10.4.1/FreeRTOS/Source/timers.c ****  * this software and associated documentation files (the "Software"), to deal in
   7:../../../../dependencies/freertos/FreeRTOSv10.4.1/FreeRTOS/Source/timers.c ****  * the Software without restriction, including without limitation the rights to
   8:../../../../dependencies/freertos/FreeRTOSv10.4.1/FreeRTOS/Source/timers.c ****  * use, copy, modify, merge, publish, distribute, sublicense, and/or sell copies of
   9:../../../../dependencies/freertos/FreeRTOSv10.4.1/FreeRTOS/Source/timers.c ****  * the Software, and to permit persons to whom the Software is furnished to do so,
  10:../../../../dependencies/freertos/FreeRTOSv10.4.1/FreeRTOS/Source/timers.c ****  * subject to the following conditions:
  11:../../../../dependencies/freertos/FreeRTOSv10.4.1/FreeRTOS/Source/timers.c ****  *
  12:../../../../dependencies/freertos/FreeRTOSv10.4.1/FreeRTOS/Source/timers.c ****  * The above copyright notice and this permission notice shall be included in all
  13:../../../../dependencies/freertos/FreeRTOSv10.4.1/FreeRTOS/Source/timers.c ****  * copies or substantial portions of the Software.
  14:../../../../dependencies/freertos/FreeRTOSv10.4.1/FreeRTOS/Source/timers.c ****  *
  15:../../../../dependencies/freertos/FreeRTOSv10.4.1/FreeRTOS/Source/timers.c ****  * THE SOFTWARE IS PROVIDED "AS IS", WITHOUT WARRANTY OF ANY KIND, EXPRESS OR
  16:../../../../dependencies/freertos/FreeRTOSv10.4.1/FreeRTOS/Source/timers.c ****  * IMPLIED, INCLUDING BUT NOT LIMITED TO THE WARRANTIES OF MERCHANTABILITY, FITNESS
  17:../../../../dependencies/freertos/FreeRTOSv10.4.1/FreeRTOS/Source/timers.c ****  * FOR A PARTICULAR PURPOSE AND NONINFRINGEMENT. IN NO EVENT SHALL THE AUTHORS OR
  18:../../../../dependencies/freertos/FreeRTOSv10.4.1/FreeRTOS/Source/timers.c ****  * COPYRIGHT HOLDERS BE LIABLE FOR ANY CLAIM, DAMAGES OR OTHER LIABILITY, WHETHER
  19:../../../../dependencies/freertos/FreeRTOSv10.4.1/FreeRTOS/Source/timers.c ****  * IN AN ACTION OF CONTRACT, TORT OR OTHERWISE, ARISING FROM, OUT OF OR IN
  20:../../../../dependencies/freertos/FreeRTOSv10.4.1/FreeRTOS/Source/timers.c ****  * CONNECTION WITH THE SOFTWARE OR THE USE OR OTHER DEALINGS IN THE SOFTWARE.
  21:../../../../dependencies/freertos/FreeRTOSv10.4.1/FreeRTOS/Source/timers.c ****  *
  22:../../../../dependencies/freertos/FreeRTOSv10.4.1/FreeRTOS/Source/timers.c ****  * https://www.FreeRTOS.org
  23:../../../../dependencies/freertos/FreeRTOSv10.4.1/FreeRTOS/Source/timers.c ****  * https://github.com/FreeRTOS
  24:../../../../dependencies/freertos/FreeRTOSv10.4.1/FreeRTOS/Source/timers.c ****  *
  25:../../../../dependencies/freertos/FreeRTOSv10.4.1/FreeRTOS/Source/timers.c ****  */
  26:../../../../dependencies/freertos/FreeRTOSv10.4.1/FreeRTOS/Source/timers.c **** 
  27:../../../../dependencies/freertos/FreeRTOSv10.4.1/FreeRTOS/Source/timers.c **** /* Standard includes. */
  28:../../../../dependencies/freertos/FreeRTOSv10.4.1/FreeRTOS/Source/timers.c **** #include <stdlib.h>
  29:../../../../dependencies/freertos/FreeRTOSv10.4.1/FreeRTOS/Source/timers.c **** 
  30:../../../../dependencies/freertos/FreeRTOSv10.4.1/FreeRTOS/Source/timers.c **** /* Defining MPU_WRAPPERS_INCLUDED_FROM_API_FILE prevents task.h from redefining
  31:../../../../dependencies/freertos/FreeRTOSv10.4.1/FreeRTOS/Source/timers.c ****  * all the API functions to use the MPU wrappers.  That should only be done when
  32:../../../../dependencies/freertos/FreeRTOSv10.4.1/FreeRTOS/Source/timers.c ****  * task.h is included from an application file. */
  33:../../../../dependencies/freertos/FreeRTOSv10.4.1/FreeRTOS/Source/timers.c **** #define MPU_WRAPPERS_INCLUDED_FROM_API_FILE
  34:../../../../dependencies/freertos/FreeRTOSv10.4.1/FreeRTOS/Source/timers.c **** 
  35:../../../../dependencies/freertos/FreeRTOSv10.4.1/FreeRTOS/Source/timers.c **** #include "FreeRTOS.h"
  36:../../../../dependencies/freertos/FreeRTOSv10.4.1/FreeRTOS/Source/timers.c **** #include "task.h"
  37:../../../../dependencies/freertos/FreeRTOSv10.4.1/FreeRTOS/Source/timers.c **** #include "queue.h"
  38:../../../../dependencies/freertos/FreeRTOSv10.4.1/FreeRTOS/Source/timers.c **** #include "timers.h"
  39:../../../../dependencies/freertos/FreeRTOSv10.4.1/FreeRTOS/Source/timers.c **** 
  40:../../../../dependencies/freertos/FreeRTOSv10.4.1/FreeRTOS/Source/timers.c **** #if ( INCLUDE_xTimerPendFunctionCall == 1 ) && ( configUSE_TIMERS == 0 )
  41:../../../../dependencies/freertos/FreeRTOSv10.4.1/FreeRTOS/Source/timers.c ****     #error configUSE_TIMERS must be set to 1 to make the xTimerPendFunctionCall() function availabl
  42:../../../../dependencies/freertos/FreeRTOSv10.4.1/FreeRTOS/Source/timers.c **** #endif
  43:../../../../dependencies/freertos/FreeRTOSv10.4.1/FreeRTOS/Source/timers.c **** 
  44:../../../../dependencies/freertos/FreeRTOSv10.4.1/FreeRTOS/Source/timers.c **** /* Lint e9021, e961 and e750 are suppressed as a MISRA exception justified
  45:../../../../dependencies/freertos/FreeRTOSv10.4.1/FreeRTOS/Source/timers.c ****  * because the MPU ports require MPU_WRAPPERS_INCLUDED_FROM_API_FILE to be defined
  46:../../../../dependencies/freertos/FreeRTOSv10.4.1/FreeRTOS/Source/timers.c ****  * for the header files above, but not in this file, in order to generate the
  47:../../../../dependencies/freertos/FreeRTOSv10.4.1/FreeRTOS/Source/timers.c ****  * correct privileged Vs unprivileged linkage and placement. */
  48:../../../../dependencies/freertos/FreeRTOSv10.4.1/FreeRTOS/Source/timers.c **** #undef MPU_WRAPPERS_INCLUDED_FROM_API_FILE /*lint !e9021 !e961 !e750. */
  49:../../../../dependencies/freertos/FreeRTOSv10.4.1/FreeRTOS/Source/timers.c **** 
  50:../../../../dependencies/freertos/FreeRTOSv10.4.1/FreeRTOS/Source/timers.c **** 
ARM GAS  /var/folders/_8/_cw6l3nd335f_j6cn6z79m4m0000gn/T//ccbV1VDy.s 			page 3


  51:../../../../dependencies/freertos/FreeRTOSv10.4.1/FreeRTOS/Source/timers.c **** /* This entire source file will be skipped if the application is not configured
  52:../../../../dependencies/freertos/FreeRTOSv10.4.1/FreeRTOS/Source/timers.c ****  * to include software timer functionality.  This #if is closed at the very bottom
  53:../../../../dependencies/freertos/FreeRTOSv10.4.1/FreeRTOS/Source/timers.c ****  * of this file.  If you want to include software timer functionality then ensure
  54:../../../../dependencies/freertos/FreeRTOSv10.4.1/FreeRTOS/Source/timers.c ****  * configUSE_TIMERS is set to 1 in FreeRTOSConfig.h. */
  55:../../../../dependencies/freertos/FreeRTOSv10.4.1/FreeRTOS/Source/timers.c **** #if ( configUSE_TIMERS == 1 )
  56:../../../../dependencies/freertos/FreeRTOSv10.4.1/FreeRTOS/Source/timers.c **** 
  57:../../../../dependencies/freertos/FreeRTOSv10.4.1/FreeRTOS/Source/timers.c **** /* Misc definitions. */
  58:../../../../dependencies/freertos/FreeRTOSv10.4.1/FreeRTOS/Source/timers.c ****     #define tmrNO_DELAY    ( TickType_t ) 0U
  59:../../../../dependencies/freertos/FreeRTOSv10.4.1/FreeRTOS/Source/timers.c **** 
  60:../../../../dependencies/freertos/FreeRTOSv10.4.1/FreeRTOS/Source/timers.c **** /* The name assigned to the timer service task.  This can be overridden by
  61:../../../../dependencies/freertos/FreeRTOSv10.4.1/FreeRTOS/Source/timers.c ****  * defining trmTIMER_SERVICE_TASK_NAME in FreeRTOSConfig.h. */
  62:../../../../dependencies/freertos/FreeRTOSv10.4.1/FreeRTOS/Source/timers.c ****     #ifndef configTIMER_SERVICE_TASK_NAME
  63:../../../../dependencies/freertos/FreeRTOSv10.4.1/FreeRTOS/Source/timers.c ****         #define configTIMER_SERVICE_TASK_NAME    "Tmr Svc"
  64:../../../../dependencies/freertos/FreeRTOSv10.4.1/FreeRTOS/Source/timers.c ****     #endif
  65:../../../../dependencies/freertos/FreeRTOSv10.4.1/FreeRTOS/Source/timers.c **** 
  66:../../../../dependencies/freertos/FreeRTOSv10.4.1/FreeRTOS/Source/timers.c **** /* Bit definitions used in the ucStatus member of a timer structure. */
  67:../../../../dependencies/freertos/FreeRTOSv10.4.1/FreeRTOS/Source/timers.c ****     #define tmrSTATUS_IS_ACTIVE                  ( ( uint8_t ) 0x01 )
  68:../../../../dependencies/freertos/FreeRTOSv10.4.1/FreeRTOS/Source/timers.c ****     #define tmrSTATUS_IS_STATICALLY_ALLOCATED    ( ( uint8_t ) 0x02 )
  69:../../../../dependencies/freertos/FreeRTOSv10.4.1/FreeRTOS/Source/timers.c ****     #define tmrSTATUS_IS_AUTORELOAD              ( ( uint8_t ) 0x04 )
  70:../../../../dependencies/freertos/FreeRTOSv10.4.1/FreeRTOS/Source/timers.c **** 
  71:../../../../dependencies/freertos/FreeRTOSv10.4.1/FreeRTOS/Source/timers.c **** /* The definition of the timers themselves. */
  72:../../../../dependencies/freertos/FreeRTOSv10.4.1/FreeRTOS/Source/timers.c ****     typedef struct tmrTimerControl                  /* The old naming convention is used to prevent
  73:../../../../dependencies/freertos/FreeRTOSv10.4.1/FreeRTOS/Source/timers.c ****     {
  74:../../../../dependencies/freertos/FreeRTOSv10.4.1/FreeRTOS/Source/timers.c ****         const char * pcTimerName;                   /*<< Text name.  This is not used by the kernel
  75:../../../../dependencies/freertos/FreeRTOSv10.4.1/FreeRTOS/Source/timers.c ****         ListItem_t xTimerListItem;                  /*<< Standard linked list item as used by all k
  76:../../../../dependencies/freertos/FreeRTOSv10.4.1/FreeRTOS/Source/timers.c ****         TickType_t xTimerPeriodInTicks;             /*<< How quickly and often the timer expires. *
  77:../../../../dependencies/freertos/FreeRTOSv10.4.1/FreeRTOS/Source/timers.c ****         void * pvTimerID;                           /*<< An ID to identify the timer.  This allows 
  78:../../../../dependencies/freertos/FreeRTOSv10.4.1/FreeRTOS/Source/timers.c ****         TimerCallbackFunction_t pxCallbackFunction; /*<< The function that will be called when the 
  79:../../../../dependencies/freertos/FreeRTOSv10.4.1/FreeRTOS/Source/timers.c ****         #if ( configUSE_TRACE_FACILITY == 1 )
  80:../../../../dependencies/freertos/FreeRTOSv10.4.1/FreeRTOS/Source/timers.c ****             UBaseType_t uxTimerNumber;              /*<< An ID assigned by trace tools such as Free
  81:../../../../dependencies/freertos/FreeRTOSv10.4.1/FreeRTOS/Source/timers.c ****         #endif
  82:../../../../dependencies/freertos/FreeRTOSv10.4.1/FreeRTOS/Source/timers.c ****         uint8_t ucStatus;                           /*<< Holds bits to say if the timer was statica
  83:../../../../dependencies/freertos/FreeRTOSv10.4.1/FreeRTOS/Source/timers.c ****     } xTIMER;
  84:../../../../dependencies/freertos/FreeRTOSv10.4.1/FreeRTOS/Source/timers.c **** 
  85:../../../../dependencies/freertos/FreeRTOSv10.4.1/FreeRTOS/Source/timers.c **** /* The old xTIMER name is maintained above then typedefed to the new Timer_t
  86:../../../../dependencies/freertos/FreeRTOSv10.4.1/FreeRTOS/Source/timers.c ****  * name below to enable the use of older kernel aware debuggers. */
  87:../../../../dependencies/freertos/FreeRTOSv10.4.1/FreeRTOS/Source/timers.c ****     typedef xTIMER Timer_t;
  88:../../../../dependencies/freertos/FreeRTOSv10.4.1/FreeRTOS/Source/timers.c **** 
  89:../../../../dependencies/freertos/FreeRTOSv10.4.1/FreeRTOS/Source/timers.c **** /* The definition of messages that can be sent and received on the timer queue.
  90:../../../../dependencies/freertos/FreeRTOSv10.4.1/FreeRTOS/Source/timers.c ****  * Two types of message can be queued - messages that manipulate a software timer,
  91:../../../../dependencies/freertos/FreeRTOSv10.4.1/FreeRTOS/Source/timers.c ****  * and messages that request the execution of a non-timer related callback.  The
  92:../../../../dependencies/freertos/FreeRTOSv10.4.1/FreeRTOS/Source/timers.c ****  * two message types are defined in two separate structures, xTimerParametersType
  93:../../../../dependencies/freertos/FreeRTOSv10.4.1/FreeRTOS/Source/timers.c ****  * and xCallbackParametersType respectively. */
  94:../../../../dependencies/freertos/FreeRTOSv10.4.1/FreeRTOS/Source/timers.c ****     typedef struct tmrTimerParameters
  95:../../../../dependencies/freertos/FreeRTOSv10.4.1/FreeRTOS/Source/timers.c ****     {
  96:../../../../dependencies/freertos/FreeRTOSv10.4.1/FreeRTOS/Source/timers.c ****         TickType_t xMessageValue; /*<< An optional value used by a subset of commands, for example,
  97:../../../../dependencies/freertos/FreeRTOSv10.4.1/FreeRTOS/Source/timers.c ****         Timer_t * pxTimer;        /*<< The timer to which the command will be applied. */
  98:../../../../dependencies/freertos/FreeRTOSv10.4.1/FreeRTOS/Source/timers.c ****     } TimerParameter_t;
  99:../../../../dependencies/freertos/FreeRTOSv10.4.1/FreeRTOS/Source/timers.c **** 
 100:../../../../dependencies/freertos/FreeRTOSv10.4.1/FreeRTOS/Source/timers.c **** 
 101:../../../../dependencies/freertos/FreeRTOSv10.4.1/FreeRTOS/Source/timers.c ****     typedef struct tmrCallbackParameters
 102:../../../../dependencies/freertos/FreeRTOSv10.4.1/FreeRTOS/Source/timers.c ****     {
 103:../../../../dependencies/freertos/FreeRTOSv10.4.1/FreeRTOS/Source/timers.c ****         PendedFunction_t pxCallbackFunction; /* << The callback function to execute. */
 104:../../../../dependencies/freertos/FreeRTOSv10.4.1/FreeRTOS/Source/timers.c ****         void * pvParameter1;                 /* << The value that will be used as the callback func
 105:../../../../dependencies/freertos/FreeRTOSv10.4.1/FreeRTOS/Source/timers.c ****         uint32_t ulParameter2;               /* << The value that will be used as the callback func
 106:../../../../dependencies/freertos/FreeRTOSv10.4.1/FreeRTOS/Source/timers.c ****     } CallbackParameters_t;
 107:../../../../dependencies/freertos/FreeRTOSv10.4.1/FreeRTOS/Source/timers.c **** 
ARM GAS  /var/folders/_8/_cw6l3nd335f_j6cn6z79m4m0000gn/T//ccbV1VDy.s 			page 4


 108:../../../../dependencies/freertos/FreeRTOSv10.4.1/FreeRTOS/Source/timers.c **** /* The structure that contains the two message types, along with an identifier
 109:../../../../dependencies/freertos/FreeRTOSv10.4.1/FreeRTOS/Source/timers.c ****  * that is used to determine which message type is valid. */
 110:../../../../dependencies/freertos/FreeRTOSv10.4.1/FreeRTOS/Source/timers.c ****     typedef struct tmrTimerQueueMessage
 111:../../../../dependencies/freertos/FreeRTOSv10.4.1/FreeRTOS/Source/timers.c ****     {
 112:../../../../dependencies/freertos/FreeRTOSv10.4.1/FreeRTOS/Source/timers.c ****         BaseType_t xMessageID; /*<< The command being sent to the timer service task. */
 113:../../../../dependencies/freertos/FreeRTOSv10.4.1/FreeRTOS/Source/timers.c ****         union
 114:../../../../dependencies/freertos/FreeRTOSv10.4.1/FreeRTOS/Source/timers.c ****         {
 115:../../../../dependencies/freertos/FreeRTOSv10.4.1/FreeRTOS/Source/timers.c ****             TimerParameter_t xTimerParameters;
 116:../../../../dependencies/freertos/FreeRTOSv10.4.1/FreeRTOS/Source/timers.c **** 
 117:../../../../dependencies/freertos/FreeRTOSv10.4.1/FreeRTOS/Source/timers.c ****             /* Don't include xCallbackParameters if it is not going to be used as
 118:../../../../dependencies/freertos/FreeRTOSv10.4.1/FreeRTOS/Source/timers.c ****              * it makes the structure (and therefore the timer queue) larger. */
 119:../../../../dependencies/freertos/FreeRTOSv10.4.1/FreeRTOS/Source/timers.c ****             #if ( INCLUDE_xTimerPendFunctionCall == 1 )
 120:../../../../dependencies/freertos/FreeRTOSv10.4.1/FreeRTOS/Source/timers.c ****                 CallbackParameters_t xCallbackParameters;
 121:../../../../dependencies/freertos/FreeRTOSv10.4.1/FreeRTOS/Source/timers.c ****             #endif /* INCLUDE_xTimerPendFunctionCall */
 122:../../../../dependencies/freertos/FreeRTOSv10.4.1/FreeRTOS/Source/timers.c ****         } u;
 123:../../../../dependencies/freertos/FreeRTOSv10.4.1/FreeRTOS/Source/timers.c ****     } DaemonTaskMessage_t;
 124:../../../../dependencies/freertos/FreeRTOSv10.4.1/FreeRTOS/Source/timers.c **** 
 125:../../../../dependencies/freertos/FreeRTOSv10.4.1/FreeRTOS/Source/timers.c **** /*lint -save -e956 A manual analysis and inspection has been used to determine
 126:../../../../dependencies/freertos/FreeRTOSv10.4.1/FreeRTOS/Source/timers.c ****  * which static variables must be declared volatile. */
 127:../../../../dependencies/freertos/FreeRTOSv10.4.1/FreeRTOS/Source/timers.c **** 
 128:../../../../dependencies/freertos/FreeRTOSv10.4.1/FreeRTOS/Source/timers.c **** /* The list in which active timers are stored.  Timers are referenced in expire
 129:../../../../dependencies/freertos/FreeRTOSv10.4.1/FreeRTOS/Source/timers.c ****  * time order, with the nearest expiry time at the front of the list.  Only the
 130:../../../../dependencies/freertos/FreeRTOSv10.4.1/FreeRTOS/Source/timers.c ****  * timer service task is allowed to access these lists.
 131:../../../../dependencies/freertos/FreeRTOSv10.4.1/FreeRTOS/Source/timers.c ****  * xActiveTimerList1 and xActiveTimerList2 could be at function scope but that
 132:../../../../dependencies/freertos/FreeRTOSv10.4.1/FreeRTOS/Source/timers.c ****  * breaks some kernel aware debuggers, and debuggers that reply on removing the
 133:../../../../dependencies/freertos/FreeRTOSv10.4.1/FreeRTOS/Source/timers.c ****  * static qualifier. */
 134:../../../../dependencies/freertos/FreeRTOSv10.4.1/FreeRTOS/Source/timers.c ****     PRIVILEGED_DATA static List_t xActiveTimerList1;
 135:../../../../dependencies/freertos/FreeRTOSv10.4.1/FreeRTOS/Source/timers.c ****     PRIVILEGED_DATA static List_t xActiveTimerList2;
 136:../../../../dependencies/freertos/FreeRTOSv10.4.1/FreeRTOS/Source/timers.c ****     PRIVILEGED_DATA static List_t * pxCurrentTimerList;
 137:../../../../dependencies/freertos/FreeRTOSv10.4.1/FreeRTOS/Source/timers.c ****     PRIVILEGED_DATA static List_t * pxOverflowTimerList;
 138:../../../../dependencies/freertos/FreeRTOSv10.4.1/FreeRTOS/Source/timers.c **** 
 139:../../../../dependencies/freertos/FreeRTOSv10.4.1/FreeRTOS/Source/timers.c **** /* A queue that is used to send commands to the timer service task. */
 140:../../../../dependencies/freertos/FreeRTOSv10.4.1/FreeRTOS/Source/timers.c ****     PRIVILEGED_DATA static QueueHandle_t xTimerQueue = NULL;
 141:../../../../dependencies/freertos/FreeRTOSv10.4.1/FreeRTOS/Source/timers.c ****     PRIVILEGED_DATA static TaskHandle_t xTimerTaskHandle = NULL;
 142:../../../../dependencies/freertos/FreeRTOSv10.4.1/FreeRTOS/Source/timers.c **** 
 143:../../../../dependencies/freertos/FreeRTOSv10.4.1/FreeRTOS/Source/timers.c **** /*lint -restore */
 144:../../../../dependencies/freertos/FreeRTOSv10.4.1/FreeRTOS/Source/timers.c **** 
 145:../../../../dependencies/freertos/FreeRTOSv10.4.1/FreeRTOS/Source/timers.c **** /*-----------------------------------------------------------*/
 146:../../../../dependencies/freertos/FreeRTOSv10.4.1/FreeRTOS/Source/timers.c **** 
 147:../../../../dependencies/freertos/FreeRTOSv10.4.1/FreeRTOS/Source/timers.c **** /*
 148:../../../../dependencies/freertos/FreeRTOSv10.4.1/FreeRTOS/Source/timers.c ****  * Initialise the infrastructure used by the timer service task if it has not
 149:../../../../dependencies/freertos/FreeRTOSv10.4.1/FreeRTOS/Source/timers.c ****  * been initialised already.
 150:../../../../dependencies/freertos/FreeRTOSv10.4.1/FreeRTOS/Source/timers.c ****  */
 151:../../../../dependencies/freertos/FreeRTOSv10.4.1/FreeRTOS/Source/timers.c ****     static void prvCheckForValidListAndQueue( void ) PRIVILEGED_FUNCTION;
 152:../../../../dependencies/freertos/FreeRTOSv10.4.1/FreeRTOS/Source/timers.c **** 
 153:../../../../dependencies/freertos/FreeRTOSv10.4.1/FreeRTOS/Source/timers.c **** /*
 154:../../../../dependencies/freertos/FreeRTOSv10.4.1/FreeRTOS/Source/timers.c ****  * The timer service task (daemon).  Timer functionality is controlled by this
 155:../../../../dependencies/freertos/FreeRTOSv10.4.1/FreeRTOS/Source/timers.c ****  * task.  Other tasks communicate with the timer service task using the
 156:../../../../dependencies/freertos/FreeRTOSv10.4.1/FreeRTOS/Source/timers.c ****  * xTimerQueue queue.
 157:../../../../dependencies/freertos/FreeRTOSv10.4.1/FreeRTOS/Source/timers.c ****  */
 158:../../../../dependencies/freertos/FreeRTOSv10.4.1/FreeRTOS/Source/timers.c ****     static portTASK_FUNCTION_PROTO( prvTimerTask, pvParameters ) PRIVILEGED_FUNCTION;
 159:../../../../dependencies/freertos/FreeRTOSv10.4.1/FreeRTOS/Source/timers.c **** 
 160:../../../../dependencies/freertos/FreeRTOSv10.4.1/FreeRTOS/Source/timers.c **** /*
 161:../../../../dependencies/freertos/FreeRTOSv10.4.1/FreeRTOS/Source/timers.c ****  * Called by the timer service task to interpret and process a command it
 162:../../../../dependencies/freertos/FreeRTOSv10.4.1/FreeRTOS/Source/timers.c ****  * received on the timer queue.
 163:../../../../dependencies/freertos/FreeRTOSv10.4.1/FreeRTOS/Source/timers.c ****  */
 164:../../../../dependencies/freertos/FreeRTOSv10.4.1/FreeRTOS/Source/timers.c ****     static void prvProcessReceivedCommands( void ) PRIVILEGED_FUNCTION;
ARM GAS  /var/folders/_8/_cw6l3nd335f_j6cn6z79m4m0000gn/T//ccbV1VDy.s 			page 5


 165:../../../../dependencies/freertos/FreeRTOSv10.4.1/FreeRTOS/Source/timers.c **** 
 166:../../../../dependencies/freertos/FreeRTOSv10.4.1/FreeRTOS/Source/timers.c **** /*
 167:../../../../dependencies/freertos/FreeRTOSv10.4.1/FreeRTOS/Source/timers.c ****  * Insert the timer into either xActiveTimerList1, or xActiveTimerList2,
 168:../../../../dependencies/freertos/FreeRTOSv10.4.1/FreeRTOS/Source/timers.c ****  * depending on if the expire time causes a timer counter overflow.
 169:../../../../dependencies/freertos/FreeRTOSv10.4.1/FreeRTOS/Source/timers.c ****  */
 170:../../../../dependencies/freertos/FreeRTOSv10.4.1/FreeRTOS/Source/timers.c ****     static BaseType_t prvInsertTimerInActiveList( Timer_t * const pxTimer,
 171:../../../../dependencies/freertos/FreeRTOSv10.4.1/FreeRTOS/Source/timers.c ****                                                   const TickType_t xNextExpiryTime,
 172:../../../../dependencies/freertos/FreeRTOSv10.4.1/FreeRTOS/Source/timers.c ****                                                   const TickType_t xTimeNow,
 173:../../../../dependencies/freertos/FreeRTOSv10.4.1/FreeRTOS/Source/timers.c ****                                                   const TickType_t xCommandTime ) PRIVILEGED_FUNCTI
 174:../../../../dependencies/freertos/FreeRTOSv10.4.1/FreeRTOS/Source/timers.c **** 
 175:../../../../dependencies/freertos/FreeRTOSv10.4.1/FreeRTOS/Source/timers.c **** /*
 176:../../../../dependencies/freertos/FreeRTOSv10.4.1/FreeRTOS/Source/timers.c ****  * An active timer has reached its expire time.  Reload the timer if it is an
 177:../../../../dependencies/freertos/FreeRTOSv10.4.1/FreeRTOS/Source/timers.c ****  * auto-reload timer, then call its callback.
 178:../../../../dependencies/freertos/FreeRTOSv10.4.1/FreeRTOS/Source/timers.c ****  */
 179:../../../../dependencies/freertos/FreeRTOSv10.4.1/FreeRTOS/Source/timers.c ****     static void prvProcessExpiredTimer( const TickType_t xNextExpireTime,
 180:../../../../dependencies/freertos/FreeRTOSv10.4.1/FreeRTOS/Source/timers.c ****                                         const TickType_t xTimeNow ) PRIVILEGED_FUNCTION;
 181:../../../../dependencies/freertos/FreeRTOSv10.4.1/FreeRTOS/Source/timers.c **** 
 182:../../../../dependencies/freertos/FreeRTOSv10.4.1/FreeRTOS/Source/timers.c **** /*
 183:../../../../dependencies/freertos/FreeRTOSv10.4.1/FreeRTOS/Source/timers.c ****  * The tick count has overflowed.  Switch the timer lists after ensuring the
 184:../../../../dependencies/freertos/FreeRTOSv10.4.1/FreeRTOS/Source/timers.c ****  * current timer list does not still reference some timers.
 185:../../../../dependencies/freertos/FreeRTOSv10.4.1/FreeRTOS/Source/timers.c ****  */
 186:../../../../dependencies/freertos/FreeRTOSv10.4.1/FreeRTOS/Source/timers.c ****     static void prvSwitchTimerLists( void ) PRIVILEGED_FUNCTION;
 187:../../../../dependencies/freertos/FreeRTOSv10.4.1/FreeRTOS/Source/timers.c **** 
 188:../../../../dependencies/freertos/FreeRTOSv10.4.1/FreeRTOS/Source/timers.c **** /*
 189:../../../../dependencies/freertos/FreeRTOSv10.4.1/FreeRTOS/Source/timers.c ****  * Obtain the current tick count, setting *pxTimerListsWereSwitched to pdTRUE
 190:../../../../dependencies/freertos/FreeRTOSv10.4.1/FreeRTOS/Source/timers.c ****  * if a tick count overflow occurred since prvSampleTimeNow() was last called.
 191:../../../../dependencies/freertos/FreeRTOSv10.4.1/FreeRTOS/Source/timers.c ****  */
 192:../../../../dependencies/freertos/FreeRTOSv10.4.1/FreeRTOS/Source/timers.c ****     static TickType_t prvSampleTimeNow( BaseType_t * const pxTimerListsWereSwitched ) PRIVILEGED_FU
 193:../../../../dependencies/freertos/FreeRTOSv10.4.1/FreeRTOS/Source/timers.c **** 
 194:../../../../dependencies/freertos/FreeRTOSv10.4.1/FreeRTOS/Source/timers.c **** /*
 195:../../../../dependencies/freertos/FreeRTOSv10.4.1/FreeRTOS/Source/timers.c ****  * If the timer list contains any active timers then return the expire time of
 196:../../../../dependencies/freertos/FreeRTOSv10.4.1/FreeRTOS/Source/timers.c ****  * the timer that will expire first and set *pxListWasEmpty to false.  If the
 197:../../../../dependencies/freertos/FreeRTOSv10.4.1/FreeRTOS/Source/timers.c ****  * timer list does not contain any timers then return 0 and set *pxListWasEmpty
 198:../../../../dependencies/freertos/FreeRTOSv10.4.1/FreeRTOS/Source/timers.c ****  * to pdTRUE.
 199:../../../../dependencies/freertos/FreeRTOSv10.4.1/FreeRTOS/Source/timers.c ****  */
 200:../../../../dependencies/freertos/FreeRTOSv10.4.1/FreeRTOS/Source/timers.c ****     static TickType_t prvGetNextExpireTime( BaseType_t * const pxListWasEmpty ) PRIVILEGED_FUNCTION
 201:../../../../dependencies/freertos/FreeRTOSv10.4.1/FreeRTOS/Source/timers.c **** 
 202:../../../../dependencies/freertos/FreeRTOSv10.4.1/FreeRTOS/Source/timers.c **** /*
 203:../../../../dependencies/freertos/FreeRTOSv10.4.1/FreeRTOS/Source/timers.c ****  * If a timer has expired, process it.  Otherwise, block the timer service task
 204:../../../../dependencies/freertos/FreeRTOSv10.4.1/FreeRTOS/Source/timers.c ****  * until either a timer does expire or a command is received.
 205:../../../../dependencies/freertos/FreeRTOSv10.4.1/FreeRTOS/Source/timers.c ****  */
 206:../../../../dependencies/freertos/FreeRTOSv10.4.1/FreeRTOS/Source/timers.c ****     static void prvProcessTimerOrBlockTask( const TickType_t xNextExpireTime,
 207:../../../../dependencies/freertos/FreeRTOSv10.4.1/FreeRTOS/Source/timers.c ****                                             BaseType_t xListWasEmpty ) PRIVILEGED_FUNCTION;
 208:../../../../dependencies/freertos/FreeRTOSv10.4.1/FreeRTOS/Source/timers.c **** 
 209:../../../../dependencies/freertos/FreeRTOSv10.4.1/FreeRTOS/Source/timers.c **** /*
 210:../../../../dependencies/freertos/FreeRTOSv10.4.1/FreeRTOS/Source/timers.c ****  * Called after a Timer_t structure has been allocated either statically or
 211:../../../../dependencies/freertos/FreeRTOSv10.4.1/FreeRTOS/Source/timers.c ****  * dynamically to fill in the structure's members.
 212:../../../../dependencies/freertos/FreeRTOSv10.4.1/FreeRTOS/Source/timers.c ****  */
 213:../../../../dependencies/freertos/FreeRTOSv10.4.1/FreeRTOS/Source/timers.c ****     static void prvInitialiseNewTimer( const char * const pcTimerName, /*lint !e971 Unqualified cha
 214:../../../../dependencies/freertos/FreeRTOSv10.4.1/FreeRTOS/Source/timers.c ****                                        const TickType_t xTimerPeriodInTicks,
 215:../../../../dependencies/freertos/FreeRTOSv10.4.1/FreeRTOS/Source/timers.c ****                                        const UBaseType_t uxAutoReload,
 216:../../../../dependencies/freertos/FreeRTOSv10.4.1/FreeRTOS/Source/timers.c ****                                        void * const pvTimerID,
 217:../../../../dependencies/freertos/FreeRTOSv10.4.1/FreeRTOS/Source/timers.c ****                                        TimerCallbackFunction_t pxCallbackFunction,
 218:../../../../dependencies/freertos/FreeRTOSv10.4.1/FreeRTOS/Source/timers.c ****                                        Timer_t * pxNewTimer ) PRIVILEGED_FUNCTION;
 219:../../../../dependencies/freertos/FreeRTOSv10.4.1/FreeRTOS/Source/timers.c **** /*-----------------------------------------------------------*/
 220:../../../../dependencies/freertos/FreeRTOSv10.4.1/FreeRTOS/Source/timers.c **** 
 221:../../../../dependencies/freertos/FreeRTOSv10.4.1/FreeRTOS/Source/timers.c ****     BaseType_t xTimerCreateTimerTask( void )
ARM GAS  /var/folders/_8/_cw6l3nd335f_j6cn6z79m4m0000gn/T//ccbV1VDy.s 			page 6


 222:../../../../dependencies/freertos/FreeRTOSv10.4.1/FreeRTOS/Source/timers.c ****     {
  69              		.loc 1 222 0
  70              		.cfi_startproc
  71              		@ args = 0, pretend = 0, frame = 8
  72              		@ frame_needed = 1, uses_anonymous_args = 0
  73 0000 80B5     		push	{r7, lr}
  74              	.LCFI0:
  75              		.cfi_def_cfa_offset 8
  76              		.cfi_offset 7, -8
  77              		.cfi_offset 14, -4
  78 0002 84B0     		sub	sp, sp, #16
  79              	.LCFI1:
  80              		.cfi_def_cfa_offset 24
  81 0004 02AF     		add	r7, sp, #8
  82              	.LCFI2:
  83              		.cfi_def_cfa 7, 16
 223:../../../../dependencies/freertos/FreeRTOSv10.4.1/FreeRTOS/Source/timers.c ****         BaseType_t xReturn = pdFAIL;
  84              		.loc 1 223 0
  85 0006 0023     		movs	r3, #0
  86 0008 7B60     		str	r3, [r7, #4]
 224:../../../../dependencies/freertos/FreeRTOSv10.4.1/FreeRTOS/Source/timers.c **** 
 225:../../../../dependencies/freertos/FreeRTOSv10.4.1/FreeRTOS/Source/timers.c ****         /* This function is called when the scheduler is started if
 226:../../../../dependencies/freertos/FreeRTOSv10.4.1/FreeRTOS/Source/timers.c ****          * configUSE_TIMERS is set to 1.  Check that the infrastructure used by the
 227:../../../../dependencies/freertos/FreeRTOSv10.4.1/FreeRTOS/Source/timers.c ****          * timer service task has been created/initialised.  If timers have already
 228:../../../../dependencies/freertos/FreeRTOSv10.4.1/FreeRTOS/Source/timers.c ****          * been created then the initialisation will already have been performed. */
 229:../../../../dependencies/freertos/FreeRTOSv10.4.1/FreeRTOS/Source/timers.c ****         prvCheckForValidListAndQueue();
  87              		.loc 1 229 0
  88 000a FFF7FEFF 		bl	prvCheckForValidListAndQueue
 230:../../../../dependencies/freertos/FreeRTOSv10.4.1/FreeRTOS/Source/timers.c **** 
 231:../../../../dependencies/freertos/FreeRTOSv10.4.1/FreeRTOS/Source/timers.c ****         if( xTimerQueue != NULL )
  89              		.loc 1 231 0
  90 000e 114B     		ldr	r3, .L6
  91 0010 1B68     		ldr	r3, [r3]
  92 0012 002B     		cmp	r3, #0
  93 0014 0BD0     		beq	.L2
 232:../../../../dependencies/freertos/FreeRTOSv10.4.1/FreeRTOS/Source/timers.c ****         {
 233:../../../../dependencies/freertos/FreeRTOSv10.4.1/FreeRTOS/Source/timers.c ****             #if ( configSUPPORT_STATIC_ALLOCATION == 1 )
 234:../../../../dependencies/freertos/FreeRTOSv10.4.1/FreeRTOS/Source/timers.c ****                 {
 235:../../../../dependencies/freertos/FreeRTOSv10.4.1/FreeRTOS/Source/timers.c ****                     StaticTask_t * pxTimerTaskTCBBuffer = NULL;
 236:../../../../dependencies/freertos/FreeRTOSv10.4.1/FreeRTOS/Source/timers.c ****                     StackType_t * pxTimerTaskStackBuffer = NULL;
 237:../../../../dependencies/freertos/FreeRTOSv10.4.1/FreeRTOS/Source/timers.c ****                     uint32_t ulTimerTaskStackSize;
 238:../../../../dependencies/freertos/FreeRTOSv10.4.1/FreeRTOS/Source/timers.c **** 
 239:../../../../dependencies/freertos/FreeRTOSv10.4.1/FreeRTOS/Source/timers.c ****                     vApplicationGetTimerTaskMemory( &pxTimerTaskTCBBuffer, &pxTimerTaskStackBuffer,
 240:../../../../dependencies/freertos/FreeRTOSv10.4.1/FreeRTOS/Source/timers.c ****                     xTimerTaskHandle = xTaskCreateStatic( prvTimerTask,
 241:../../../../dependencies/freertos/FreeRTOSv10.4.1/FreeRTOS/Source/timers.c ****                                                           configTIMER_SERVICE_TASK_NAME,
 242:../../../../dependencies/freertos/FreeRTOSv10.4.1/FreeRTOS/Source/timers.c ****                                                           ulTimerTaskStackSize,
 243:../../../../dependencies/freertos/FreeRTOSv10.4.1/FreeRTOS/Source/timers.c ****                                                           NULL,
 244:../../../../dependencies/freertos/FreeRTOSv10.4.1/FreeRTOS/Source/timers.c ****                                                           ( ( UBaseType_t ) configTIMER_TASK_PRIORI
 245:../../../../dependencies/freertos/FreeRTOSv10.4.1/FreeRTOS/Source/timers.c ****                                                           pxTimerTaskStackBuffer,
 246:../../../../dependencies/freertos/FreeRTOSv10.4.1/FreeRTOS/Source/timers.c ****                                                           pxTimerTaskTCBBuffer );
 247:../../../../dependencies/freertos/FreeRTOSv10.4.1/FreeRTOS/Source/timers.c **** 
 248:../../../../dependencies/freertos/FreeRTOSv10.4.1/FreeRTOS/Source/timers.c ****                     if( xTimerTaskHandle != NULL )
 249:../../../../dependencies/freertos/FreeRTOSv10.4.1/FreeRTOS/Source/timers.c ****                     {
 250:../../../../dependencies/freertos/FreeRTOSv10.4.1/FreeRTOS/Source/timers.c ****                         xReturn = pdPASS;
 251:../../../../dependencies/freertos/FreeRTOSv10.4.1/FreeRTOS/Source/timers.c ****                     }
 252:../../../../dependencies/freertos/FreeRTOSv10.4.1/FreeRTOS/Source/timers.c ****                 }
 253:../../../../dependencies/freertos/FreeRTOSv10.4.1/FreeRTOS/Source/timers.c ****             #else /* if ( configSUPPORT_STATIC_ALLOCATION == 1 ) */
ARM GAS  /var/folders/_8/_cw6l3nd335f_j6cn6z79m4m0000gn/T//ccbV1VDy.s 			page 7


 254:../../../../dependencies/freertos/FreeRTOSv10.4.1/FreeRTOS/Source/timers.c ****                 {
 255:../../../../dependencies/freertos/FreeRTOSv10.4.1/FreeRTOS/Source/timers.c ****                     xReturn = xTaskCreate( prvTimerTask,
  94              		.loc 1 255 0
  95 0016 0223     		movs	r3, #2
  96 0018 0093     		str	r3, [sp]
  97 001a 0F4B     		ldr	r3, .L6+4
  98 001c 0193     		str	r3, [sp, #4]
  99 001e 0F48     		ldr	r0, .L6+8
 100 0020 0F49     		ldr	r1, .L6+12
 101 0022 4FF48072 		mov	r2, #256
 102 0026 0023     		movs	r3, #0
 103 0028 FFF7FEFF 		bl	xTaskCreate
 104 002c 7860     		str	r0, [r7, #4]
 105              	.L2:
 256:../../../../dependencies/freertos/FreeRTOSv10.4.1/FreeRTOS/Source/timers.c ****                                            configTIMER_SERVICE_TASK_NAME,
 257:../../../../dependencies/freertos/FreeRTOSv10.4.1/FreeRTOS/Source/timers.c ****                                            configTIMER_TASK_STACK_DEPTH,
 258:../../../../dependencies/freertos/FreeRTOSv10.4.1/FreeRTOS/Source/timers.c ****                                            NULL,
 259:../../../../dependencies/freertos/FreeRTOSv10.4.1/FreeRTOS/Source/timers.c ****                                            ( ( UBaseType_t ) configTIMER_TASK_PRIORITY ) | portPRIV
 260:../../../../dependencies/freertos/FreeRTOSv10.4.1/FreeRTOS/Source/timers.c ****                                            &xTimerTaskHandle );
 261:../../../../dependencies/freertos/FreeRTOSv10.4.1/FreeRTOS/Source/timers.c ****                 }
 262:../../../../dependencies/freertos/FreeRTOSv10.4.1/FreeRTOS/Source/timers.c ****             #endif /* configSUPPORT_STATIC_ALLOCATION */
 263:../../../../dependencies/freertos/FreeRTOSv10.4.1/FreeRTOS/Source/timers.c ****         }
 264:../../../../dependencies/freertos/FreeRTOSv10.4.1/FreeRTOS/Source/timers.c ****         else
 265:../../../../dependencies/freertos/FreeRTOSv10.4.1/FreeRTOS/Source/timers.c ****         {
 266:../../../../dependencies/freertos/FreeRTOSv10.4.1/FreeRTOS/Source/timers.c ****             mtCOVERAGE_TEST_MARKER();
 267:../../../../dependencies/freertos/FreeRTOSv10.4.1/FreeRTOS/Source/timers.c ****         }
 268:../../../../dependencies/freertos/FreeRTOSv10.4.1/FreeRTOS/Source/timers.c **** 
 269:../../../../dependencies/freertos/FreeRTOSv10.4.1/FreeRTOS/Source/timers.c ****         configASSERT( xReturn );
 106              		.loc 1 269 0
 107 002e 7B68     		ldr	r3, [r7, #4]
 108 0030 002B     		cmp	r3, #0
 109 0032 09D1     		bne	.L3
 110              	.LBB34:
 111              	.LBB35:
 112              		.file 2 "../../../../dependencies/freertos/FreeRTOSv10.4.1/FreeRTOS/Source/portable/GCC/ARM_CM4F/p
   1:../../../../dependencies/freertos/FreeRTOSv10.4.1/FreeRTOS/Source/portable/GCC/ARM_CM4F/portmacro.h **** /*
   2:../../../../dependencies/freertos/FreeRTOSv10.4.1/FreeRTOS/Source/portable/GCC/ARM_CM4F/portmacro.h ****  * FreeRTOS Kernel V10.4.1
   3:../../../../dependencies/freertos/FreeRTOSv10.4.1/FreeRTOS/Source/portable/GCC/ARM_CM4F/portmacro.h ****  * Copyright (C) 2020 Amazon.com, Inc. or its affiliates.  All Rights Reserved.
   4:../../../../dependencies/freertos/FreeRTOSv10.4.1/FreeRTOS/Source/portable/GCC/ARM_CM4F/portmacro.h ****  *
   5:../../../../dependencies/freertos/FreeRTOSv10.4.1/FreeRTOS/Source/portable/GCC/ARM_CM4F/portmacro.h ****  * Permission is hereby granted, free of charge, to any person obtaining a copy of
   6:../../../../dependencies/freertos/FreeRTOSv10.4.1/FreeRTOS/Source/portable/GCC/ARM_CM4F/portmacro.h ****  * this software and associated documentation files (the "Software"), to deal in
   7:../../../../dependencies/freertos/FreeRTOSv10.4.1/FreeRTOS/Source/portable/GCC/ARM_CM4F/portmacro.h ****  * the Software without restriction, including without limitation the rights to
   8:../../../../dependencies/freertos/FreeRTOSv10.4.1/FreeRTOS/Source/portable/GCC/ARM_CM4F/portmacro.h ****  * use, copy, modify, merge, publish, distribute, sublicense, and/or sell copies of
   9:../../../../dependencies/freertos/FreeRTOSv10.4.1/FreeRTOS/Source/portable/GCC/ARM_CM4F/portmacro.h ****  * the Software, and to permit persons to whom the Software is furnished to do so,
  10:../../../../dependencies/freertos/FreeRTOSv10.4.1/FreeRTOS/Source/portable/GCC/ARM_CM4F/portmacro.h ****  * subject to the following conditions:
  11:../../../../dependencies/freertos/FreeRTOSv10.4.1/FreeRTOS/Source/portable/GCC/ARM_CM4F/portmacro.h ****  *
  12:../../../../dependencies/freertos/FreeRTOSv10.4.1/FreeRTOS/Source/portable/GCC/ARM_CM4F/portmacro.h ****  * The above copyright notice and this permission notice shall be included in all
  13:../../../../dependencies/freertos/FreeRTOSv10.4.1/FreeRTOS/Source/portable/GCC/ARM_CM4F/portmacro.h ****  * copies or substantial portions of the Software.
  14:../../../../dependencies/freertos/FreeRTOSv10.4.1/FreeRTOS/Source/portable/GCC/ARM_CM4F/portmacro.h ****  *
  15:../../../../dependencies/freertos/FreeRTOSv10.4.1/FreeRTOS/Source/portable/GCC/ARM_CM4F/portmacro.h ****  * THE SOFTWARE IS PROVIDED "AS IS", WITHOUT WARRANTY OF ANY KIND, EXPRESS OR
  16:../../../../dependencies/freertos/FreeRTOSv10.4.1/FreeRTOS/Source/portable/GCC/ARM_CM4F/portmacro.h ****  * IMPLIED, INCLUDING BUT NOT LIMITED TO THE WARRANTIES OF MERCHANTABILITY, FITNESS
  17:../../../../dependencies/freertos/FreeRTOSv10.4.1/FreeRTOS/Source/portable/GCC/ARM_CM4F/portmacro.h ****  * FOR A PARTICULAR PURPOSE AND NONINFRINGEMENT. IN NO EVENT SHALL THE AUTHORS OR
  18:../../../../dependencies/freertos/FreeRTOSv10.4.1/FreeRTOS/Source/portable/GCC/ARM_CM4F/portmacro.h ****  * COPYRIGHT HOLDERS BE LIABLE FOR ANY CLAIM, DAMAGES OR OTHER LIABILITY, WHETHER
  19:../../../../dependencies/freertos/FreeRTOSv10.4.1/FreeRTOS/Source/portable/GCC/ARM_CM4F/portmacro.h ****  * IN AN ACTION OF CONTRACT, TORT OR OTHERWISE, ARISING FROM, OUT OF OR IN
  20:../../../../dependencies/freertos/FreeRTOSv10.4.1/FreeRTOS/Source/portable/GCC/ARM_CM4F/portmacro.h ****  * CONNECTION WITH THE SOFTWARE OR THE USE OR OTHER DEALINGS IN THE SOFTWARE.
  21:../../../../dependencies/freertos/FreeRTOSv10.4.1/FreeRTOS/Source/portable/GCC/ARM_CM4F/portmacro.h ****  *
  22:../../../../dependencies/freertos/FreeRTOSv10.4.1/FreeRTOS/Source/portable/GCC/ARM_CM4F/portmacro.h ****  * https://www.FreeRTOS.org
ARM GAS  /var/folders/_8/_cw6l3nd335f_j6cn6z79m4m0000gn/T//ccbV1VDy.s 			page 8


  23:../../../../dependencies/freertos/FreeRTOSv10.4.1/FreeRTOS/Source/portable/GCC/ARM_CM4F/portmacro.h ****  * https://github.com/FreeRTOS
  24:../../../../dependencies/freertos/FreeRTOSv10.4.1/FreeRTOS/Source/portable/GCC/ARM_CM4F/portmacro.h ****  *
  25:../../../../dependencies/freertos/FreeRTOSv10.4.1/FreeRTOS/Source/portable/GCC/ARM_CM4F/portmacro.h ****  * 1 tab == 4 spaces!
  26:../../../../dependencies/freertos/FreeRTOSv10.4.1/FreeRTOS/Source/portable/GCC/ARM_CM4F/portmacro.h ****  */
  27:../../../../dependencies/freertos/FreeRTOSv10.4.1/FreeRTOS/Source/portable/GCC/ARM_CM4F/portmacro.h **** 
  28:../../../../dependencies/freertos/FreeRTOSv10.4.1/FreeRTOS/Source/portable/GCC/ARM_CM4F/portmacro.h **** 
  29:../../../../dependencies/freertos/FreeRTOSv10.4.1/FreeRTOS/Source/portable/GCC/ARM_CM4F/portmacro.h **** #ifndef PORTMACRO_H
  30:../../../../dependencies/freertos/FreeRTOSv10.4.1/FreeRTOS/Source/portable/GCC/ARM_CM4F/portmacro.h ****     #define PORTMACRO_H
  31:../../../../dependencies/freertos/FreeRTOSv10.4.1/FreeRTOS/Source/portable/GCC/ARM_CM4F/portmacro.h **** 
  32:../../../../dependencies/freertos/FreeRTOSv10.4.1/FreeRTOS/Source/portable/GCC/ARM_CM4F/portmacro.h ****     #ifdef __cplusplus
  33:../../../../dependencies/freertos/FreeRTOSv10.4.1/FreeRTOS/Source/portable/GCC/ARM_CM4F/portmacro.h ****         extern "C" {
  34:../../../../dependencies/freertos/FreeRTOSv10.4.1/FreeRTOS/Source/portable/GCC/ARM_CM4F/portmacro.h ****     #endif
  35:../../../../dependencies/freertos/FreeRTOSv10.4.1/FreeRTOS/Source/portable/GCC/ARM_CM4F/portmacro.h **** 
  36:../../../../dependencies/freertos/FreeRTOSv10.4.1/FreeRTOS/Source/portable/GCC/ARM_CM4F/portmacro.h **** /*-----------------------------------------------------------
  37:../../../../dependencies/freertos/FreeRTOSv10.4.1/FreeRTOS/Source/portable/GCC/ARM_CM4F/portmacro.h ****  * Port specific definitions.
  38:../../../../dependencies/freertos/FreeRTOSv10.4.1/FreeRTOS/Source/portable/GCC/ARM_CM4F/portmacro.h ****  *
  39:../../../../dependencies/freertos/FreeRTOSv10.4.1/FreeRTOS/Source/portable/GCC/ARM_CM4F/portmacro.h ****  * The settings in this file configure FreeRTOS correctly for the
  40:../../../../dependencies/freertos/FreeRTOSv10.4.1/FreeRTOS/Source/portable/GCC/ARM_CM4F/portmacro.h ****  * given hardware and compiler.
  41:../../../../dependencies/freertos/FreeRTOSv10.4.1/FreeRTOS/Source/portable/GCC/ARM_CM4F/portmacro.h ****  *
  42:../../../../dependencies/freertos/FreeRTOSv10.4.1/FreeRTOS/Source/portable/GCC/ARM_CM4F/portmacro.h ****  * These settings should not be altered.
  43:../../../../dependencies/freertos/FreeRTOSv10.4.1/FreeRTOS/Source/portable/GCC/ARM_CM4F/portmacro.h ****  *-----------------------------------------------------------
  44:../../../../dependencies/freertos/FreeRTOSv10.4.1/FreeRTOS/Source/portable/GCC/ARM_CM4F/portmacro.h ****  */
  45:../../../../dependencies/freertos/FreeRTOSv10.4.1/FreeRTOS/Source/portable/GCC/ARM_CM4F/portmacro.h **** 
  46:../../../../dependencies/freertos/FreeRTOSv10.4.1/FreeRTOS/Source/portable/GCC/ARM_CM4F/portmacro.h **** /* Type definitions. */
  47:../../../../dependencies/freertos/FreeRTOSv10.4.1/FreeRTOS/Source/portable/GCC/ARM_CM4F/portmacro.h ****     #define portCHAR          char
  48:../../../../dependencies/freertos/FreeRTOSv10.4.1/FreeRTOS/Source/portable/GCC/ARM_CM4F/portmacro.h ****     #define portFLOAT         float
  49:../../../../dependencies/freertos/FreeRTOSv10.4.1/FreeRTOS/Source/portable/GCC/ARM_CM4F/portmacro.h ****     #define portDOUBLE        double
  50:../../../../dependencies/freertos/FreeRTOSv10.4.1/FreeRTOS/Source/portable/GCC/ARM_CM4F/portmacro.h ****     #define portLONG          long
  51:../../../../dependencies/freertos/FreeRTOSv10.4.1/FreeRTOS/Source/portable/GCC/ARM_CM4F/portmacro.h ****     #define portSHORT         short
  52:../../../../dependencies/freertos/FreeRTOSv10.4.1/FreeRTOS/Source/portable/GCC/ARM_CM4F/portmacro.h ****     #define portSTACK_TYPE    uint32_t
  53:../../../../dependencies/freertos/FreeRTOSv10.4.1/FreeRTOS/Source/portable/GCC/ARM_CM4F/portmacro.h ****     #define portBASE_TYPE     long
  54:../../../../dependencies/freertos/FreeRTOSv10.4.1/FreeRTOS/Source/portable/GCC/ARM_CM4F/portmacro.h **** 
  55:../../../../dependencies/freertos/FreeRTOSv10.4.1/FreeRTOS/Source/portable/GCC/ARM_CM4F/portmacro.h ****     typedef portSTACK_TYPE   StackType_t;
  56:../../../../dependencies/freertos/FreeRTOSv10.4.1/FreeRTOS/Source/portable/GCC/ARM_CM4F/portmacro.h ****     typedef long             BaseType_t;
  57:../../../../dependencies/freertos/FreeRTOSv10.4.1/FreeRTOS/Source/portable/GCC/ARM_CM4F/portmacro.h ****     typedef unsigned long    UBaseType_t;
  58:../../../../dependencies/freertos/FreeRTOSv10.4.1/FreeRTOS/Source/portable/GCC/ARM_CM4F/portmacro.h **** 
  59:../../../../dependencies/freertos/FreeRTOSv10.4.1/FreeRTOS/Source/portable/GCC/ARM_CM4F/portmacro.h ****     #if ( configUSE_16_BIT_TICKS == 1 )
  60:../../../../dependencies/freertos/FreeRTOSv10.4.1/FreeRTOS/Source/portable/GCC/ARM_CM4F/portmacro.h ****         typedef uint16_t     TickType_t;
  61:../../../../dependencies/freertos/FreeRTOSv10.4.1/FreeRTOS/Source/portable/GCC/ARM_CM4F/portmacro.h ****         #define portMAX_DELAY              ( TickType_t ) 0xffff
  62:../../../../dependencies/freertos/FreeRTOSv10.4.1/FreeRTOS/Source/portable/GCC/ARM_CM4F/portmacro.h ****     #else
  63:../../../../dependencies/freertos/FreeRTOSv10.4.1/FreeRTOS/Source/portable/GCC/ARM_CM4F/portmacro.h ****         typedef uint32_t     TickType_t;
  64:../../../../dependencies/freertos/FreeRTOSv10.4.1/FreeRTOS/Source/portable/GCC/ARM_CM4F/portmacro.h ****         #define portMAX_DELAY              ( TickType_t ) 0xffffffffUL
  65:../../../../dependencies/freertos/FreeRTOSv10.4.1/FreeRTOS/Source/portable/GCC/ARM_CM4F/portmacro.h **** 
  66:../../../../dependencies/freertos/FreeRTOSv10.4.1/FreeRTOS/Source/portable/GCC/ARM_CM4F/portmacro.h **** /* 32-bit tick type on a 32-bit architecture, so reads of the tick count do
  67:../../../../dependencies/freertos/FreeRTOSv10.4.1/FreeRTOS/Source/portable/GCC/ARM_CM4F/portmacro.h ****  * not need to be guarded with a critical section. */
  68:../../../../dependencies/freertos/FreeRTOSv10.4.1/FreeRTOS/Source/portable/GCC/ARM_CM4F/portmacro.h ****         #define portTICK_TYPE_IS_ATOMIC    1
  69:../../../../dependencies/freertos/FreeRTOSv10.4.1/FreeRTOS/Source/portable/GCC/ARM_CM4F/portmacro.h ****     #endif
  70:../../../../dependencies/freertos/FreeRTOSv10.4.1/FreeRTOS/Source/portable/GCC/ARM_CM4F/portmacro.h **** /*-----------------------------------------------------------*/
  71:../../../../dependencies/freertos/FreeRTOSv10.4.1/FreeRTOS/Source/portable/GCC/ARM_CM4F/portmacro.h **** 
  72:../../../../dependencies/freertos/FreeRTOSv10.4.1/FreeRTOS/Source/portable/GCC/ARM_CM4F/portmacro.h **** /* Architecture specifics. */
  73:../../../../dependencies/freertos/FreeRTOSv10.4.1/FreeRTOS/Source/portable/GCC/ARM_CM4F/portmacro.h ****     #define portSTACK_GROWTH      ( -1 )
  74:../../../../dependencies/freertos/FreeRTOSv10.4.1/FreeRTOS/Source/portable/GCC/ARM_CM4F/portmacro.h ****     #define portTICK_PERIOD_MS    ( ( TickType_t ) 1000 / configTICK_RATE_HZ )
  75:../../../../dependencies/freertos/FreeRTOSv10.4.1/FreeRTOS/Source/portable/GCC/ARM_CM4F/portmacro.h ****     #define portBYTE_ALIGNMENT    8
  76:../../../../dependencies/freertos/FreeRTOSv10.4.1/FreeRTOS/Source/portable/GCC/ARM_CM4F/portmacro.h ****     #define portDONT_DISCARD      __attribute__( ( used ) )
  77:../../../../dependencies/freertos/FreeRTOSv10.4.1/FreeRTOS/Source/portable/GCC/ARM_CM4F/portmacro.h **** /*-----------------------------------------------------------*/
  78:../../../../dependencies/freertos/FreeRTOSv10.4.1/FreeRTOS/Source/portable/GCC/ARM_CM4F/portmacro.h **** 
  79:../../../../dependencies/freertos/FreeRTOSv10.4.1/FreeRTOS/Source/portable/GCC/ARM_CM4F/portmacro.h **** /* Scheduler utilities. */
ARM GAS  /var/folders/_8/_cw6l3nd335f_j6cn6z79m4m0000gn/T//ccbV1VDy.s 			page 9


  80:../../../../dependencies/freertos/FreeRTOSv10.4.1/FreeRTOS/Source/portable/GCC/ARM_CM4F/portmacro.h ****     #define portYIELD()                                 \
  81:../../../../dependencies/freertos/FreeRTOSv10.4.1/FreeRTOS/Source/portable/GCC/ARM_CM4F/portmacro.h ****     {                                                   \
  82:../../../../dependencies/freertos/FreeRTOSv10.4.1/FreeRTOS/Source/portable/GCC/ARM_CM4F/portmacro.h ****         /* Set a PendSV to request a context switch. */ \
  83:../../../../dependencies/freertos/FreeRTOSv10.4.1/FreeRTOS/Source/portable/GCC/ARM_CM4F/portmacro.h ****         portNVIC_INT_CTRL_REG = portNVIC_PENDSVSET_BIT; \
  84:../../../../dependencies/freertos/FreeRTOSv10.4.1/FreeRTOS/Source/portable/GCC/ARM_CM4F/portmacro.h ****                                                         \
  85:../../../../dependencies/freertos/FreeRTOSv10.4.1/FreeRTOS/Source/portable/GCC/ARM_CM4F/portmacro.h ****         /* Barriers are normally not required but do ensure the code is completely \
  86:../../../../dependencies/freertos/FreeRTOSv10.4.1/FreeRTOS/Source/portable/GCC/ARM_CM4F/portmacro.h ****          * within the specified behaviour for the architecture. */ \
  87:../../../../dependencies/freertos/FreeRTOSv10.4.1/FreeRTOS/Source/portable/GCC/ARM_CM4F/portmacro.h ****         __asm volatile ( "dsb" ::: "memory" );                     \
  88:../../../../dependencies/freertos/FreeRTOSv10.4.1/FreeRTOS/Source/portable/GCC/ARM_CM4F/portmacro.h ****         __asm volatile ( "isb" );                                  \
  89:../../../../dependencies/freertos/FreeRTOSv10.4.1/FreeRTOS/Source/portable/GCC/ARM_CM4F/portmacro.h ****     }
  90:../../../../dependencies/freertos/FreeRTOSv10.4.1/FreeRTOS/Source/portable/GCC/ARM_CM4F/portmacro.h **** 
  91:../../../../dependencies/freertos/FreeRTOSv10.4.1/FreeRTOS/Source/portable/GCC/ARM_CM4F/portmacro.h ****     #define portNVIC_INT_CTRL_REG     ( *( ( volatile uint32_t * ) 0xe000ed04 ) )
  92:../../../../dependencies/freertos/FreeRTOSv10.4.1/FreeRTOS/Source/portable/GCC/ARM_CM4F/portmacro.h ****     #define portNVIC_PENDSVSET_BIT    ( 1UL << 28UL )
  93:../../../../dependencies/freertos/FreeRTOSv10.4.1/FreeRTOS/Source/portable/GCC/ARM_CM4F/portmacro.h ****     #define portEND_SWITCHING_ISR( xSwitchRequired )    if( xSwitchRequired != pdFALSE ) portYIELD(
  94:../../../../dependencies/freertos/FreeRTOSv10.4.1/FreeRTOS/Source/portable/GCC/ARM_CM4F/portmacro.h ****     #define portYIELD_FROM_ISR( x )                     portEND_SWITCHING_ISR( x )
  95:../../../../dependencies/freertos/FreeRTOSv10.4.1/FreeRTOS/Source/portable/GCC/ARM_CM4F/portmacro.h **** /*-----------------------------------------------------------*/
  96:../../../../dependencies/freertos/FreeRTOSv10.4.1/FreeRTOS/Source/portable/GCC/ARM_CM4F/portmacro.h **** 
  97:../../../../dependencies/freertos/FreeRTOSv10.4.1/FreeRTOS/Source/portable/GCC/ARM_CM4F/portmacro.h **** /* Critical section management. */
  98:../../../../dependencies/freertos/FreeRTOSv10.4.1/FreeRTOS/Source/portable/GCC/ARM_CM4F/portmacro.h ****     extern void vPortEnterCritical( void );
  99:../../../../dependencies/freertos/FreeRTOSv10.4.1/FreeRTOS/Source/portable/GCC/ARM_CM4F/portmacro.h ****     extern void vPortExitCritical( void );
 100:../../../../dependencies/freertos/FreeRTOSv10.4.1/FreeRTOS/Source/portable/GCC/ARM_CM4F/portmacro.h ****     #define portSET_INTERRUPT_MASK_FROM_ISR()         ulPortRaiseBASEPRI()
 101:../../../../dependencies/freertos/FreeRTOSv10.4.1/FreeRTOS/Source/portable/GCC/ARM_CM4F/portmacro.h ****     #define portCLEAR_INTERRUPT_MASK_FROM_ISR( x )    vPortSetBASEPRI( x )
 102:../../../../dependencies/freertos/FreeRTOSv10.4.1/FreeRTOS/Source/portable/GCC/ARM_CM4F/portmacro.h ****     #define portDISABLE_INTERRUPTS()                  vPortRaiseBASEPRI()
 103:../../../../dependencies/freertos/FreeRTOSv10.4.1/FreeRTOS/Source/portable/GCC/ARM_CM4F/portmacro.h ****     #define portENABLE_INTERRUPTS()                   vPortSetBASEPRI( 0 )
 104:../../../../dependencies/freertos/FreeRTOSv10.4.1/FreeRTOS/Source/portable/GCC/ARM_CM4F/portmacro.h ****     #define portENTER_CRITICAL()                      vPortEnterCritical()
 105:../../../../dependencies/freertos/FreeRTOSv10.4.1/FreeRTOS/Source/portable/GCC/ARM_CM4F/portmacro.h ****     #define portEXIT_CRITICAL()                       vPortExitCritical()
 106:../../../../dependencies/freertos/FreeRTOSv10.4.1/FreeRTOS/Source/portable/GCC/ARM_CM4F/portmacro.h **** 
 107:../../../../dependencies/freertos/FreeRTOSv10.4.1/FreeRTOS/Source/portable/GCC/ARM_CM4F/portmacro.h **** /*-----------------------------------------------------------*/
 108:../../../../dependencies/freertos/FreeRTOSv10.4.1/FreeRTOS/Source/portable/GCC/ARM_CM4F/portmacro.h **** 
 109:../../../../dependencies/freertos/FreeRTOSv10.4.1/FreeRTOS/Source/portable/GCC/ARM_CM4F/portmacro.h **** /* Task function macros as described on the FreeRTOS.org WEB site.  These are
 110:../../../../dependencies/freertos/FreeRTOSv10.4.1/FreeRTOS/Source/portable/GCC/ARM_CM4F/portmacro.h ****  * not necessary for to use this port.  They are defined so the common demo files
 111:../../../../dependencies/freertos/FreeRTOSv10.4.1/FreeRTOS/Source/portable/GCC/ARM_CM4F/portmacro.h ****  * (which build with all the ports) will build. */
 112:../../../../dependencies/freertos/FreeRTOSv10.4.1/FreeRTOS/Source/portable/GCC/ARM_CM4F/portmacro.h ****     #define portTASK_FUNCTION_PROTO( vFunction, pvParameters )    void vFunction( void * pvParamete
 113:../../../../dependencies/freertos/FreeRTOSv10.4.1/FreeRTOS/Source/portable/GCC/ARM_CM4F/portmacro.h ****     #define portTASK_FUNCTION( vFunction, pvParameters )          void vFunction( void * pvParamete
 114:../../../../dependencies/freertos/FreeRTOSv10.4.1/FreeRTOS/Source/portable/GCC/ARM_CM4F/portmacro.h **** /*-----------------------------------------------------------*/
 115:../../../../dependencies/freertos/FreeRTOSv10.4.1/FreeRTOS/Source/portable/GCC/ARM_CM4F/portmacro.h **** 
 116:../../../../dependencies/freertos/FreeRTOSv10.4.1/FreeRTOS/Source/portable/GCC/ARM_CM4F/portmacro.h **** /* Tickless idle/low power functionality. */
 117:../../../../dependencies/freertos/FreeRTOSv10.4.1/FreeRTOS/Source/portable/GCC/ARM_CM4F/portmacro.h ****     #ifndef portSUPPRESS_TICKS_AND_SLEEP
 118:../../../../dependencies/freertos/FreeRTOSv10.4.1/FreeRTOS/Source/portable/GCC/ARM_CM4F/portmacro.h ****         extern void vPortSuppressTicksAndSleep( TickType_t xExpectedIdleTime );
 119:../../../../dependencies/freertos/FreeRTOSv10.4.1/FreeRTOS/Source/portable/GCC/ARM_CM4F/portmacro.h ****         #define portSUPPRESS_TICKS_AND_SLEEP( xExpectedIdleTime )    vPortSuppressTicksAndSleep( xE
 120:../../../../dependencies/freertos/FreeRTOSv10.4.1/FreeRTOS/Source/portable/GCC/ARM_CM4F/portmacro.h ****     #endif
 121:../../../../dependencies/freertos/FreeRTOSv10.4.1/FreeRTOS/Source/portable/GCC/ARM_CM4F/portmacro.h **** /*-----------------------------------------------------------*/
 122:../../../../dependencies/freertos/FreeRTOSv10.4.1/FreeRTOS/Source/portable/GCC/ARM_CM4F/portmacro.h **** 
 123:../../../../dependencies/freertos/FreeRTOSv10.4.1/FreeRTOS/Source/portable/GCC/ARM_CM4F/portmacro.h **** /* Architecture specific optimisations. */
 124:../../../../dependencies/freertos/FreeRTOSv10.4.1/FreeRTOS/Source/portable/GCC/ARM_CM4F/portmacro.h ****     #ifndef configUSE_PORT_OPTIMISED_TASK_SELECTION
 125:../../../../dependencies/freertos/FreeRTOSv10.4.1/FreeRTOS/Source/portable/GCC/ARM_CM4F/portmacro.h ****         #define configUSE_PORT_OPTIMISED_TASK_SELECTION    1
 126:../../../../dependencies/freertos/FreeRTOSv10.4.1/FreeRTOS/Source/portable/GCC/ARM_CM4F/portmacro.h ****     #endif
 127:../../../../dependencies/freertos/FreeRTOSv10.4.1/FreeRTOS/Source/portable/GCC/ARM_CM4F/portmacro.h **** 
 128:../../../../dependencies/freertos/FreeRTOSv10.4.1/FreeRTOS/Source/portable/GCC/ARM_CM4F/portmacro.h ****     #if configUSE_PORT_OPTIMISED_TASK_SELECTION == 1
 129:../../../../dependencies/freertos/FreeRTOSv10.4.1/FreeRTOS/Source/portable/GCC/ARM_CM4F/portmacro.h **** 
 130:../../../../dependencies/freertos/FreeRTOSv10.4.1/FreeRTOS/Source/portable/GCC/ARM_CM4F/portmacro.h **** /* Generic helper function. */
 131:../../../../dependencies/freertos/FreeRTOSv10.4.1/FreeRTOS/Source/portable/GCC/ARM_CM4F/portmacro.h ****         __attribute__( ( always_inline ) ) static inline uint8_t ucPortCountLeadingZeros( uint32_t 
 132:../../../../dependencies/freertos/FreeRTOSv10.4.1/FreeRTOS/Source/portable/GCC/ARM_CM4F/portmacro.h ****         {
 133:../../../../dependencies/freertos/FreeRTOSv10.4.1/FreeRTOS/Source/portable/GCC/ARM_CM4F/portmacro.h ****             uint8_t ucReturn;
 134:../../../../dependencies/freertos/FreeRTOSv10.4.1/FreeRTOS/Source/portable/GCC/ARM_CM4F/portmacro.h **** 
 135:../../../../dependencies/freertos/FreeRTOSv10.4.1/FreeRTOS/Source/portable/GCC/ARM_CM4F/portmacro.h ****             __asm volatile ( "clz %0, %1" : "=r" ( ucReturn ) : "r" ( ulBitmap ) : "memory" );
 136:../../../../dependencies/freertos/FreeRTOSv10.4.1/FreeRTOS/Source/portable/GCC/ARM_CM4F/portmacro.h **** 
ARM GAS  /var/folders/_8/_cw6l3nd335f_j6cn6z79m4m0000gn/T//ccbV1VDy.s 			page 10


 137:../../../../dependencies/freertos/FreeRTOSv10.4.1/FreeRTOS/Source/portable/GCC/ARM_CM4F/portmacro.h ****             return ucReturn;
 138:../../../../dependencies/freertos/FreeRTOSv10.4.1/FreeRTOS/Source/portable/GCC/ARM_CM4F/portmacro.h ****         }
 139:../../../../dependencies/freertos/FreeRTOSv10.4.1/FreeRTOS/Source/portable/GCC/ARM_CM4F/portmacro.h **** 
 140:../../../../dependencies/freertos/FreeRTOSv10.4.1/FreeRTOS/Source/portable/GCC/ARM_CM4F/portmacro.h **** /* Check the configuration. */
 141:../../../../dependencies/freertos/FreeRTOSv10.4.1/FreeRTOS/Source/portable/GCC/ARM_CM4F/portmacro.h ****         #if ( configMAX_PRIORITIES > 32 )
 142:../../../../dependencies/freertos/FreeRTOSv10.4.1/FreeRTOS/Source/portable/GCC/ARM_CM4F/portmacro.h ****             #error configUSE_PORT_OPTIMISED_TASK_SELECTION can only be set to 1 when configMAX_PRIO
 143:../../../../dependencies/freertos/FreeRTOSv10.4.1/FreeRTOS/Source/portable/GCC/ARM_CM4F/portmacro.h ****         #endif
 144:../../../../dependencies/freertos/FreeRTOSv10.4.1/FreeRTOS/Source/portable/GCC/ARM_CM4F/portmacro.h **** 
 145:../../../../dependencies/freertos/FreeRTOSv10.4.1/FreeRTOS/Source/portable/GCC/ARM_CM4F/portmacro.h **** /* Store/clear the ready priorities in a bit map. */
 146:../../../../dependencies/freertos/FreeRTOSv10.4.1/FreeRTOS/Source/portable/GCC/ARM_CM4F/portmacro.h ****         #define portRECORD_READY_PRIORITY( uxPriority, uxReadyPriorities )    ( uxReadyPriorities )
 147:../../../../dependencies/freertos/FreeRTOSv10.4.1/FreeRTOS/Source/portable/GCC/ARM_CM4F/portmacro.h ****         #define portRESET_READY_PRIORITY( uxPriority, uxReadyPriorities )     ( uxReadyPriorities )
 148:../../../../dependencies/freertos/FreeRTOSv10.4.1/FreeRTOS/Source/portable/GCC/ARM_CM4F/portmacro.h **** 
 149:../../../../dependencies/freertos/FreeRTOSv10.4.1/FreeRTOS/Source/portable/GCC/ARM_CM4F/portmacro.h **** /*-----------------------------------------------------------*/
 150:../../../../dependencies/freertos/FreeRTOSv10.4.1/FreeRTOS/Source/portable/GCC/ARM_CM4F/portmacro.h **** 
 151:../../../../dependencies/freertos/FreeRTOSv10.4.1/FreeRTOS/Source/portable/GCC/ARM_CM4F/portmacro.h ****         #define portGET_HIGHEST_PRIORITY( uxTopPriority, uxReadyPriorities )    uxTopPriority = ( 3
 152:../../../../dependencies/freertos/FreeRTOSv10.4.1/FreeRTOS/Source/portable/GCC/ARM_CM4F/portmacro.h **** 
 153:../../../../dependencies/freertos/FreeRTOSv10.4.1/FreeRTOS/Source/portable/GCC/ARM_CM4F/portmacro.h ****     #endif /* configUSE_PORT_OPTIMISED_TASK_SELECTION */
 154:../../../../dependencies/freertos/FreeRTOSv10.4.1/FreeRTOS/Source/portable/GCC/ARM_CM4F/portmacro.h **** 
 155:../../../../dependencies/freertos/FreeRTOSv10.4.1/FreeRTOS/Source/portable/GCC/ARM_CM4F/portmacro.h **** /*-----------------------------------------------------------*/
 156:../../../../dependencies/freertos/FreeRTOSv10.4.1/FreeRTOS/Source/portable/GCC/ARM_CM4F/portmacro.h **** 
 157:../../../../dependencies/freertos/FreeRTOSv10.4.1/FreeRTOS/Source/portable/GCC/ARM_CM4F/portmacro.h ****     #ifdef configASSERT
 158:../../../../dependencies/freertos/FreeRTOSv10.4.1/FreeRTOS/Source/portable/GCC/ARM_CM4F/portmacro.h ****         void vPortValidateInterruptPriority( void );
 159:../../../../dependencies/freertos/FreeRTOSv10.4.1/FreeRTOS/Source/portable/GCC/ARM_CM4F/portmacro.h ****         #define portASSERT_IF_INTERRUPT_PRIORITY_INVALID()    vPortValidateInterruptPriority()
 160:../../../../dependencies/freertos/FreeRTOSv10.4.1/FreeRTOS/Source/portable/GCC/ARM_CM4F/portmacro.h ****     #endif
 161:../../../../dependencies/freertos/FreeRTOSv10.4.1/FreeRTOS/Source/portable/GCC/ARM_CM4F/portmacro.h **** 
 162:../../../../dependencies/freertos/FreeRTOSv10.4.1/FreeRTOS/Source/portable/GCC/ARM_CM4F/portmacro.h **** /* portNOP() is not required by this port. */
 163:../../../../dependencies/freertos/FreeRTOSv10.4.1/FreeRTOS/Source/portable/GCC/ARM_CM4F/portmacro.h ****     #define portNOP()
 164:../../../../dependencies/freertos/FreeRTOSv10.4.1/FreeRTOS/Source/portable/GCC/ARM_CM4F/portmacro.h **** 
 165:../../../../dependencies/freertos/FreeRTOSv10.4.1/FreeRTOS/Source/portable/GCC/ARM_CM4F/portmacro.h ****     #define portINLINE              __inline
 166:../../../../dependencies/freertos/FreeRTOSv10.4.1/FreeRTOS/Source/portable/GCC/ARM_CM4F/portmacro.h **** 
 167:../../../../dependencies/freertos/FreeRTOSv10.4.1/FreeRTOS/Source/portable/GCC/ARM_CM4F/portmacro.h ****     #ifndef portFORCE_INLINE
 168:../../../../dependencies/freertos/FreeRTOSv10.4.1/FreeRTOS/Source/portable/GCC/ARM_CM4F/portmacro.h ****         #define portFORCE_INLINE    inline __attribute__( ( always_inline ) )
 169:../../../../dependencies/freertos/FreeRTOSv10.4.1/FreeRTOS/Source/portable/GCC/ARM_CM4F/portmacro.h ****     #endif
 170:../../../../dependencies/freertos/FreeRTOSv10.4.1/FreeRTOS/Source/portable/GCC/ARM_CM4F/portmacro.h **** 
 171:../../../../dependencies/freertos/FreeRTOSv10.4.1/FreeRTOS/Source/portable/GCC/ARM_CM4F/portmacro.h ****     portFORCE_INLINE static BaseType_t xPortIsInsideInterrupt( void )
 172:../../../../dependencies/freertos/FreeRTOSv10.4.1/FreeRTOS/Source/portable/GCC/ARM_CM4F/portmacro.h ****     {
 173:../../../../dependencies/freertos/FreeRTOSv10.4.1/FreeRTOS/Source/portable/GCC/ARM_CM4F/portmacro.h ****         uint32_t ulCurrentInterrupt;
 174:../../../../dependencies/freertos/FreeRTOSv10.4.1/FreeRTOS/Source/portable/GCC/ARM_CM4F/portmacro.h ****         BaseType_t xReturn;
 175:../../../../dependencies/freertos/FreeRTOSv10.4.1/FreeRTOS/Source/portable/GCC/ARM_CM4F/portmacro.h **** 
 176:../../../../dependencies/freertos/FreeRTOSv10.4.1/FreeRTOS/Source/portable/GCC/ARM_CM4F/portmacro.h ****         /* Obtain the number of the currently executing interrupt. */
 177:../../../../dependencies/freertos/FreeRTOSv10.4.1/FreeRTOS/Source/portable/GCC/ARM_CM4F/portmacro.h ****         __asm volatile ( "mrs %0, ipsr" : "=r" ( ulCurrentInterrupt )::"memory" );
 178:../../../../dependencies/freertos/FreeRTOSv10.4.1/FreeRTOS/Source/portable/GCC/ARM_CM4F/portmacro.h **** 
 179:../../../../dependencies/freertos/FreeRTOSv10.4.1/FreeRTOS/Source/portable/GCC/ARM_CM4F/portmacro.h ****         if( ulCurrentInterrupt == 0 )
 180:../../../../dependencies/freertos/FreeRTOSv10.4.1/FreeRTOS/Source/portable/GCC/ARM_CM4F/portmacro.h ****         {
 181:../../../../dependencies/freertos/FreeRTOSv10.4.1/FreeRTOS/Source/portable/GCC/ARM_CM4F/portmacro.h ****             xReturn = pdFALSE;
 182:../../../../dependencies/freertos/FreeRTOSv10.4.1/FreeRTOS/Source/portable/GCC/ARM_CM4F/portmacro.h ****         }
 183:../../../../dependencies/freertos/FreeRTOSv10.4.1/FreeRTOS/Source/portable/GCC/ARM_CM4F/portmacro.h ****         else
 184:../../../../dependencies/freertos/FreeRTOSv10.4.1/FreeRTOS/Source/portable/GCC/ARM_CM4F/portmacro.h ****         {
 185:../../../../dependencies/freertos/FreeRTOSv10.4.1/FreeRTOS/Source/portable/GCC/ARM_CM4F/portmacro.h ****             xReturn = pdTRUE;
 186:../../../../dependencies/freertos/FreeRTOSv10.4.1/FreeRTOS/Source/portable/GCC/ARM_CM4F/portmacro.h ****         }
 187:../../../../dependencies/freertos/FreeRTOSv10.4.1/FreeRTOS/Source/portable/GCC/ARM_CM4F/portmacro.h **** 
 188:../../../../dependencies/freertos/FreeRTOSv10.4.1/FreeRTOS/Source/portable/GCC/ARM_CM4F/portmacro.h ****         return xReturn;
 189:../../../../dependencies/freertos/FreeRTOSv10.4.1/FreeRTOS/Source/portable/GCC/ARM_CM4F/portmacro.h ****     }
 190:../../../../dependencies/freertos/FreeRTOSv10.4.1/FreeRTOS/Source/portable/GCC/ARM_CM4F/portmacro.h **** 
 191:../../../../dependencies/freertos/FreeRTOSv10.4.1/FreeRTOS/Source/portable/GCC/ARM_CM4F/portmacro.h **** /*-----------------------------------------------------------*/
 192:../../../../dependencies/freertos/FreeRTOSv10.4.1/FreeRTOS/Source/portable/GCC/ARM_CM4F/portmacro.h **** 
 193:../../../../dependencies/freertos/FreeRTOSv10.4.1/FreeRTOS/Source/portable/GCC/ARM_CM4F/portmacro.h ****     portFORCE_INLINE static void vPortRaiseBASEPRI( void )
ARM GAS  /var/folders/_8/_cw6l3nd335f_j6cn6z79m4m0000gn/T//ccbV1VDy.s 			page 11


 194:../../../../dependencies/freertos/FreeRTOSv10.4.1/FreeRTOS/Source/portable/GCC/ARM_CM4F/portmacro.h ****     {
 195:../../../../dependencies/freertos/FreeRTOSv10.4.1/FreeRTOS/Source/portable/GCC/ARM_CM4F/portmacro.h ****         uint32_t ulNewBASEPRI;
 196:../../../../dependencies/freertos/FreeRTOSv10.4.1/FreeRTOS/Source/portable/GCC/ARM_CM4F/portmacro.h **** 
 197:../../../../dependencies/freertos/FreeRTOSv10.4.1/FreeRTOS/Source/portable/GCC/ARM_CM4F/portmacro.h ****         __asm volatile
 113              		.loc 2 197 0 discriminator 1
 114              	@ 197 "../../../../dependencies/freertos/FreeRTOSv10.4.1/FreeRTOS/Source/portable/GCC/ARM_CM4F/port
 115 0034 4FF05003 			mov r3, #80												
 116 0038 83F31188 		msr basepri, r3											
 117 003c BFF36F8F 		isb														
 118 0040 BFF34F8F 		dsb														
 119              	
 120              	@ 0 "" 2
 121              		.thumb
 122 0044 3B60     		str	r3, [r7]
 123              	.L4:
 124              	.LBE35:
 125              	.LBE34:
 126              		.loc 1 269 0 discriminator 1
 127 0046 FEE7     		b	.L4
 128              	.L3:
 270:../../../../dependencies/freertos/FreeRTOSv10.4.1/FreeRTOS/Source/timers.c ****         return xReturn;
 129              		.loc 1 270 0
 130 0048 7B68     		ldr	r3, [r7, #4]
 271:../../../../dependencies/freertos/FreeRTOSv10.4.1/FreeRTOS/Source/timers.c ****     }
 131              		.loc 1 271 0
 132 004a 1846     		mov	r0, r3
 133 004c 0837     		adds	r7, r7, #8
 134              	.LCFI3:
 135              		.cfi_def_cfa_offset 8
 136 004e BD46     		mov	sp, r7
 137              	.LCFI4:
 138              		.cfi_def_cfa_register 13
 139              		@ sp needed
 140 0050 80BD     		pop	{r7, pc}
 141              	.L7:
 142 0052 00BF     		.align	2
 143              	.L6:
 144 0054 00000000 		.word	xTimerQueue
 145 0058 00000000 		.word	xTimerTaskHandle
 146 005c 00000000 		.word	prvTimerTask
 147 0060 00000000 		.word	.LC0
 148              		.cfi_endproc
 149              	.LFE5:
 151              		.section	.text.xTimerCreate,"ax",%progbits
 152              		.align	2
 153              		.global	xTimerCreate
 154              		.thumb
 155              		.thumb_func
 157              	xTimerCreate:
 158              	.LFB6:
 272:../../../../dependencies/freertos/FreeRTOSv10.4.1/FreeRTOS/Source/timers.c **** /*-----------------------------------------------------------*/
 273:../../../../dependencies/freertos/FreeRTOSv10.4.1/FreeRTOS/Source/timers.c **** 
 274:../../../../dependencies/freertos/FreeRTOSv10.4.1/FreeRTOS/Source/timers.c ****     #if ( configSUPPORT_DYNAMIC_ALLOCATION == 1 )
 275:../../../../dependencies/freertos/FreeRTOSv10.4.1/FreeRTOS/Source/timers.c **** 
 276:../../../../dependencies/freertos/FreeRTOSv10.4.1/FreeRTOS/Source/timers.c ****         TimerHandle_t xTimerCreate( const char * const pcTimerName, /*lint !e971 Unqualified char t
 277:../../../../dependencies/freertos/FreeRTOSv10.4.1/FreeRTOS/Source/timers.c ****                                     const TickType_t xTimerPeriodInTicks,
 278:../../../../dependencies/freertos/FreeRTOSv10.4.1/FreeRTOS/Source/timers.c ****                                     const UBaseType_t uxAutoReload,
ARM GAS  /var/folders/_8/_cw6l3nd335f_j6cn6z79m4m0000gn/T//ccbV1VDy.s 			page 12


 279:../../../../dependencies/freertos/FreeRTOSv10.4.1/FreeRTOS/Source/timers.c ****                                     void * const pvTimerID,
 280:../../../../dependencies/freertos/FreeRTOSv10.4.1/FreeRTOS/Source/timers.c ****                                     TimerCallbackFunction_t pxCallbackFunction )
 281:../../../../dependencies/freertos/FreeRTOSv10.4.1/FreeRTOS/Source/timers.c ****         {
 159              		.loc 1 281 0
 160              		.cfi_startproc
 161              		@ args = 4, pretend = 0, frame = 24
 162              		@ frame_needed = 1, uses_anonymous_args = 0
 163 0000 80B5     		push	{r7, lr}
 164              	.LCFI5:
 165              		.cfi_def_cfa_offset 8
 166              		.cfi_offset 7, -8
 167              		.cfi_offset 14, -4
 168 0002 88B0     		sub	sp, sp, #32
 169              	.LCFI6:
 170              		.cfi_def_cfa_offset 40
 171 0004 02AF     		add	r7, sp, #8
 172              	.LCFI7:
 173              		.cfi_def_cfa 7, 32
 174 0006 F860     		str	r0, [r7, #12]
 175 0008 B960     		str	r1, [r7, #8]
 176 000a 7A60     		str	r2, [r7, #4]
 177 000c 3B60     		str	r3, [r7]
 282:../../../../dependencies/freertos/FreeRTOSv10.4.1/FreeRTOS/Source/timers.c ****             Timer_t * pxNewTimer;
 283:../../../../dependencies/freertos/FreeRTOSv10.4.1/FreeRTOS/Source/timers.c **** 
 284:../../../../dependencies/freertos/FreeRTOSv10.4.1/FreeRTOS/Source/timers.c ****             pxNewTimer = ( Timer_t * ) pvPortMalloc( sizeof( Timer_t ) ); /*lint !e9087 !e9079 All 
 178              		.loc 1 284 0
 179 000e 2C20     		movs	r0, #44
 180 0010 FFF7FEFF 		bl	pvPortMalloc
 181 0014 7861     		str	r0, [r7, #20]
 285:../../../../dependencies/freertos/FreeRTOSv10.4.1/FreeRTOS/Source/timers.c **** 
 286:../../../../dependencies/freertos/FreeRTOSv10.4.1/FreeRTOS/Source/timers.c ****             if( pxNewTimer != NULL )
 182              		.loc 1 286 0
 183 0016 7B69     		ldr	r3, [r7, #20]
 184 0018 002B     		cmp	r3, #0
 185 001a 0DD0     		beq	.L9
 287:../../../../dependencies/freertos/FreeRTOSv10.4.1/FreeRTOS/Source/timers.c ****             {
 288:../../../../dependencies/freertos/FreeRTOSv10.4.1/FreeRTOS/Source/timers.c ****                 /* Status is thus far zero as the timer is not created statically
 289:../../../../dependencies/freertos/FreeRTOSv10.4.1/FreeRTOS/Source/timers.c ****                  * and has not been started.  The auto-reload bit may get set in
 290:../../../../dependencies/freertos/FreeRTOSv10.4.1/FreeRTOS/Source/timers.c ****                  * prvInitialiseNewTimer. */
 291:../../../../dependencies/freertos/FreeRTOSv10.4.1/FreeRTOS/Source/timers.c ****                 pxNewTimer->ucStatus = 0x00;
 186              		.loc 1 291 0
 187 001c 7B69     		ldr	r3, [r7, #20]
 188 001e 0022     		movs	r2, #0
 189 0020 83F82820 		strb	r2, [r3, #40]
 292:../../../../dependencies/freertos/FreeRTOSv10.4.1/FreeRTOS/Source/timers.c ****                 prvInitialiseNewTimer( pcTimerName, xTimerPeriodInTicks, uxAutoReload, pvTimerID, p
 190              		.loc 1 292 0
 191 0024 3B6A     		ldr	r3, [r7, #32]
 192 0026 0093     		str	r3, [sp]
 193 0028 7B69     		ldr	r3, [r7, #20]
 194 002a 0193     		str	r3, [sp, #4]
 195 002c F868     		ldr	r0, [r7, #12]
 196 002e B968     		ldr	r1, [r7, #8]
 197 0030 7A68     		ldr	r2, [r7, #4]
 198 0032 3B68     		ldr	r3, [r7]
 199 0034 FFF7FEFF 		bl	prvInitialiseNewTimer
 200              	.L9:
 293:../../../../dependencies/freertos/FreeRTOSv10.4.1/FreeRTOS/Source/timers.c ****             }
ARM GAS  /var/folders/_8/_cw6l3nd335f_j6cn6z79m4m0000gn/T//ccbV1VDy.s 			page 13


 294:../../../../dependencies/freertos/FreeRTOSv10.4.1/FreeRTOS/Source/timers.c **** 
 295:../../../../dependencies/freertos/FreeRTOSv10.4.1/FreeRTOS/Source/timers.c ****             return pxNewTimer;
 201              		.loc 1 295 0
 202 0038 7B69     		ldr	r3, [r7, #20]
 296:../../../../dependencies/freertos/FreeRTOSv10.4.1/FreeRTOS/Source/timers.c ****         }
 203              		.loc 1 296 0
 204 003a 1846     		mov	r0, r3
 205 003c 1837     		adds	r7, r7, #24
 206              	.LCFI8:
 207              		.cfi_def_cfa_offset 8
 208 003e BD46     		mov	sp, r7
 209              	.LCFI9:
 210              		.cfi_def_cfa_register 13
 211              		@ sp needed
 212 0040 80BD     		pop	{r7, pc}
 213              		.cfi_endproc
 214              	.LFE6:
 216 0042 00BF     		.section	.text.prvInitialiseNewTimer,"ax",%progbits
 217              		.align	2
 218              		.thumb
 219              		.thumb_func
 221              	prvInitialiseNewTimer:
 222              	.LFB7:
 297:../../../../dependencies/freertos/FreeRTOSv10.4.1/FreeRTOS/Source/timers.c **** 
 298:../../../../dependencies/freertos/FreeRTOSv10.4.1/FreeRTOS/Source/timers.c ****     #endif /* configSUPPORT_DYNAMIC_ALLOCATION */
 299:../../../../dependencies/freertos/FreeRTOSv10.4.1/FreeRTOS/Source/timers.c **** /*-----------------------------------------------------------*/
 300:../../../../dependencies/freertos/FreeRTOSv10.4.1/FreeRTOS/Source/timers.c **** 
 301:../../../../dependencies/freertos/FreeRTOSv10.4.1/FreeRTOS/Source/timers.c ****     #if ( configSUPPORT_STATIC_ALLOCATION == 1 )
 302:../../../../dependencies/freertos/FreeRTOSv10.4.1/FreeRTOS/Source/timers.c **** 
 303:../../../../dependencies/freertos/FreeRTOSv10.4.1/FreeRTOS/Source/timers.c ****         TimerHandle_t xTimerCreateStatic( const char * const pcTimerName, /*lint !e971 Unqualified 
 304:../../../../dependencies/freertos/FreeRTOSv10.4.1/FreeRTOS/Source/timers.c ****                                           const TickType_t xTimerPeriodInTicks,
 305:../../../../dependencies/freertos/FreeRTOSv10.4.1/FreeRTOS/Source/timers.c ****                                           const UBaseType_t uxAutoReload,
 306:../../../../dependencies/freertos/FreeRTOSv10.4.1/FreeRTOS/Source/timers.c ****                                           void * const pvTimerID,
 307:../../../../dependencies/freertos/FreeRTOSv10.4.1/FreeRTOS/Source/timers.c ****                                           TimerCallbackFunction_t pxCallbackFunction,
 308:../../../../dependencies/freertos/FreeRTOSv10.4.1/FreeRTOS/Source/timers.c ****                                           StaticTimer_t * pxTimerBuffer )
 309:../../../../dependencies/freertos/FreeRTOSv10.4.1/FreeRTOS/Source/timers.c ****         {
 310:../../../../dependencies/freertos/FreeRTOSv10.4.1/FreeRTOS/Source/timers.c ****             Timer_t * pxNewTimer;
 311:../../../../dependencies/freertos/FreeRTOSv10.4.1/FreeRTOS/Source/timers.c **** 
 312:../../../../dependencies/freertos/FreeRTOSv10.4.1/FreeRTOS/Source/timers.c ****             #if ( configASSERT_DEFINED == 1 )
 313:../../../../dependencies/freertos/FreeRTOSv10.4.1/FreeRTOS/Source/timers.c ****                 {
 314:../../../../dependencies/freertos/FreeRTOSv10.4.1/FreeRTOS/Source/timers.c ****                     /* Sanity check that the size of the structure used to declare a
 315:../../../../dependencies/freertos/FreeRTOSv10.4.1/FreeRTOS/Source/timers.c ****                      * variable of type StaticTimer_t equals the size of the real timer
 316:../../../../dependencies/freertos/FreeRTOSv10.4.1/FreeRTOS/Source/timers.c ****                      * structure. */
 317:../../../../dependencies/freertos/FreeRTOSv10.4.1/FreeRTOS/Source/timers.c ****                     volatile size_t xSize = sizeof( StaticTimer_t );
 318:../../../../dependencies/freertos/FreeRTOSv10.4.1/FreeRTOS/Source/timers.c ****                     configASSERT( xSize == sizeof( Timer_t ) );
 319:../../../../dependencies/freertos/FreeRTOSv10.4.1/FreeRTOS/Source/timers.c ****                     ( void ) xSize; /* Keeps lint quiet when configASSERT() is not defined. */
 320:../../../../dependencies/freertos/FreeRTOSv10.4.1/FreeRTOS/Source/timers.c ****                 }
 321:../../../../dependencies/freertos/FreeRTOSv10.4.1/FreeRTOS/Source/timers.c ****             #endif /* configASSERT_DEFINED */
 322:../../../../dependencies/freertos/FreeRTOSv10.4.1/FreeRTOS/Source/timers.c **** 
 323:../../../../dependencies/freertos/FreeRTOSv10.4.1/FreeRTOS/Source/timers.c ****             /* A pointer to a StaticTimer_t structure MUST be provided, use it. */
 324:../../../../dependencies/freertos/FreeRTOSv10.4.1/FreeRTOS/Source/timers.c ****             configASSERT( pxTimerBuffer );
 325:../../../../dependencies/freertos/FreeRTOSv10.4.1/FreeRTOS/Source/timers.c ****             pxNewTimer = ( Timer_t * ) pxTimerBuffer; /*lint !e740 !e9087 StaticTimer_t is a pointe
 326:../../../../dependencies/freertos/FreeRTOSv10.4.1/FreeRTOS/Source/timers.c **** 
 327:../../../../dependencies/freertos/FreeRTOSv10.4.1/FreeRTOS/Source/timers.c ****             if( pxNewTimer != NULL )
 328:../../../../dependencies/freertos/FreeRTOSv10.4.1/FreeRTOS/Source/timers.c ****             {
 329:../../../../dependencies/freertos/FreeRTOSv10.4.1/FreeRTOS/Source/timers.c ****                 /* Timers can be created statically or dynamically so note this
 330:../../../../dependencies/freertos/FreeRTOSv10.4.1/FreeRTOS/Source/timers.c ****                  * timer was created statically in case it is later deleted.  The
ARM GAS  /var/folders/_8/_cw6l3nd335f_j6cn6z79m4m0000gn/T//ccbV1VDy.s 			page 14


 331:../../../../dependencies/freertos/FreeRTOSv10.4.1/FreeRTOS/Source/timers.c ****                  * auto-reload bit may get set in prvInitialiseNewTimer(). */
 332:../../../../dependencies/freertos/FreeRTOSv10.4.1/FreeRTOS/Source/timers.c ****                 pxNewTimer->ucStatus = tmrSTATUS_IS_STATICALLY_ALLOCATED;
 333:../../../../dependencies/freertos/FreeRTOSv10.4.1/FreeRTOS/Source/timers.c **** 
 334:../../../../dependencies/freertos/FreeRTOSv10.4.1/FreeRTOS/Source/timers.c ****                 prvInitialiseNewTimer( pcTimerName, xTimerPeriodInTicks, uxAutoReload, pvTimerID, p
 335:../../../../dependencies/freertos/FreeRTOSv10.4.1/FreeRTOS/Source/timers.c ****             }
 336:../../../../dependencies/freertos/FreeRTOSv10.4.1/FreeRTOS/Source/timers.c **** 
 337:../../../../dependencies/freertos/FreeRTOSv10.4.1/FreeRTOS/Source/timers.c ****             return pxNewTimer;
 338:../../../../dependencies/freertos/FreeRTOSv10.4.1/FreeRTOS/Source/timers.c ****         }
 339:../../../../dependencies/freertos/FreeRTOSv10.4.1/FreeRTOS/Source/timers.c **** 
 340:../../../../dependencies/freertos/FreeRTOSv10.4.1/FreeRTOS/Source/timers.c ****     #endif /* configSUPPORT_STATIC_ALLOCATION */
 341:../../../../dependencies/freertos/FreeRTOSv10.4.1/FreeRTOS/Source/timers.c **** /*-----------------------------------------------------------*/
 342:../../../../dependencies/freertos/FreeRTOSv10.4.1/FreeRTOS/Source/timers.c **** 
 343:../../../../dependencies/freertos/FreeRTOSv10.4.1/FreeRTOS/Source/timers.c ****     static void prvInitialiseNewTimer( const char * const pcTimerName, /*lint !e971 Unqualified cha
 344:../../../../dependencies/freertos/FreeRTOSv10.4.1/FreeRTOS/Source/timers.c ****                                        const TickType_t xTimerPeriodInTicks,
 345:../../../../dependencies/freertos/FreeRTOSv10.4.1/FreeRTOS/Source/timers.c ****                                        const UBaseType_t uxAutoReload,
 346:../../../../dependencies/freertos/FreeRTOSv10.4.1/FreeRTOS/Source/timers.c ****                                        void * const pvTimerID,
 347:../../../../dependencies/freertos/FreeRTOSv10.4.1/FreeRTOS/Source/timers.c ****                                        TimerCallbackFunction_t pxCallbackFunction,
 348:../../../../dependencies/freertos/FreeRTOSv10.4.1/FreeRTOS/Source/timers.c ****                                        Timer_t * pxNewTimer )
 349:../../../../dependencies/freertos/FreeRTOSv10.4.1/FreeRTOS/Source/timers.c ****     {
 223              		.loc 1 349 0
 224              		.cfi_startproc
 225              		@ args = 8, pretend = 0, frame = 24
 226              		@ frame_needed = 1, uses_anonymous_args = 0
 227 0000 80B5     		push	{r7, lr}
 228              	.LCFI10:
 229              		.cfi_def_cfa_offset 8
 230              		.cfi_offset 7, -8
 231              		.cfi_offset 14, -4
 232 0002 86B0     		sub	sp, sp, #24
 233              	.LCFI11:
 234              		.cfi_def_cfa_offset 32
 235 0004 00AF     		add	r7, sp, #0
 236              	.LCFI12:
 237              		.cfi_def_cfa_register 7
 238 0006 F860     		str	r0, [r7, #12]
 239 0008 B960     		str	r1, [r7, #8]
 240 000a 7A60     		str	r2, [r7, #4]
 241 000c 3B60     		str	r3, [r7]
 350:../../../../dependencies/freertos/FreeRTOSv10.4.1/FreeRTOS/Source/timers.c ****         /* 0 is not a valid value for xTimerPeriodInTicks. */
 351:../../../../dependencies/freertos/FreeRTOSv10.4.1/FreeRTOS/Source/timers.c ****         configASSERT( ( xTimerPeriodInTicks > 0 ) );
 242              		.loc 1 351 0
 243 000e BB68     		ldr	r3, [r7, #8]
 244 0010 002B     		cmp	r3, #0
 245 0012 09D1     		bne	.L12
 246              	.LBB36:
 247              	.LBB37:
 248              		.loc 2 197 0 discriminator 1
 249              	@ 197 "../../../../dependencies/freertos/FreeRTOSv10.4.1/FreeRTOS/Source/portable/GCC/ARM_CM4F/port
 250 0014 4FF05003 			mov r3, #80												
 251 0018 83F31188 		msr basepri, r3											
 252 001c BFF36F8F 		isb														
 253 0020 BFF34F8F 		dsb														
 254              	
 255              	@ 0 "" 2
 256              		.thumb
 257 0024 7B61     		str	r3, [r7, #20]
 258              	.L13:
ARM GAS  /var/folders/_8/_cw6l3nd335f_j6cn6z79m4m0000gn/T//ccbV1VDy.s 			page 15


 259              	.LBE37:
 260              	.LBE36:
 261              		.loc 1 351 0 discriminator 1
 262 0026 FEE7     		b	.L13
 263              	.L12:
 352:../../../../dependencies/freertos/FreeRTOSv10.4.1/FreeRTOS/Source/timers.c **** 
 353:../../../../dependencies/freertos/FreeRTOSv10.4.1/FreeRTOS/Source/timers.c ****         if( pxNewTimer != NULL )
 264              		.loc 1 353 0
 265 0028 7B6A     		ldr	r3, [r7, #36]
 266 002a 002B     		cmp	r3, #0
 267 002c 1ED0     		beq	.L11
 354:../../../../dependencies/freertos/FreeRTOSv10.4.1/FreeRTOS/Source/timers.c ****         {
 355:../../../../dependencies/freertos/FreeRTOSv10.4.1/FreeRTOS/Source/timers.c ****             /* Ensure the infrastructure used by the timer service task has been
 356:../../../../dependencies/freertos/FreeRTOSv10.4.1/FreeRTOS/Source/timers.c ****              * created/initialised. */
 357:../../../../dependencies/freertos/FreeRTOSv10.4.1/FreeRTOS/Source/timers.c ****             prvCheckForValidListAndQueue();
 268              		.loc 1 357 0
 269 002e FFF7FEFF 		bl	prvCheckForValidListAndQueue
 358:../../../../dependencies/freertos/FreeRTOSv10.4.1/FreeRTOS/Source/timers.c **** 
 359:../../../../dependencies/freertos/FreeRTOSv10.4.1/FreeRTOS/Source/timers.c ****             /* Initialise the timer structure members using the function
 360:../../../../dependencies/freertos/FreeRTOSv10.4.1/FreeRTOS/Source/timers.c ****              * parameters. */
 361:../../../../dependencies/freertos/FreeRTOSv10.4.1/FreeRTOS/Source/timers.c ****             pxNewTimer->pcTimerName = pcTimerName;
 270              		.loc 1 361 0
 271 0032 7B6A     		ldr	r3, [r7, #36]
 272 0034 FA68     		ldr	r2, [r7, #12]
 273 0036 1A60     		str	r2, [r3]
 362:../../../../dependencies/freertos/FreeRTOSv10.4.1/FreeRTOS/Source/timers.c ****             pxNewTimer->xTimerPeriodInTicks = xTimerPeriodInTicks;
 274              		.loc 1 362 0
 275 0038 7B6A     		ldr	r3, [r7, #36]
 276 003a BA68     		ldr	r2, [r7, #8]
 277 003c 9A61     		str	r2, [r3, #24]
 363:../../../../dependencies/freertos/FreeRTOSv10.4.1/FreeRTOS/Source/timers.c ****             pxNewTimer->pvTimerID = pvTimerID;
 278              		.loc 1 363 0
 279 003e 7B6A     		ldr	r3, [r7, #36]
 280 0040 3A68     		ldr	r2, [r7]
 281 0042 DA61     		str	r2, [r3, #28]
 364:../../../../dependencies/freertos/FreeRTOSv10.4.1/FreeRTOS/Source/timers.c ****             pxNewTimer->pxCallbackFunction = pxCallbackFunction;
 282              		.loc 1 364 0
 283 0044 7B6A     		ldr	r3, [r7, #36]
 284 0046 3A6A     		ldr	r2, [r7, #32]
 285 0048 1A62     		str	r2, [r3, #32]
 365:../../../../dependencies/freertos/FreeRTOSv10.4.1/FreeRTOS/Source/timers.c ****             vListInitialiseItem( &( pxNewTimer->xTimerListItem ) );
 286              		.loc 1 365 0
 287 004a 7B6A     		ldr	r3, [r7, #36]
 288 004c 0433     		adds	r3, r3, #4
 289 004e 1846     		mov	r0, r3
 290 0050 FFF7FEFF 		bl	vListInitialiseItem
 366:../../../../dependencies/freertos/FreeRTOSv10.4.1/FreeRTOS/Source/timers.c **** 
 367:../../../../dependencies/freertos/FreeRTOSv10.4.1/FreeRTOS/Source/timers.c ****             if( uxAutoReload != pdFALSE )
 291              		.loc 1 367 0
 292 0054 7B68     		ldr	r3, [r7, #4]
 293 0056 002B     		cmp	r3, #0
 294 0058 08D0     		beq	.L11
 368:../../../../dependencies/freertos/FreeRTOSv10.4.1/FreeRTOS/Source/timers.c ****             {
 369:../../../../dependencies/freertos/FreeRTOSv10.4.1/FreeRTOS/Source/timers.c ****                 pxNewTimer->ucStatus |= tmrSTATUS_IS_AUTORELOAD;
 295              		.loc 1 369 0
 296 005a 7B6A     		ldr	r3, [r7, #36]
 297 005c 93F82830 		ldrb	r3, [r3, #40]	@ zero_extendqisi2
ARM GAS  /var/folders/_8/_cw6l3nd335f_j6cn6z79m4m0000gn/T//ccbV1VDy.s 			page 16


 298 0060 43F00403 		orr	r3, r3, #4
 299 0064 DAB2     		uxtb	r2, r3
 300 0066 7B6A     		ldr	r3, [r7, #36]
 301 0068 83F82820 		strb	r2, [r3, #40]
 302              	.L11:
 370:../../../../dependencies/freertos/FreeRTOSv10.4.1/FreeRTOS/Source/timers.c ****             }
 371:../../../../dependencies/freertos/FreeRTOSv10.4.1/FreeRTOS/Source/timers.c **** 
 372:../../../../dependencies/freertos/FreeRTOSv10.4.1/FreeRTOS/Source/timers.c ****             traceTIMER_CREATE( pxNewTimer );
 373:../../../../dependencies/freertos/FreeRTOSv10.4.1/FreeRTOS/Source/timers.c ****         }
 374:../../../../dependencies/freertos/FreeRTOSv10.4.1/FreeRTOS/Source/timers.c ****     }
 303              		.loc 1 374 0
 304 006c 1837     		adds	r7, r7, #24
 305              	.LCFI13:
 306              		.cfi_def_cfa_offset 8
 307 006e BD46     		mov	sp, r7
 308              	.LCFI14:
 309              		.cfi_def_cfa_register 13
 310              		@ sp needed
 311 0070 80BD     		pop	{r7, pc}
 312              		.cfi_endproc
 313              	.LFE7:
 315 0072 00BF     		.section	.text.xTimerGenericCommand,"ax",%progbits
 316              		.align	2
 317              		.global	xTimerGenericCommand
 318              		.thumb
 319              		.thumb_func
 321              	xTimerGenericCommand:
 322              	.LFB8:
 375:../../../../dependencies/freertos/FreeRTOSv10.4.1/FreeRTOS/Source/timers.c **** /*-----------------------------------------------------------*/
 376:../../../../dependencies/freertos/FreeRTOSv10.4.1/FreeRTOS/Source/timers.c **** 
 377:../../../../dependencies/freertos/FreeRTOSv10.4.1/FreeRTOS/Source/timers.c ****     BaseType_t xTimerGenericCommand( TimerHandle_t xTimer,
 378:../../../../dependencies/freertos/FreeRTOSv10.4.1/FreeRTOS/Source/timers.c ****                                      const BaseType_t xCommandID,
 379:../../../../dependencies/freertos/FreeRTOSv10.4.1/FreeRTOS/Source/timers.c ****                                      const TickType_t xOptionalValue,
 380:../../../../dependencies/freertos/FreeRTOSv10.4.1/FreeRTOS/Source/timers.c ****                                      BaseType_t * const pxHigherPriorityTaskWoken,
 381:../../../../dependencies/freertos/FreeRTOSv10.4.1/FreeRTOS/Source/timers.c ****                                      const TickType_t xTicksToWait )
 382:../../../../dependencies/freertos/FreeRTOSv10.4.1/FreeRTOS/Source/timers.c ****     {
 323              		.loc 1 382 0
 324              		.cfi_startproc
 325              		@ args = 4, pretend = 0, frame = 40
 326              		@ frame_needed = 1, uses_anonymous_args = 0
 327 0000 80B5     		push	{r7, lr}
 328              	.LCFI15:
 329              		.cfi_def_cfa_offset 8
 330              		.cfi_offset 7, -8
 331              		.cfi_offset 14, -4
 332 0002 8AB0     		sub	sp, sp, #40
 333              	.LCFI16:
 334              		.cfi_def_cfa_offset 48
 335 0004 00AF     		add	r7, sp, #0
 336              	.LCFI17:
 337              		.cfi_def_cfa_register 7
 338 0006 F860     		str	r0, [r7, #12]
 339 0008 B960     		str	r1, [r7, #8]
 340 000a 7A60     		str	r2, [r7, #4]
 341 000c 3B60     		str	r3, [r7]
 383:../../../../dependencies/freertos/FreeRTOSv10.4.1/FreeRTOS/Source/timers.c ****         BaseType_t xReturn = pdFAIL;
 342              		.loc 1 383 0
ARM GAS  /var/folders/_8/_cw6l3nd335f_j6cn6z79m4m0000gn/T//ccbV1VDy.s 			page 17


 343 000e 0023     		movs	r3, #0
 344 0010 7B62     		str	r3, [r7, #36]
 384:../../../../dependencies/freertos/FreeRTOSv10.4.1/FreeRTOS/Source/timers.c ****         DaemonTaskMessage_t xMessage;
 385:../../../../dependencies/freertos/FreeRTOSv10.4.1/FreeRTOS/Source/timers.c **** 
 386:../../../../dependencies/freertos/FreeRTOSv10.4.1/FreeRTOS/Source/timers.c ****         configASSERT( xTimer );
 345              		.loc 1 386 0
 346 0012 FB68     		ldr	r3, [r7, #12]
 347 0014 002B     		cmp	r3, #0
 348 0016 09D1     		bne	.L16
 349              	.LBB38:
 350              	.LBB39:
 351              		.loc 2 197 0 discriminator 1
 352              	@ 197 "../../../../dependencies/freertos/FreeRTOSv10.4.1/FreeRTOS/Source/portable/GCC/ARM_CM4F/port
 353 0018 4FF05003 			mov r3, #80												
 354 001c 83F31188 		msr basepri, r3											
 355 0020 BFF36F8F 		isb														
 356 0024 BFF34F8F 		dsb														
 357              	
 358              	@ 0 "" 2
 359              		.thumb
 360 0028 3B62     		str	r3, [r7, #32]
 361              	.L17:
 362              	.LBE39:
 363              	.LBE38:
 364              		.loc 1 386 0 discriminator 1
 365 002a FEE7     		b	.L17
 366              	.L16:
 387:../../../../dependencies/freertos/FreeRTOSv10.4.1/FreeRTOS/Source/timers.c **** 
 388:../../../../dependencies/freertos/FreeRTOSv10.4.1/FreeRTOS/Source/timers.c ****         /* Send a message to the timer service task to perform a particular action
 389:../../../../dependencies/freertos/FreeRTOSv10.4.1/FreeRTOS/Source/timers.c ****          * on a particular timer definition. */
 390:../../../../dependencies/freertos/FreeRTOSv10.4.1/FreeRTOS/Source/timers.c ****         if( xTimerQueue != NULL )
 367              		.loc 1 390 0
 368 002c 1C4B     		ldr	r3, .L24
 369 002e 1B68     		ldr	r3, [r3]
 370 0030 002B     		cmp	r3, #0
 371 0032 30D0     		beq	.L18
 391:../../../../dependencies/freertos/FreeRTOSv10.4.1/FreeRTOS/Source/timers.c ****         {
 392:../../../../dependencies/freertos/FreeRTOSv10.4.1/FreeRTOS/Source/timers.c ****             /* Send a command to the timer service task to start the xTimer timer. */
 393:../../../../dependencies/freertos/FreeRTOSv10.4.1/FreeRTOS/Source/timers.c ****             xMessage.xMessageID = xCommandID;
 372              		.loc 1 393 0
 373 0034 BB68     		ldr	r3, [r7, #8]
 374 0036 7B61     		str	r3, [r7, #20]
 394:../../../../dependencies/freertos/FreeRTOSv10.4.1/FreeRTOS/Source/timers.c ****             xMessage.u.xTimerParameters.xMessageValue = xOptionalValue;
 375              		.loc 1 394 0
 376 0038 7B68     		ldr	r3, [r7, #4]
 377 003a BB61     		str	r3, [r7, #24]
 395:../../../../dependencies/freertos/FreeRTOSv10.4.1/FreeRTOS/Source/timers.c ****             xMessage.u.xTimerParameters.pxTimer = xTimer;
 378              		.loc 1 395 0
 379 003c FB68     		ldr	r3, [r7, #12]
 380 003e FB61     		str	r3, [r7, #28]
 396:../../../../dependencies/freertos/FreeRTOSv10.4.1/FreeRTOS/Source/timers.c **** 
 397:../../../../dependencies/freertos/FreeRTOSv10.4.1/FreeRTOS/Source/timers.c ****             if( xCommandID < tmrFIRST_FROM_ISR_COMMAND )
 381              		.loc 1 397 0
 382 0040 BB68     		ldr	r3, [r7, #8]
 383 0042 052B     		cmp	r3, #5
 384 0044 1CDC     		bgt	.L19
 398:../../../../dependencies/freertos/FreeRTOSv10.4.1/FreeRTOS/Source/timers.c ****             {
ARM GAS  /var/folders/_8/_cw6l3nd335f_j6cn6z79m4m0000gn/T//ccbV1VDy.s 			page 18


 399:../../../../dependencies/freertos/FreeRTOSv10.4.1/FreeRTOS/Source/timers.c ****                 if( xTaskGetSchedulerState() == taskSCHEDULER_RUNNING )
 385              		.loc 1 399 0
 386 0046 FFF7FEFF 		bl	xTaskGetSchedulerState
 387 004a 0346     		mov	r3, r0
 388 004c 022B     		cmp	r3, #2
 389 004e 0BD1     		bne	.L20
 400:../../../../dependencies/freertos/FreeRTOSv10.4.1/FreeRTOS/Source/timers.c ****                 {
 401:../../../../dependencies/freertos/FreeRTOSv10.4.1/FreeRTOS/Source/timers.c ****                     xReturn = xQueueSendToBack( xTimerQueue, &xMessage, xTicksToWait );
 390              		.loc 1 401 0
 391 0050 134B     		ldr	r3, .L24
 392 0052 1A68     		ldr	r2, [r3]
 393 0054 07F11403 		add	r3, r7, #20
 394 0058 1046     		mov	r0, r2
 395 005a 1946     		mov	r1, r3
 396 005c 3A6B     		ldr	r2, [r7, #48]
 397 005e 0023     		movs	r3, #0
 398 0060 FFF7FEFF 		bl	xQueueGenericSend
 399 0064 7862     		str	r0, [r7, #36]
 400 0066 16E0     		b	.L18
 401              	.L20:
 402:../../../../dependencies/freertos/FreeRTOSv10.4.1/FreeRTOS/Source/timers.c ****                 }
 403:../../../../dependencies/freertos/FreeRTOSv10.4.1/FreeRTOS/Source/timers.c ****                 else
 404:../../../../dependencies/freertos/FreeRTOSv10.4.1/FreeRTOS/Source/timers.c ****                 {
 405:../../../../dependencies/freertos/FreeRTOSv10.4.1/FreeRTOS/Source/timers.c ****                     xReturn = xQueueSendToBack( xTimerQueue, &xMessage, tmrNO_DELAY );
 402              		.loc 1 405 0
 403 0068 0D4B     		ldr	r3, .L24
 404 006a 1A68     		ldr	r2, [r3]
 405 006c 07F11403 		add	r3, r7, #20
 406 0070 1046     		mov	r0, r2
 407 0072 1946     		mov	r1, r3
 408 0074 0022     		movs	r2, #0
 409 0076 0023     		movs	r3, #0
 410 0078 FFF7FEFF 		bl	xQueueGenericSend
 411 007c 7862     		str	r0, [r7, #36]
 412 007e 0AE0     		b	.L18
 413              	.L19:
 406:../../../../dependencies/freertos/FreeRTOSv10.4.1/FreeRTOS/Source/timers.c ****                 }
 407:../../../../dependencies/freertos/FreeRTOSv10.4.1/FreeRTOS/Source/timers.c ****             }
 408:../../../../dependencies/freertos/FreeRTOSv10.4.1/FreeRTOS/Source/timers.c ****             else
 409:../../../../dependencies/freertos/FreeRTOSv10.4.1/FreeRTOS/Source/timers.c ****             {
 410:../../../../dependencies/freertos/FreeRTOSv10.4.1/FreeRTOS/Source/timers.c ****                 xReturn = xQueueSendToBackFromISR( xTimerQueue, &xMessage, pxHigherPriorityTaskWoke
 414              		.loc 1 410 0
 415 0080 074B     		ldr	r3, .L24
 416 0082 1A68     		ldr	r2, [r3]
 417 0084 07F11403 		add	r3, r7, #20
 418 0088 1046     		mov	r0, r2
 419 008a 1946     		mov	r1, r3
 420 008c 3A68     		ldr	r2, [r7]
 421 008e 0023     		movs	r3, #0
 422 0090 FFF7FEFF 		bl	xQueueGenericSendFromISR
 423 0094 7862     		str	r0, [r7, #36]
 424              	.L18:
 411:../../../../dependencies/freertos/FreeRTOSv10.4.1/FreeRTOS/Source/timers.c ****             }
 412:../../../../dependencies/freertos/FreeRTOSv10.4.1/FreeRTOS/Source/timers.c **** 
 413:../../../../dependencies/freertos/FreeRTOSv10.4.1/FreeRTOS/Source/timers.c ****             traceTIMER_COMMAND_SEND( xTimer, xCommandID, xOptionalValue, xReturn );
 414:../../../../dependencies/freertos/FreeRTOSv10.4.1/FreeRTOS/Source/timers.c ****         }
 415:../../../../dependencies/freertos/FreeRTOSv10.4.1/FreeRTOS/Source/timers.c ****         else
ARM GAS  /var/folders/_8/_cw6l3nd335f_j6cn6z79m4m0000gn/T//ccbV1VDy.s 			page 19


 416:../../../../dependencies/freertos/FreeRTOSv10.4.1/FreeRTOS/Source/timers.c ****         {
 417:../../../../dependencies/freertos/FreeRTOSv10.4.1/FreeRTOS/Source/timers.c ****             mtCOVERAGE_TEST_MARKER();
 418:../../../../dependencies/freertos/FreeRTOSv10.4.1/FreeRTOS/Source/timers.c ****         }
 419:../../../../dependencies/freertos/FreeRTOSv10.4.1/FreeRTOS/Source/timers.c **** 
 420:../../../../dependencies/freertos/FreeRTOSv10.4.1/FreeRTOS/Source/timers.c ****         return xReturn;
 425              		.loc 1 420 0
 426 0096 7B6A     		ldr	r3, [r7, #36]
 421:../../../../dependencies/freertos/FreeRTOSv10.4.1/FreeRTOS/Source/timers.c ****     }
 427              		.loc 1 421 0
 428 0098 1846     		mov	r0, r3
 429 009a 2837     		adds	r7, r7, #40
 430              	.LCFI18:
 431              		.cfi_def_cfa_offset 8
 432 009c BD46     		mov	sp, r7
 433              	.LCFI19:
 434              		.cfi_def_cfa_register 13
 435              		@ sp needed
 436 009e 80BD     		pop	{r7, pc}
 437              	.L25:
 438              		.align	2
 439              	.L24:
 440 00a0 00000000 		.word	xTimerQueue
 441              		.cfi_endproc
 442              	.LFE8:
 444              		.section	.text.xTimerGetTimerDaemonTaskHandle,"ax",%progbits
 445              		.align	2
 446              		.global	xTimerGetTimerDaemonTaskHandle
 447              		.thumb
 448              		.thumb_func
 450              	xTimerGetTimerDaemonTaskHandle:
 451              	.LFB9:
 422:../../../../dependencies/freertos/FreeRTOSv10.4.1/FreeRTOS/Source/timers.c **** /*-----------------------------------------------------------*/
 423:../../../../dependencies/freertos/FreeRTOSv10.4.1/FreeRTOS/Source/timers.c **** 
 424:../../../../dependencies/freertos/FreeRTOSv10.4.1/FreeRTOS/Source/timers.c ****     TaskHandle_t xTimerGetTimerDaemonTaskHandle( void )
 425:../../../../dependencies/freertos/FreeRTOSv10.4.1/FreeRTOS/Source/timers.c ****     {
 452              		.loc 1 425 0
 453              		.cfi_startproc
 454              		@ args = 0, pretend = 0, frame = 8
 455              		@ frame_needed = 1, uses_anonymous_args = 0
 456              		@ link register save eliminated.
 457 0000 80B4     		push	{r7}
 458              	.LCFI20:
 459              		.cfi_def_cfa_offset 4
 460              		.cfi_offset 7, -4
 461 0002 83B0     		sub	sp, sp, #12
 462              	.LCFI21:
 463              		.cfi_def_cfa_offset 16
 464 0004 00AF     		add	r7, sp, #0
 465              	.LCFI22:
 466              		.cfi_def_cfa_register 7
 426:../../../../dependencies/freertos/FreeRTOSv10.4.1/FreeRTOS/Source/timers.c ****         /* If xTimerGetTimerDaemonTaskHandle() is called before the scheduler has been
 427:../../../../dependencies/freertos/FreeRTOSv10.4.1/FreeRTOS/Source/timers.c ****          * started, then xTimerTaskHandle will be NULL. */
 428:../../../../dependencies/freertos/FreeRTOSv10.4.1/FreeRTOS/Source/timers.c ****         configASSERT( ( xTimerTaskHandle != NULL ) );
 467              		.loc 1 428 0
 468 0006 0B4B     		ldr	r3, .L30
 469 0008 1B68     		ldr	r3, [r3]
 470 000a 002B     		cmp	r3, #0
ARM GAS  /var/folders/_8/_cw6l3nd335f_j6cn6z79m4m0000gn/T//ccbV1VDy.s 			page 20


 471 000c 09D1     		bne	.L27
 472              	.LBB40:
 473              	.LBB41:
 474              		.loc 2 197 0 discriminator 1
 475              	@ 197 "../../../../dependencies/freertos/FreeRTOSv10.4.1/FreeRTOS/Source/portable/GCC/ARM_CM4F/port
 476 000e 4FF05003 			mov r3, #80												
 477 0012 83F31188 		msr basepri, r3											
 478 0016 BFF36F8F 		isb														
 479 001a BFF34F8F 		dsb														
 480              	
 481              	@ 0 "" 2
 482              		.thumb
 483 001e 7B60     		str	r3, [r7, #4]
 484              	.L28:
 485              	.LBE41:
 486              	.LBE40:
 487              		.loc 1 428 0 discriminator 1
 488 0020 FEE7     		b	.L28
 489              	.L27:
 429:../../../../dependencies/freertos/FreeRTOSv10.4.1/FreeRTOS/Source/timers.c ****         return xTimerTaskHandle;
 490              		.loc 1 429 0
 491 0022 044B     		ldr	r3, .L30
 492 0024 1B68     		ldr	r3, [r3]
 430:../../../../dependencies/freertos/FreeRTOSv10.4.1/FreeRTOS/Source/timers.c ****     }
 493              		.loc 1 430 0
 494 0026 1846     		mov	r0, r3
 495 0028 0C37     		adds	r7, r7, #12
 496              	.LCFI23:
 497              		.cfi_def_cfa_offset 4
 498 002a BD46     		mov	sp, r7
 499              	.LCFI24:
 500              		.cfi_def_cfa_register 13
 501              		@ sp needed
 502 002c 5DF8047B 		ldr	r7, [sp], #4
 503              	.LCFI25:
 504              		.cfi_restore 7
 505              		.cfi_def_cfa_offset 0
 506 0030 7047     		bx	lr
 507              	.L31:
 508 0032 00BF     		.align	2
 509              	.L30:
 510 0034 00000000 		.word	xTimerTaskHandle
 511              		.cfi_endproc
 512              	.LFE9:
 514              		.section	.text.xTimerGetPeriod,"ax",%progbits
 515              		.align	2
 516              		.global	xTimerGetPeriod
 517              		.thumb
 518              		.thumb_func
 520              	xTimerGetPeriod:
 521              	.LFB10:
 431:../../../../dependencies/freertos/FreeRTOSv10.4.1/FreeRTOS/Source/timers.c **** /*-----------------------------------------------------------*/
 432:../../../../dependencies/freertos/FreeRTOSv10.4.1/FreeRTOS/Source/timers.c **** 
 433:../../../../dependencies/freertos/FreeRTOSv10.4.1/FreeRTOS/Source/timers.c ****     TickType_t xTimerGetPeriod( TimerHandle_t xTimer )
 434:../../../../dependencies/freertos/FreeRTOSv10.4.1/FreeRTOS/Source/timers.c ****     {
 522              		.loc 1 434 0
 523              		.cfi_startproc
ARM GAS  /var/folders/_8/_cw6l3nd335f_j6cn6z79m4m0000gn/T//ccbV1VDy.s 			page 21


 524              		@ args = 0, pretend = 0, frame = 16
 525              		@ frame_needed = 1, uses_anonymous_args = 0
 526              		@ link register save eliminated.
 527 0000 80B4     		push	{r7}
 528              	.LCFI26:
 529              		.cfi_def_cfa_offset 4
 530              		.cfi_offset 7, -4
 531 0002 85B0     		sub	sp, sp, #20
 532              	.LCFI27:
 533              		.cfi_def_cfa_offset 24
 534 0004 00AF     		add	r7, sp, #0
 535              	.LCFI28:
 536              		.cfi_def_cfa_register 7
 537 0006 7860     		str	r0, [r7, #4]
 435:../../../../dependencies/freertos/FreeRTOSv10.4.1/FreeRTOS/Source/timers.c ****         Timer_t * pxTimer = xTimer;
 538              		.loc 1 435 0
 539 0008 7B68     		ldr	r3, [r7, #4]
 540 000a FB60     		str	r3, [r7, #12]
 436:../../../../dependencies/freertos/FreeRTOSv10.4.1/FreeRTOS/Source/timers.c **** 
 437:../../../../dependencies/freertos/FreeRTOSv10.4.1/FreeRTOS/Source/timers.c ****         configASSERT( xTimer );
 541              		.loc 1 437 0
 542 000c 7B68     		ldr	r3, [r7, #4]
 543 000e 002B     		cmp	r3, #0
 544 0010 09D1     		bne	.L33
 545              	.LBB42:
 546              	.LBB43:
 547              		.loc 2 197 0 discriminator 1
 548              	@ 197 "../../../../dependencies/freertos/FreeRTOSv10.4.1/FreeRTOS/Source/portable/GCC/ARM_CM4F/port
 549 0012 4FF05003 			mov r3, #80												
 550 0016 83F31188 		msr basepri, r3											
 551 001a BFF36F8F 		isb														
 552 001e BFF34F8F 		dsb														
 553              	
 554              	@ 0 "" 2
 555              		.thumb
 556 0022 BB60     		str	r3, [r7, #8]
 557              	.L34:
 558              	.LBE43:
 559              	.LBE42:
 560              		.loc 1 437 0 discriminator 1
 561 0024 FEE7     		b	.L34
 562              	.L33:
 438:../../../../dependencies/freertos/FreeRTOSv10.4.1/FreeRTOS/Source/timers.c ****         return pxTimer->xTimerPeriodInTicks;
 563              		.loc 1 438 0
 564 0026 FB68     		ldr	r3, [r7, #12]
 565 0028 9B69     		ldr	r3, [r3, #24]
 439:../../../../dependencies/freertos/FreeRTOSv10.4.1/FreeRTOS/Source/timers.c ****     }
 566              		.loc 1 439 0
 567 002a 1846     		mov	r0, r3
 568 002c 1437     		adds	r7, r7, #20
 569              	.LCFI29:
 570              		.cfi_def_cfa_offset 4
 571 002e BD46     		mov	sp, r7
 572              	.LCFI30:
 573              		.cfi_def_cfa_register 13
 574              		@ sp needed
 575 0030 5DF8047B 		ldr	r7, [sp], #4
ARM GAS  /var/folders/_8/_cw6l3nd335f_j6cn6z79m4m0000gn/T//ccbV1VDy.s 			page 22


 576              	.LCFI31:
 577              		.cfi_restore 7
 578              		.cfi_def_cfa_offset 0
 579 0034 7047     		bx	lr
 580              		.cfi_endproc
 581              	.LFE10:
 583 0036 00BF     		.section	.text.vTimerSetReloadMode,"ax",%progbits
 584              		.align	2
 585              		.global	vTimerSetReloadMode
 586              		.thumb
 587              		.thumb_func
 589              	vTimerSetReloadMode:
 590              	.LFB11:
 440:../../../../dependencies/freertos/FreeRTOSv10.4.1/FreeRTOS/Source/timers.c **** /*-----------------------------------------------------------*/
 441:../../../../dependencies/freertos/FreeRTOSv10.4.1/FreeRTOS/Source/timers.c **** 
 442:../../../../dependencies/freertos/FreeRTOSv10.4.1/FreeRTOS/Source/timers.c ****     void vTimerSetReloadMode( TimerHandle_t xTimer,
 443:../../../../dependencies/freertos/FreeRTOSv10.4.1/FreeRTOS/Source/timers.c ****                               const UBaseType_t uxAutoReload )
 444:../../../../dependencies/freertos/FreeRTOSv10.4.1/FreeRTOS/Source/timers.c ****     {
 591              		.loc 1 444 0
 592              		.cfi_startproc
 593              		@ args = 0, pretend = 0, frame = 16
 594              		@ frame_needed = 1, uses_anonymous_args = 0
 595 0000 80B5     		push	{r7, lr}
 596              	.LCFI32:
 597              		.cfi_def_cfa_offset 8
 598              		.cfi_offset 7, -8
 599              		.cfi_offset 14, -4
 600 0002 84B0     		sub	sp, sp, #16
 601              	.LCFI33:
 602              		.cfi_def_cfa_offset 24
 603 0004 00AF     		add	r7, sp, #0
 604              	.LCFI34:
 605              		.cfi_def_cfa_register 7
 606 0006 7860     		str	r0, [r7, #4]
 607 0008 3960     		str	r1, [r7]
 445:../../../../dependencies/freertos/FreeRTOSv10.4.1/FreeRTOS/Source/timers.c ****         Timer_t * pxTimer = xTimer;
 608              		.loc 1 445 0
 609 000a 7B68     		ldr	r3, [r7, #4]
 610 000c FB60     		str	r3, [r7, #12]
 446:../../../../dependencies/freertos/FreeRTOSv10.4.1/FreeRTOS/Source/timers.c **** 
 447:../../../../dependencies/freertos/FreeRTOSv10.4.1/FreeRTOS/Source/timers.c ****         configASSERT( xTimer );
 611              		.loc 1 447 0
 612 000e 7B68     		ldr	r3, [r7, #4]
 613 0010 002B     		cmp	r3, #0
 614 0012 09D1     		bne	.L37
 615              	.LBB44:
 616              	.LBB45:
 617              		.loc 2 197 0 discriminator 1
 618              	@ 197 "../../../../dependencies/freertos/FreeRTOSv10.4.1/FreeRTOS/Source/portable/GCC/ARM_CM4F/port
 619 0014 4FF05003 			mov r3, #80												
 620 0018 83F31188 		msr basepri, r3											
 621 001c BFF36F8F 		isb														
 622 0020 BFF34F8F 		dsb														
 623              	
 624              	@ 0 "" 2
 625              		.thumb
 626 0024 BB60     		str	r3, [r7, #8]
ARM GAS  /var/folders/_8/_cw6l3nd335f_j6cn6z79m4m0000gn/T//ccbV1VDy.s 			page 23


 627              	.L38:
 628              	.LBE45:
 629              	.LBE44:
 630              		.loc 1 447 0 discriminator 1
 631 0026 FEE7     		b	.L38
 632              	.L37:
 448:../../../../dependencies/freertos/FreeRTOSv10.4.1/FreeRTOS/Source/timers.c ****         taskENTER_CRITICAL();
 633              		.loc 1 448 0
 634 0028 FFF7FEFF 		bl	vPortEnterCritical
 449:../../../../dependencies/freertos/FreeRTOSv10.4.1/FreeRTOS/Source/timers.c ****         {
 450:../../../../dependencies/freertos/FreeRTOSv10.4.1/FreeRTOS/Source/timers.c ****             if( uxAutoReload != pdFALSE )
 635              		.loc 1 450 0
 636 002c 3B68     		ldr	r3, [r7]
 637 002e 002B     		cmp	r3, #0
 638 0030 09D0     		beq	.L39
 451:../../../../dependencies/freertos/FreeRTOSv10.4.1/FreeRTOS/Source/timers.c ****             {
 452:../../../../dependencies/freertos/FreeRTOSv10.4.1/FreeRTOS/Source/timers.c ****                 pxTimer->ucStatus |= tmrSTATUS_IS_AUTORELOAD;
 639              		.loc 1 452 0
 640 0032 FB68     		ldr	r3, [r7, #12]
 641 0034 93F82830 		ldrb	r3, [r3, #40]	@ zero_extendqisi2
 642 0038 43F00403 		orr	r3, r3, #4
 643 003c DAB2     		uxtb	r2, r3
 644 003e FB68     		ldr	r3, [r7, #12]
 645 0040 83F82820 		strb	r2, [r3, #40]
 646 0044 08E0     		b	.L40
 647              	.L39:
 453:../../../../dependencies/freertos/FreeRTOSv10.4.1/FreeRTOS/Source/timers.c ****             }
 454:../../../../dependencies/freertos/FreeRTOSv10.4.1/FreeRTOS/Source/timers.c ****             else
 455:../../../../dependencies/freertos/FreeRTOSv10.4.1/FreeRTOS/Source/timers.c ****             {
 456:../../../../dependencies/freertos/FreeRTOSv10.4.1/FreeRTOS/Source/timers.c ****                 pxTimer->ucStatus &= ~tmrSTATUS_IS_AUTORELOAD;
 648              		.loc 1 456 0
 649 0046 FB68     		ldr	r3, [r7, #12]
 650 0048 93F82830 		ldrb	r3, [r3, #40]	@ zero_extendqisi2
 651 004c 23F00403 		bic	r3, r3, #4
 652 0050 DAB2     		uxtb	r2, r3
 653 0052 FB68     		ldr	r3, [r7, #12]
 654 0054 83F82820 		strb	r2, [r3, #40]
 655              	.L40:
 457:../../../../dependencies/freertos/FreeRTOSv10.4.1/FreeRTOS/Source/timers.c ****             }
 458:../../../../dependencies/freertos/FreeRTOSv10.4.1/FreeRTOS/Source/timers.c ****         }
 459:../../../../dependencies/freertos/FreeRTOSv10.4.1/FreeRTOS/Source/timers.c ****         taskEXIT_CRITICAL();
 656              		.loc 1 459 0
 657 0058 FFF7FEFF 		bl	vPortExitCritical
 460:../../../../dependencies/freertos/FreeRTOSv10.4.1/FreeRTOS/Source/timers.c ****     }
 658              		.loc 1 460 0
 659 005c 1037     		adds	r7, r7, #16
 660              	.LCFI35:
 661              		.cfi_def_cfa_offset 8
 662 005e BD46     		mov	sp, r7
 663              	.LCFI36:
 664              		.cfi_def_cfa_register 13
 665              		@ sp needed
 666 0060 80BD     		pop	{r7, pc}
 667              		.cfi_endproc
 668              	.LFE11:
 670 0062 00BF     		.section	.text.uxTimerGetReloadMode,"ax",%progbits
 671              		.align	2
ARM GAS  /var/folders/_8/_cw6l3nd335f_j6cn6z79m4m0000gn/T//ccbV1VDy.s 			page 24


 672              		.global	uxTimerGetReloadMode
 673              		.thumb
 674              		.thumb_func
 676              	uxTimerGetReloadMode:
 677              	.LFB12:
 461:../../../../dependencies/freertos/FreeRTOSv10.4.1/FreeRTOS/Source/timers.c **** /*-----------------------------------------------------------*/
 462:../../../../dependencies/freertos/FreeRTOSv10.4.1/FreeRTOS/Source/timers.c **** 
 463:../../../../dependencies/freertos/FreeRTOSv10.4.1/FreeRTOS/Source/timers.c ****     UBaseType_t uxTimerGetReloadMode( TimerHandle_t xTimer )
 464:../../../../dependencies/freertos/FreeRTOSv10.4.1/FreeRTOS/Source/timers.c ****     {
 678              		.loc 1 464 0
 679              		.cfi_startproc
 680              		@ args = 0, pretend = 0, frame = 24
 681              		@ frame_needed = 1, uses_anonymous_args = 0
 682 0000 80B5     		push	{r7, lr}
 683              	.LCFI37:
 684              		.cfi_def_cfa_offset 8
 685              		.cfi_offset 7, -8
 686              		.cfi_offset 14, -4
 687 0002 86B0     		sub	sp, sp, #24
 688              	.LCFI38:
 689              		.cfi_def_cfa_offset 32
 690 0004 00AF     		add	r7, sp, #0
 691              	.LCFI39:
 692              		.cfi_def_cfa_register 7
 693 0006 7860     		str	r0, [r7, #4]
 465:../../../../dependencies/freertos/FreeRTOSv10.4.1/FreeRTOS/Source/timers.c ****         Timer_t * pxTimer = xTimer;
 694              		.loc 1 465 0
 695 0008 7B68     		ldr	r3, [r7, #4]
 696 000a 3B61     		str	r3, [r7, #16]
 466:../../../../dependencies/freertos/FreeRTOSv10.4.1/FreeRTOS/Source/timers.c ****         UBaseType_t uxReturn;
 467:../../../../dependencies/freertos/FreeRTOSv10.4.1/FreeRTOS/Source/timers.c **** 
 468:../../../../dependencies/freertos/FreeRTOSv10.4.1/FreeRTOS/Source/timers.c ****         configASSERT( xTimer );
 697              		.loc 1 468 0
 698 000c 7B68     		ldr	r3, [r7, #4]
 699 000e 002B     		cmp	r3, #0
 700 0010 09D1     		bne	.L42
 701              	.LBB46:
 702              	.LBB47:
 703              		.loc 2 197 0 discriminator 1
 704              	@ 197 "../../../../dependencies/freertos/FreeRTOSv10.4.1/FreeRTOS/Source/portable/GCC/ARM_CM4F/port
 705 0012 4FF05003 			mov r3, #80												
 706 0016 83F31188 		msr basepri, r3											
 707 001a BFF36F8F 		isb														
 708 001e BFF34F8F 		dsb														
 709              	
 710              	@ 0 "" 2
 711              		.thumb
 712 0022 FB60     		str	r3, [r7, #12]
 713              	.L43:
 714              	.LBE47:
 715              	.LBE46:
 716              		.loc 1 468 0 discriminator 1
 717 0024 FEE7     		b	.L43
 718              	.L42:
 469:../../../../dependencies/freertos/FreeRTOSv10.4.1/FreeRTOS/Source/timers.c ****         taskENTER_CRITICAL();
 719              		.loc 1 469 0
 720 0026 FFF7FEFF 		bl	vPortEnterCritical
ARM GAS  /var/folders/_8/_cw6l3nd335f_j6cn6z79m4m0000gn/T//ccbV1VDy.s 			page 25


 470:../../../../dependencies/freertos/FreeRTOSv10.4.1/FreeRTOS/Source/timers.c ****         {
 471:../../../../dependencies/freertos/FreeRTOSv10.4.1/FreeRTOS/Source/timers.c ****             if( ( pxTimer->ucStatus & tmrSTATUS_IS_AUTORELOAD ) == 0 )
 721              		.loc 1 471 0
 722 002a 3B69     		ldr	r3, [r7, #16]
 723 002c 93F82830 		ldrb	r3, [r3, #40]	@ zero_extendqisi2
 724 0030 03F00403 		and	r3, r3, #4
 725 0034 002B     		cmp	r3, #0
 726 0036 02D1     		bne	.L44
 472:../../../../dependencies/freertos/FreeRTOSv10.4.1/FreeRTOS/Source/timers.c ****             {
 473:../../../../dependencies/freertos/FreeRTOSv10.4.1/FreeRTOS/Source/timers.c ****                 /* Not an auto-reload timer. */
 474:../../../../dependencies/freertos/FreeRTOSv10.4.1/FreeRTOS/Source/timers.c ****                 uxReturn = ( UBaseType_t ) pdFALSE;
 727              		.loc 1 474 0
 728 0038 0023     		movs	r3, #0
 729 003a 7B61     		str	r3, [r7, #20]
 730 003c 01E0     		b	.L45
 731              	.L44:
 475:../../../../dependencies/freertos/FreeRTOSv10.4.1/FreeRTOS/Source/timers.c ****             }
 476:../../../../dependencies/freertos/FreeRTOSv10.4.1/FreeRTOS/Source/timers.c ****             else
 477:../../../../dependencies/freertos/FreeRTOSv10.4.1/FreeRTOS/Source/timers.c ****             {
 478:../../../../dependencies/freertos/FreeRTOSv10.4.1/FreeRTOS/Source/timers.c ****                 /* Is an auto-reload timer. */
 479:../../../../dependencies/freertos/FreeRTOSv10.4.1/FreeRTOS/Source/timers.c ****                 uxReturn = ( UBaseType_t ) pdTRUE;
 732              		.loc 1 479 0
 733 003e 0123     		movs	r3, #1
 734 0040 7B61     		str	r3, [r7, #20]
 735              	.L45:
 480:../../../../dependencies/freertos/FreeRTOSv10.4.1/FreeRTOS/Source/timers.c ****             }
 481:../../../../dependencies/freertos/FreeRTOSv10.4.1/FreeRTOS/Source/timers.c ****         }
 482:../../../../dependencies/freertos/FreeRTOSv10.4.1/FreeRTOS/Source/timers.c ****         taskEXIT_CRITICAL();
 736              		.loc 1 482 0
 737 0042 FFF7FEFF 		bl	vPortExitCritical
 483:../../../../dependencies/freertos/FreeRTOSv10.4.1/FreeRTOS/Source/timers.c **** 
 484:../../../../dependencies/freertos/FreeRTOSv10.4.1/FreeRTOS/Source/timers.c ****         return uxReturn;
 738              		.loc 1 484 0
 739 0046 7B69     		ldr	r3, [r7, #20]
 485:../../../../dependencies/freertos/FreeRTOSv10.4.1/FreeRTOS/Source/timers.c ****     }
 740              		.loc 1 485 0
 741 0048 1846     		mov	r0, r3
 742 004a 1837     		adds	r7, r7, #24
 743              	.LCFI40:
 744              		.cfi_def_cfa_offset 8
 745 004c BD46     		mov	sp, r7
 746              	.LCFI41:
 747              		.cfi_def_cfa_register 13
 748              		@ sp needed
 749 004e 80BD     		pop	{r7, pc}
 750              		.cfi_endproc
 751              	.LFE12:
 753              		.section	.text.xTimerGetExpiryTime,"ax",%progbits
 754              		.align	2
 755              		.global	xTimerGetExpiryTime
 756              		.thumb
 757              		.thumb_func
 759              	xTimerGetExpiryTime:
 760              	.LFB13:
 486:../../../../dependencies/freertos/FreeRTOSv10.4.1/FreeRTOS/Source/timers.c **** /*-----------------------------------------------------------*/
 487:../../../../dependencies/freertos/FreeRTOSv10.4.1/FreeRTOS/Source/timers.c **** 
 488:../../../../dependencies/freertos/FreeRTOSv10.4.1/FreeRTOS/Source/timers.c ****     TickType_t xTimerGetExpiryTime( TimerHandle_t xTimer )
ARM GAS  /var/folders/_8/_cw6l3nd335f_j6cn6z79m4m0000gn/T//ccbV1VDy.s 			page 26


 489:../../../../dependencies/freertos/FreeRTOSv10.4.1/FreeRTOS/Source/timers.c ****     {
 761              		.loc 1 489 0
 762              		.cfi_startproc
 763              		@ args = 0, pretend = 0, frame = 24
 764              		@ frame_needed = 1, uses_anonymous_args = 0
 765              		@ link register save eliminated.
 766 0000 80B4     		push	{r7}
 767              	.LCFI42:
 768              		.cfi_def_cfa_offset 4
 769              		.cfi_offset 7, -4
 770 0002 87B0     		sub	sp, sp, #28
 771              	.LCFI43:
 772              		.cfi_def_cfa_offset 32
 773 0004 00AF     		add	r7, sp, #0
 774              	.LCFI44:
 775              		.cfi_def_cfa_register 7
 776 0006 7860     		str	r0, [r7, #4]
 490:../../../../dependencies/freertos/FreeRTOSv10.4.1/FreeRTOS/Source/timers.c ****         Timer_t * pxTimer = xTimer;
 777              		.loc 1 490 0
 778 0008 7B68     		ldr	r3, [r7, #4]
 779 000a 7B61     		str	r3, [r7, #20]
 491:../../../../dependencies/freertos/FreeRTOSv10.4.1/FreeRTOS/Source/timers.c ****         TickType_t xReturn;
 492:../../../../dependencies/freertos/FreeRTOSv10.4.1/FreeRTOS/Source/timers.c **** 
 493:../../../../dependencies/freertos/FreeRTOSv10.4.1/FreeRTOS/Source/timers.c ****         configASSERT( xTimer );
 780              		.loc 1 493 0
 781 000c 7B68     		ldr	r3, [r7, #4]
 782 000e 002B     		cmp	r3, #0
 783 0010 09D1     		bne	.L48
 784              	.LBB48:
 785              	.LBB49:
 786              		.loc 2 197 0 discriminator 1
 787              	@ 197 "../../../../dependencies/freertos/FreeRTOSv10.4.1/FreeRTOS/Source/portable/GCC/ARM_CM4F/port
 788 0012 4FF05003 			mov r3, #80												
 789 0016 83F31188 		msr basepri, r3											
 790 001a BFF36F8F 		isb														
 791 001e BFF34F8F 		dsb														
 792              	
 793              	@ 0 "" 2
 794              		.thumb
 795 0022 FB60     		str	r3, [r7, #12]
 796              	.L49:
 797              	.LBE49:
 798              	.LBE48:
 799              		.loc 1 493 0 discriminator 1
 800 0024 FEE7     		b	.L49
 801              	.L48:
 494:../../../../dependencies/freertos/FreeRTOSv10.4.1/FreeRTOS/Source/timers.c ****         xReturn = listGET_LIST_ITEM_VALUE( &( pxTimer->xTimerListItem ) );
 802              		.loc 1 494 0
 803 0026 7B69     		ldr	r3, [r7, #20]
 804 0028 5B68     		ldr	r3, [r3, #4]
 805 002a 3B61     		str	r3, [r7, #16]
 495:../../../../dependencies/freertos/FreeRTOSv10.4.1/FreeRTOS/Source/timers.c ****         return xReturn;
 806              		.loc 1 495 0
 807 002c 3B69     		ldr	r3, [r7, #16]
 496:../../../../dependencies/freertos/FreeRTOSv10.4.1/FreeRTOS/Source/timers.c ****     }
 808              		.loc 1 496 0
 809 002e 1846     		mov	r0, r3
ARM GAS  /var/folders/_8/_cw6l3nd335f_j6cn6z79m4m0000gn/T//ccbV1VDy.s 			page 27


 810 0030 1C37     		adds	r7, r7, #28
 811              	.LCFI45:
 812              		.cfi_def_cfa_offset 4
 813 0032 BD46     		mov	sp, r7
 814              	.LCFI46:
 815              		.cfi_def_cfa_register 13
 816              		@ sp needed
 817 0034 5DF8047B 		ldr	r7, [sp], #4
 818              	.LCFI47:
 819              		.cfi_restore 7
 820              		.cfi_def_cfa_offset 0
 821 0038 7047     		bx	lr
 822              		.cfi_endproc
 823              	.LFE13:
 825 003a 00BF     		.section	.text.pcTimerGetName,"ax",%progbits
 826              		.align	2
 827              		.global	pcTimerGetName
 828              		.thumb
 829              		.thumb_func
 831              	pcTimerGetName:
 832              	.LFB14:
 497:../../../../dependencies/freertos/FreeRTOSv10.4.1/FreeRTOS/Source/timers.c **** /*-----------------------------------------------------------*/
 498:../../../../dependencies/freertos/FreeRTOSv10.4.1/FreeRTOS/Source/timers.c **** 
 499:../../../../dependencies/freertos/FreeRTOSv10.4.1/FreeRTOS/Source/timers.c ****     const char * pcTimerGetName( TimerHandle_t xTimer ) /*lint !e971 Unqualified char types are all
 500:../../../../dependencies/freertos/FreeRTOSv10.4.1/FreeRTOS/Source/timers.c ****     {
 833              		.loc 1 500 0
 834              		.cfi_startproc
 835              		@ args = 0, pretend = 0, frame = 16
 836              		@ frame_needed = 1, uses_anonymous_args = 0
 837              		@ link register save eliminated.
 838 0000 80B4     		push	{r7}
 839              	.LCFI48:
 840              		.cfi_def_cfa_offset 4
 841              		.cfi_offset 7, -4
 842 0002 85B0     		sub	sp, sp, #20
 843              	.LCFI49:
 844              		.cfi_def_cfa_offset 24
 845 0004 00AF     		add	r7, sp, #0
 846              	.LCFI50:
 847              		.cfi_def_cfa_register 7
 848 0006 7860     		str	r0, [r7, #4]
 501:../../../../dependencies/freertos/FreeRTOSv10.4.1/FreeRTOS/Source/timers.c ****         Timer_t * pxTimer = xTimer;
 849              		.loc 1 501 0
 850 0008 7B68     		ldr	r3, [r7, #4]
 851 000a FB60     		str	r3, [r7, #12]
 502:../../../../dependencies/freertos/FreeRTOSv10.4.1/FreeRTOS/Source/timers.c **** 
 503:../../../../dependencies/freertos/FreeRTOSv10.4.1/FreeRTOS/Source/timers.c ****         configASSERT( xTimer );
 852              		.loc 1 503 0
 853 000c 7B68     		ldr	r3, [r7, #4]
 854 000e 002B     		cmp	r3, #0
 855 0010 09D1     		bne	.L52
 856              	.LBB50:
 857              	.LBB51:
 858              		.loc 2 197 0 discriminator 1
 859              	@ 197 "../../../../dependencies/freertos/FreeRTOSv10.4.1/FreeRTOS/Source/portable/GCC/ARM_CM4F/port
 860 0012 4FF05003 			mov r3, #80												
 861 0016 83F31188 		msr basepri, r3											
ARM GAS  /var/folders/_8/_cw6l3nd335f_j6cn6z79m4m0000gn/T//ccbV1VDy.s 			page 28


 862 001a BFF36F8F 		isb														
 863 001e BFF34F8F 		dsb														
 864              	
 865              	@ 0 "" 2
 866              		.thumb
 867 0022 BB60     		str	r3, [r7, #8]
 868              	.L53:
 869              	.LBE51:
 870              	.LBE50:
 871              		.loc 1 503 0 discriminator 1
 872 0024 FEE7     		b	.L53
 873              	.L52:
 504:../../../../dependencies/freertos/FreeRTOSv10.4.1/FreeRTOS/Source/timers.c ****         return pxTimer->pcTimerName;
 874              		.loc 1 504 0
 875 0026 FB68     		ldr	r3, [r7, #12]
 876 0028 1B68     		ldr	r3, [r3]
 505:../../../../dependencies/freertos/FreeRTOSv10.4.1/FreeRTOS/Source/timers.c ****     }
 877              		.loc 1 505 0
 878 002a 1846     		mov	r0, r3
 879 002c 1437     		adds	r7, r7, #20
 880              	.LCFI51:
 881              		.cfi_def_cfa_offset 4
 882 002e BD46     		mov	sp, r7
 883              	.LCFI52:
 884              		.cfi_def_cfa_register 13
 885              		@ sp needed
 886 0030 5DF8047B 		ldr	r7, [sp], #4
 887              	.LCFI53:
 888              		.cfi_restore 7
 889              		.cfi_def_cfa_offset 0
 890 0034 7047     		bx	lr
 891              		.cfi_endproc
 892              	.LFE14:
 894 0036 00BF     		.section	.text.prvProcessExpiredTimer,"ax",%progbits
 895              		.align	2
 896              		.thumb
 897              		.thumb_func
 899              	prvProcessExpiredTimer:
 900              	.LFB15:
 506:../../../../dependencies/freertos/FreeRTOSv10.4.1/FreeRTOS/Source/timers.c **** /*-----------------------------------------------------------*/
 507:../../../../dependencies/freertos/FreeRTOSv10.4.1/FreeRTOS/Source/timers.c **** 
 508:../../../../dependencies/freertos/FreeRTOSv10.4.1/FreeRTOS/Source/timers.c ****     static void prvProcessExpiredTimer( const TickType_t xNextExpireTime,
 509:../../../../dependencies/freertos/FreeRTOSv10.4.1/FreeRTOS/Source/timers.c ****                                         const TickType_t xTimeNow )
 510:../../../../dependencies/freertos/FreeRTOSv10.4.1/FreeRTOS/Source/timers.c ****     {
 901              		.loc 1 510 0
 902              		.cfi_startproc
 903              		@ args = 0, pretend = 0, frame = 24
 904              		@ frame_needed = 1, uses_anonymous_args = 0
 905 0000 80B5     		push	{r7, lr}
 906              	.LCFI54:
 907              		.cfi_def_cfa_offset 8
 908              		.cfi_offset 7, -8
 909              		.cfi_offset 14, -4
 910 0002 88B0     		sub	sp, sp, #32
 911              	.LCFI55:
 912              		.cfi_def_cfa_offset 40
 913 0004 02AF     		add	r7, sp, #8
ARM GAS  /var/folders/_8/_cw6l3nd335f_j6cn6z79m4m0000gn/T//ccbV1VDy.s 			page 29


 914              	.LCFI56:
 915              		.cfi_def_cfa 7, 32
 916 0006 7860     		str	r0, [r7, #4]
 917 0008 3960     		str	r1, [r7]
 511:../../../../dependencies/freertos/FreeRTOSv10.4.1/FreeRTOS/Source/timers.c ****         BaseType_t xResult;
 512:../../../../dependencies/freertos/FreeRTOSv10.4.1/FreeRTOS/Source/timers.c ****         Timer_t * const pxTimer = ( Timer_t * ) listGET_OWNER_OF_HEAD_ENTRY( pxCurrentTimerList ); 
 918              		.loc 1 512 0
 919 000a 224B     		ldr	r3, .L59
 920 000c 1B68     		ldr	r3, [r3]
 921 000e DB68     		ldr	r3, [r3, #12]
 922 0010 DB68     		ldr	r3, [r3, #12]
 923 0012 7B61     		str	r3, [r7, #20]
 513:../../../../dependencies/freertos/FreeRTOSv10.4.1/FreeRTOS/Source/timers.c **** 
 514:../../../../dependencies/freertos/FreeRTOSv10.4.1/FreeRTOS/Source/timers.c ****         /* Remove the timer from the list of active timers.  A check has already
 515:../../../../dependencies/freertos/FreeRTOSv10.4.1/FreeRTOS/Source/timers.c ****          * been performed to ensure the list is not empty. */
 516:../../../../dependencies/freertos/FreeRTOSv10.4.1/FreeRTOS/Source/timers.c **** 
 517:../../../../dependencies/freertos/FreeRTOSv10.4.1/FreeRTOS/Source/timers.c ****         ( void ) uxListRemove( &( pxTimer->xTimerListItem ) );
 924              		.loc 1 517 0
 925 0014 7B69     		ldr	r3, [r7, #20]
 926 0016 0433     		adds	r3, r3, #4
 927 0018 1846     		mov	r0, r3
 928 001a FFF7FEFF 		bl	uxListRemove
 518:../../../../dependencies/freertos/FreeRTOSv10.4.1/FreeRTOS/Source/timers.c ****         traceTIMER_EXPIRED( pxTimer );
 519:../../../../dependencies/freertos/FreeRTOSv10.4.1/FreeRTOS/Source/timers.c **** 
 520:../../../../dependencies/freertos/FreeRTOSv10.4.1/FreeRTOS/Source/timers.c ****         /* If the timer is an auto-reload timer then calculate the next
 521:../../../../dependencies/freertos/FreeRTOSv10.4.1/FreeRTOS/Source/timers.c ****          * expiry time and re-insert the timer in the list of active timers. */
 522:../../../../dependencies/freertos/FreeRTOSv10.4.1/FreeRTOS/Source/timers.c ****         if( ( pxTimer->ucStatus & tmrSTATUS_IS_AUTORELOAD ) != 0 )
 929              		.loc 1 522 0
 930 001e 7B69     		ldr	r3, [r7, #20]
 931 0020 93F82830 		ldrb	r3, [r3, #40]	@ zero_extendqisi2
 932 0024 03F00403 		and	r3, r3, #4
 933 0028 002B     		cmp	r3, #0
 934 002a 22D0     		beq	.L56
 523:../../../../dependencies/freertos/FreeRTOSv10.4.1/FreeRTOS/Source/timers.c ****         {
 524:../../../../dependencies/freertos/FreeRTOSv10.4.1/FreeRTOS/Source/timers.c ****             /* The timer is inserted into a list using a time relative to anything
 525:../../../../dependencies/freertos/FreeRTOSv10.4.1/FreeRTOS/Source/timers.c ****              * other than the current time.  It will therefore be inserted into the
 526:../../../../dependencies/freertos/FreeRTOSv10.4.1/FreeRTOS/Source/timers.c ****              * correct list relative to the time this task thinks it is now. */
 527:../../../../dependencies/freertos/FreeRTOSv10.4.1/FreeRTOS/Source/timers.c ****             if( prvInsertTimerInActiveList( pxTimer, ( xNextExpireTime + pxTimer->xTimerPeriodInTic
 935              		.loc 1 527 0
 936 002c 7B69     		ldr	r3, [r7, #20]
 937 002e 9A69     		ldr	r2, [r3, #24]
 938 0030 7B68     		ldr	r3, [r7, #4]
 939 0032 1344     		add	r3, r3, r2
 940 0034 7869     		ldr	r0, [r7, #20]
 941 0036 1946     		mov	r1, r3
 942 0038 3A68     		ldr	r2, [r7]
 943 003a 7B68     		ldr	r3, [r7, #4]
 944 003c FFF7FEFF 		bl	prvInsertTimerInActiveList
 945 0040 0346     		mov	r3, r0
 946 0042 002B     		cmp	r3, #0
 947 0044 1ED0     		beq	.L57
 528:../../../../dependencies/freertos/FreeRTOSv10.4.1/FreeRTOS/Source/timers.c ****             {
 529:../../../../dependencies/freertos/FreeRTOSv10.4.1/FreeRTOS/Source/timers.c ****                 /* The timer expired before it was added to the active timer
 530:../../../../dependencies/freertos/FreeRTOSv10.4.1/FreeRTOS/Source/timers.c ****                  * list.  Reload it now.  */
 531:../../../../dependencies/freertos/FreeRTOSv10.4.1/FreeRTOS/Source/timers.c ****                 xResult = xTimerGenericCommand( pxTimer, tmrCOMMAND_START_DONT_TRACE, xNextExpireTi
 948              		.loc 1 531 0
 949 0046 0023     		movs	r3, #0
ARM GAS  /var/folders/_8/_cw6l3nd335f_j6cn6z79m4m0000gn/T//ccbV1VDy.s 			page 30


 950 0048 0093     		str	r3, [sp]
 951 004a 7869     		ldr	r0, [r7, #20]
 952 004c 0021     		movs	r1, #0
 953 004e 7A68     		ldr	r2, [r7, #4]
 954 0050 0023     		movs	r3, #0
 955 0052 FFF7FEFF 		bl	xTimerGenericCommand
 956 0056 3861     		str	r0, [r7, #16]
 532:../../../../dependencies/freertos/FreeRTOSv10.4.1/FreeRTOS/Source/timers.c ****                 configASSERT( xResult );
 957              		.loc 1 532 0
 958 0058 3B69     		ldr	r3, [r7, #16]
 959 005a 002B     		cmp	r3, #0
 960 005c 12D1     		bne	.L57
 961              	.LBB52:
 962              	.LBB53:
 963              		.loc 2 197 0 discriminator 1
 964              	@ 197 "../../../../dependencies/freertos/FreeRTOSv10.4.1/FreeRTOS/Source/portable/GCC/ARM_CM4F/port
 965 005e 4FF05003 			mov r3, #80												
 966 0062 83F31188 		msr basepri, r3											
 967 0066 BFF36F8F 		isb														
 968 006a BFF34F8F 		dsb														
 969              	
 970              	@ 0 "" 2
 971              		.thumb
 972 006e FB60     		str	r3, [r7, #12]
 973              	.L58:
 974              	.LBE53:
 975              	.LBE52:
 976              		.loc 1 532 0 discriminator 1
 977 0070 FEE7     		b	.L58
 978              	.L56:
 533:../../../../dependencies/freertos/FreeRTOSv10.4.1/FreeRTOS/Source/timers.c ****                 ( void ) xResult;
 534:../../../../dependencies/freertos/FreeRTOSv10.4.1/FreeRTOS/Source/timers.c ****             }
 535:../../../../dependencies/freertos/FreeRTOSv10.4.1/FreeRTOS/Source/timers.c ****             else
 536:../../../../dependencies/freertos/FreeRTOSv10.4.1/FreeRTOS/Source/timers.c ****             {
 537:../../../../dependencies/freertos/FreeRTOSv10.4.1/FreeRTOS/Source/timers.c ****                 mtCOVERAGE_TEST_MARKER();
 538:../../../../dependencies/freertos/FreeRTOSv10.4.1/FreeRTOS/Source/timers.c ****             }
 539:../../../../dependencies/freertos/FreeRTOSv10.4.1/FreeRTOS/Source/timers.c ****         }
 540:../../../../dependencies/freertos/FreeRTOSv10.4.1/FreeRTOS/Source/timers.c ****         else
 541:../../../../dependencies/freertos/FreeRTOSv10.4.1/FreeRTOS/Source/timers.c ****         {
 542:../../../../dependencies/freertos/FreeRTOSv10.4.1/FreeRTOS/Source/timers.c ****             pxTimer->ucStatus &= ~tmrSTATUS_IS_ACTIVE;
 979              		.loc 1 542 0
 980 0072 7B69     		ldr	r3, [r7, #20]
 981 0074 93F82830 		ldrb	r3, [r3, #40]	@ zero_extendqisi2
 982 0078 23F00103 		bic	r3, r3, #1
 983 007c DAB2     		uxtb	r2, r3
 984 007e 7B69     		ldr	r3, [r7, #20]
 985 0080 83F82820 		strb	r2, [r3, #40]
 986              	.L57:
 543:../../../../dependencies/freertos/FreeRTOSv10.4.1/FreeRTOS/Source/timers.c ****             mtCOVERAGE_TEST_MARKER();
 544:../../../../dependencies/freertos/FreeRTOSv10.4.1/FreeRTOS/Source/timers.c ****         }
 545:../../../../dependencies/freertos/FreeRTOSv10.4.1/FreeRTOS/Source/timers.c **** 
 546:../../../../dependencies/freertos/FreeRTOSv10.4.1/FreeRTOS/Source/timers.c ****         /* Call the timer callback. */
 547:../../../../dependencies/freertos/FreeRTOSv10.4.1/FreeRTOS/Source/timers.c ****         pxTimer->pxCallbackFunction( ( TimerHandle_t ) pxTimer );
 987              		.loc 1 547 0
 988 0084 7B69     		ldr	r3, [r7, #20]
 989 0086 1B6A     		ldr	r3, [r3, #32]
 990 0088 7869     		ldr	r0, [r7, #20]
ARM GAS  /var/folders/_8/_cw6l3nd335f_j6cn6z79m4m0000gn/T//ccbV1VDy.s 			page 31


 991 008a 9847     		blx	r3
 548:../../../../dependencies/freertos/FreeRTOSv10.4.1/FreeRTOS/Source/timers.c ****     }
 992              		.loc 1 548 0
 993 008c 1837     		adds	r7, r7, #24
 994              	.LCFI57:
 995              		.cfi_def_cfa_offset 8
 996 008e BD46     		mov	sp, r7
 997              	.LCFI58:
 998              		.cfi_def_cfa_register 13
 999              		@ sp needed
 1000 0090 80BD     		pop	{r7, pc}
 1001              	.L60:
 1002 0092 00BF     		.align	2
 1003              	.L59:
 1004 0094 00000000 		.word	pxCurrentTimerList
 1005              		.cfi_endproc
 1006              	.LFE15:
 1008              		.section	.text.prvTimerTask,"ax",%progbits
 1009              		.align	2
 1010              		.thumb
 1011              		.thumb_func
 1013              	prvTimerTask:
 1014              	.LFB16:
 549:../../../../dependencies/freertos/FreeRTOSv10.4.1/FreeRTOS/Source/timers.c **** /*-----------------------------------------------------------*/
 550:../../../../dependencies/freertos/FreeRTOSv10.4.1/FreeRTOS/Source/timers.c **** 
 551:../../../../dependencies/freertos/FreeRTOSv10.4.1/FreeRTOS/Source/timers.c ****     static portTASK_FUNCTION( prvTimerTask, pvParameters )
 552:../../../../dependencies/freertos/FreeRTOSv10.4.1/FreeRTOS/Source/timers.c ****     {
 1015              		.loc 1 552 0
 1016              		.cfi_startproc
 1017              		@ args = 0, pretend = 0, frame = 16
 1018              		@ frame_needed = 1, uses_anonymous_args = 0
 1019 0000 80B5     		push	{r7, lr}
 1020              	.LCFI59:
 1021              		.cfi_def_cfa_offset 8
 1022              		.cfi_offset 7, -8
 1023              		.cfi_offset 14, -4
 1024 0002 84B0     		sub	sp, sp, #16
 1025              	.LCFI60:
 1026              		.cfi_def_cfa_offset 24
 1027 0004 00AF     		add	r7, sp, #0
 1028              	.LCFI61:
 1029              		.cfi_def_cfa_register 7
 1030 0006 7860     		str	r0, [r7, #4]
 1031              	.L62:
 553:../../../../dependencies/freertos/FreeRTOSv10.4.1/FreeRTOS/Source/timers.c ****         TickType_t xNextExpireTime;
 554:../../../../dependencies/freertos/FreeRTOSv10.4.1/FreeRTOS/Source/timers.c ****         BaseType_t xListWasEmpty;
 555:../../../../dependencies/freertos/FreeRTOSv10.4.1/FreeRTOS/Source/timers.c **** 
 556:../../../../dependencies/freertos/FreeRTOSv10.4.1/FreeRTOS/Source/timers.c ****         /* Just to avoid compiler warnings. */
 557:../../../../dependencies/freertos/FreeRTOSv10.4.1/FreeRTOS/Source/timers.c ****         ( void ) pvParameters;
 558:../../../../dependencies/freertos/FreeRTOSv10.4.1/FreeRTOS/Source/timers.c **** 
 559:../../../../dependencies/freertos/FreeRTOSv10.4.1/FreeRTOS/Source/timers.c ****         #if ( configUSE_DAEMON_TASK_STARTUP_HOOK == 1 )
 560:../../../../dependencies/freertos/FreeRTOSv10.4.1/FreeRTOS/Source/timers.c ****             {
 561:../../../../dependencies/freertos/FreeRTOSv10.4.1/FreeRTOS/Source/timers.c ****                 extern void vApplicationDaemonTaskStartupHook( void );
 562:../../../../dependencies/freertos/FreeRTOSv10.4.1/FreeRTOS/Source/timers.c **** 
 563:../../../../dependencies/freertos/FreeRTOSv10.4.1/FreeRTOS/Source/timers.c ****                 /* Allow the application writer to execute some code in the context of
 564:../../../../dependencies/freertos/FreeRTOSv10.4.1/FreeRTOS/Source/timers.c ****                  * this task at the point the task starts executing.  This is useful if the
 565:../../../../dependencies/freertos/FreeRTOSv10.4.1/FreeRTOS/Source/timers.c ****                  * application includes initialisation code that would benefit from
ARM GAS  /var/folders/_8/_cw6l3nd335f_j6cn6z79m4m0000gn/T//ccbV1VDy.s 			page 32


 566:../../../../dependencies/freertos/FreeRTOSv10.4.1/FreeRTOS/Source/timers.c ****                  * executing after the scheduler has been started. */
 567:../../../../dependencies/freertos/FreeRTOSv10.4.1/FreeRTOS/Source/timers.c ****                 vApplicationDaemonTaskStartupHook();
 568:../../../../dependencies/freertos/FreeRTOSv10.4.1/FreeRTOS/Source/timers.c ****             }
 569:../../../../dependencies/freertos/FreeRTOSv10.4.1/FreeRTOS/Source/timers.c ****         #endif /* configUSE_DAEMON_TASK_STARTUP_HOOK */
 570:../../../../dependencies/freertos/FreeRTOSv10.4.1/FreeRTOS/Source/timers.c **** 
 571:../../../../dependencies/freertos/FreeRTOSv10.4.1/FreeRTOS/Source/timers.c ****         for( ; ; )
 572:../../../../dependencies/freertos/FreeRTOSv10.4.1/FreeRTOS/Source/timers.c ****         {
 573:../../../../dependencies/freertos/FreeRTOSv10.4.1/FreeRTOS/Source/timers.c ****             /* Query the timers list to see if it contains any timers, and if so,
 574:../../../../dependencies/freertos/FreeRTOSv10.4.1/FreeRTOS/Source/timers.c ****              * obtain the time at which the next timer will expire. */
 575:../../../../dependencies/freertos/FreeRTOSv10.4.1/FreeRTOS/Source/timers.c ****             xNextExpireTime = prvGetNextExpireTime( &xListWasEmpty );
 1032              		.loc 1 575 0 discriminator 1
 1033 0008 07F10803 		add	r3, r7, #8
 1034 000c 1846     		mov	r0, r3
 1035 000e FFF7FEFF 		bl	prvGetNextExpireTime
 1036 0012 F860     		str	r0, [r7, #12]
 576:../../../../dependencies/freertos/FreeRTOSv10.4.1/FreeRTOS/Source/timers.c **** 
 577:../../../../dependencies/freertos/FreeRTOSv10.4.1/FreeRTOS/Source/timers.c ****             /* If a timer has expired, process it.  Otherwise, block this task
 578:../../../../dependencies/freertos/FreeRTOSv10.4.1/FreeRTOS/Source/timers.c ****              * until either a timer does expire, or a command is received. */
 579:../../../../dependencies/freertos/FreeRTOSv10.4.1/FreeRTOS/Source/timers.c ****             prvProcessTimerOrBlockTask( xNextExpireTime, xListWasEmpty );
 1037              		.loc 1 579 0 discriminator 1
 1038 0014 BB68     		ldr	r3, [r7, #8]
 1039 0016 F868     		ldr	r0, [r7, #12]
 1040 0018 1946     		mov	r1, r3
 1041 001a FFF7FEFF 		bl	prvProcessTimerOrBlockTask
 580:../../../../dependencies/freertos/FreeRTOSv10.4.1/FreeRTOS/Source/timers.c **** 
 581:../../../../dependencies/freertos/FreeRTOSv10.4.1/FreeRTOS/Source/timers.c ****             /* Empty the command queue. */
 582:../../../../dependencies/freertos/FreeRTOSv10.4.1/FreeRTOS/Source/timers.c ****             prvProcessReceivedCommands();
 1042              		.loc 1 582 0 discriminator 1
 1043 001e FFF7FEFF 		bl	prvProcessReceivedCommands
 583:../../../../dependencies/freertos/FreeRTOSv10.4.1/FreeRTOS/Source/timers.c ****         }
 1044              		.loc 1 583 0 discriminator 1
 1045 0022 F1E7     		b	.L62
 1046              		.cfi_endproc
 1047              	.LFE16:
 1049              		.section	.text.prvProcessTimerOrBlockTask,"ax",%progbits
 1050              		.align	2
 1051              		.thumb
 1052              		.thumb_func
 1054              	prvProcessTimerOrBlockTask:
 1055              	.LFB17:
 584:../../../../dependencies/freertos/FreeRTOSv10.4.1/FreeRTOS/Source/timers.c ****     }
 585:../../../../dependencies/freertos/FreeRTOSv10.4.1/FreeRTOS/Source/timers.c **** /*-----------------------------------------------------------*/
 586:../../../../dependencies/freertos/FreeRTOSv10.4.1/FreeRTOS/Source/timers.c **** 
 587:../../../../dependencies/freertos/FreeRTOSv10.4.1/FreeRTOS/Source/timers.c ****     static void prvProcessTimerOrBlockTask( const TickType_t xNextExpireTime,
 588:../../../../dependencies/freertos/FreeRTOSv10.4.1/FreeRTOS/Source/timers.c ****                                             BaseType_t xListWasEmpty )
 589:../../../../dependencies/freertos/FreeRTOSv10.4.1/FreeRTOS/Source/timers.c ****     {
 1056              		.loc 1 589 0
 1057              		.cfi_startproc
 1058              		@ args = 0, pretend = 0, frame = 16
 1059              		@ frame_needed = 1, uses_anonymous_args = 0
 1060 0000 80B5     		push	{r7, lr}
 1061              	.LCFI62:
 1062              		.cfi_def_cfa_offset 8
 1063              		.cfi_offset 7, -8
 1064              		.cfi_offset 14, -4
 1065 0002 84B0     		sub	sp, sp, #16
 1066              	.LCFI63:
ARM GAS  /var/folders/_8/_cw6l3nd335f_j6cn6z79m4m0000gn/T//ccbV1VDy.s 			page 33


 1067              		.cfi_def_cfa_offset 24
 1068 0004 00AF     		add	r7, sp, #0
 1069              	.LCFI64:
 1070              		.cfi_def_cfa_register 7
 1071 0006 7860     		str	r0, [r7, #4]
 1072 0008 3960     		str	r1, [r7]
 590:../../../../dependencies/freertos/FreeRTOSv10.4.1/FreeRTOS/Source/timers.c ****         TickType_t xTimeNow;
 591:../../../../dependencies/freertos/FreeRTOSv10.4.1/FreeRTOS/Source/timers.c ****         BaseType_t xTimerListsWereSwitched;
 592:../../../../dependencies/freertos/FreeRTOSv10.4.1/FreeRTOS/Source/timers.c **** 
 593:../../../../dependencies/freertos/FreeRTOSv10.4.1/FreeRTOS/Source/timers.c ****         vTaskSuspendAll();
 1073              		.loc 1 593 0
 1074 000a FFF7FEFF 		bl	vTaskSuspendAll
 594:../../../../dependencies/freertos/FreeRTOSv10.4.1/FreeRTOS/Source/timers.c ****         {
 595:../../../../dependencies/freertos/FreeRTOSv10.4.1/FreeRTOS/Source/timers.c ****             /* Obtain the time now to make an assessment as to whether the timer
 596:../../../../dependencies/freertos/FreeRTOSv10.4.1/FreeRTOS/Source/timers.c ****              * has expired or not.  If obtaining the time causes the lists to switch
 597:../../../../dependencies/freertos/FreeRTOSv10.4.1/FreeRTOS/Source/timers.c ****              * then don't process this timer as any timers that remained in the list
 598:../../../../dependencies/freertos/FreeRTOSv10.4.1/FreeRTOS/Source/timers.c ****              * when the lists were switched will have been processed within the
 599:../../../../dependencies/freertos/FreeRTOSv10.4.1/FreeRTOS/Source/timers.c ****              * prvSampleTimeNow() function. */
 600:../../../../dependencies/freertos/FreeRTOSv10.4.1/FreeRTOS/Source/timers.c ****             xTimeNow = prvSampleTimeNow( &xTimerListsWereSwitched );
 1075              		.loc 1 600 0
 1076 000e 07F10803 		add	r3, r7, #8
 1077 0012 1846     		mov	r0, r3
 1078 0014 FFF7FEFF 		bl	prvSampleTimeNow
 1079 0018 F860     		str	r0, [r7, #12]
 601:../../../../dependencies/freertos/FreeRTOSv10.4.1/FreeRTOS/Source/timers.c **** 
 602:../../../../dependencies/freertos/FreeRTOSv10.4.1/FreeRTOS/Source/timers.c ****             if( xTimerListsWereSwitched == pdFALSE )
 1080              		.loc 1 602 0
 1081 001a BB68     		ldr	r3, [r7, #8]
 1082 001c 002B     		cmp	r3, #0
 1083 001e 31D1     		bne	.L64
 603:../../../../dependencies/freertos/FreeRTOSv10.4.1/FreeRTOS/Source/timers.c ****             {
 604:../../../../dependencies/freertos/FreeRTOSv10.4.1/FreeRTOS/Source/timers.c ****                 /* The tick count has not overflowed, has the timer expired? */
 605:../../../../dependencies/freertos/FreeRTOSv10.4.1/FreeRTOS/Source/timers.c ****                 if( ( xListWasEmpty == pdFALSE ) && ( xNextExpireTime <= xTimeNow ) )
 1084              		.loc 1 605 0
 1085 0020 3B68     		ldr	r3, [r7]
 1086 0022 002B     		cmp	r3, #0
 1087 0024 0AD1     		bne	.L65
 1088              		.loc 1 605 0 is_stmt 0 discriminator 1
 1089 0026 7A68     		ldr	r2, [r7, #4]
 1090 0028 FB68     		ldr	r3, [r7, #12]
 1091 002a 9A42     		cmp	r2, r3
 1092 002c 06D8     		bhi	.L65
 606:../../../../dependencies/freertos/FreeRTOSv10.4.1/FreeRTOS/Source/timers.c ****                 {
 607:../../../../dependencies/freertos/FreeRTOSv10.4.1/FreeRTOS/Source/timers.c ****                     ( void ) xTaskResumeAll();
 1093              		.loc 1 607 0 is_stmt 1
 1094 002e FFF7FEFF 		bl	xTaskResumeAll
 608:../../../../dependencies/freertos/FreeRTOSv10.4.1/FreeRTOS/Source/timers.c ****                     prvProcessExpiredTimer( xNextExpireTime, xTimeNow );
 1095              		.loc 1 608 0
 1096 0032 7868     		ldr	r0, [r7, #4]
 1097 0034 F968     		ldr	r1, [r7, #12]
 1098 0036 FFF7FEFF 		bl	prvProcessExpiredTimer
 1099 003a 25E0     		b	.L63
 1100              	.L65:
 609:../../../../dependencies/freertos/FreeRTOSv10.4.1/FreeRTOS/Source/timers.c ****                 }
 610:../../../../dependencies/freertos/FreeRTOSv10.4.1/FreeRTOS/Source/timers.c ****                 else
 611:../../../../dependencies/freertos/FreeRTOSv10.4.1/FreeRTOS/Source/timers.c ****                 {
 612:../../../../dependencies/freertos/FreeRTOSv10.4.1/FreeRTOS/Source/timers.c ****                     /* The tick count has not overflowed, and the next expire
ARM GAS  /var/folders/_8/_cw6l3nd335f_j6cn6z79m4m0000gn/T//ccbV1VDy.s 			page 34


 613:../../../../dependencies/freertos/FreeRTOSv10.4.1/FreeRTOS/Source/timers.c ****                      * time has not been reached yet.  This task should therefore
 614:../../../../dependencies/freertos/FreeRTOSv10.4.1/FreeRTOS/Source/timers.c ****                      * block to wait for the next expire time or a command to be
 615:../../../../dependencies/freertos/FreeRTOSv10.4.1/FreeRTOS/Source/timers.c ****                      * received - whichever comes first.  The following line cannot
 616:../../../../dependencies/freertos/FreeRTOSv10.4.1/FreeRTOS/Source/timers.c ****                      * be reached unless xNextExpireTime > xTimeNow, except in the
 617:../../../../dependencies/freertos/FreeRTOSv10.4.1/FreeRTOS/Source/timers.c ****                      * case when the current timer list is empty. */
 618:../../../../dependencies/freertos/FreeRTOSv10.4.1/FreeRTOS/Source/timers.c ****                     if( xListWasEmpty != pdFALSE )
 1101              		.loc 1 618 0
 1102 003c 3B68     		ldr	r3, [r7]
 1103 003e 002B     		cmp	r3, #0
 1104 0040 08D0     		beq	.L67
 619:../../../../dependencies/freertos/FreeRTOSv10.4.1/FreeRTOS/Source/timers.c ****                     {
 620:../../../../dependencies/freertos/FreeRTOSv10.4.1/FreeRTOS/Source/timers.c ****                         /* The current timer list is empty - is the overflow list
 621:../../../../dependencies/freertos/FreeRTOSv10.4.1/FreeRTOS/Source/timers.c ****                          * also empty? */
 622:../../../../dependencies/freertos/FreeRTOSv10.4.1/FreeRTOS/Source/timers.c ****                         xListWasEmpty = listLIST_IS_EMPTY( pxOverflowTimerList );
 1105              		.loc 1 622 0
 1106 0042 134B     		ldr	r3, .L71
 1107 0044 1B68     		ldr	r3, [r3]
 1108 0046 1B68     		ldr	r3, [r3]
 1109 0048 002B     		cmp	r3, #0
 1110 004a 01D1     		bne	.L68
 1111              		.loc 1 622 0 is_stmt 0 discriminator 1
 1112 004c 0123     		movs	r3, #1
 1113 004e 00E0     		b	.L69
 1114              	.L68:
 1115              		.loc 1 622 0 discriminator 2
 1116 0050 0023     		movs	r3, #0
 1117              	.L69:
 1118              		.loc 1 622 0 discriminator 4
 1119 0052 3B60     		str	r3, [r7]
 1120              	.L67:
 623:../../../../dependencies/freertos/FreeRTOSv10.4.1/FreeRTOS/Source/timers.c ****                     }
 624:../../../../dependencies/freertos/FreeRTOSv10.4.1/FreeRTOS/Source/timers.c **** 
 625:../../../../dependencies/freertos/FreeRTOSv10.4.1/FreeRTOS/Source/timers.c ****                     vQueueWaitForMessageRestricted( xTimerQueue, ( xNextExpireTime - xTimeNow ), xL
 1121              		.loc 1 625 0 is_stmt 1
 1122 0054 0F4B     		ldr	r3, .L71+4
 1123 0056 1968     		ldr	r1, [r3]
 1124 0058 7A68     		ldr	r2, [r7, #4]
 1125 005a FB68     		ldr	r3, [r7, #12]
 1126 005c D31A     		subs	r3, r2, r3
 1127 005e 0846     		mov	r0, r1
 1128 0060 1946     		mov	r1, r3
 1129 0062 3A68     		ldr	r2, [r7]
 1130 0064 FFF7FEFF 		bl	vQueueWaitForMessageRestricted
 626:../../../../dependencies/freertos/FreeRTOSv10.4.1/FreeRTOS/Source/timers.c **** 
 627:../../../../dependencies/freertos/FreeRTOSv10.4.1/FreeRTOS/Source/timers.c ****                     if( xTaskResumeAll() == pdFALSE )
 1131              		.loc 1 627 0
 1132 0068 FFF7FEFF 		bl	xTaskResumeAll
 1133 006c 0346     		mov	r3, r0
 1134 006e 002B     		cmp	r3, #0
 1135 0070 0AD1     		bne	.L63
 628:../../../../dependencies/freertos/FreeRTOSv10.4.1/FreeRTOS/Source/timers.c ****                     {
 629:../../../../dependencies/freertos/FreeRTOSv10.4.1/FreeRTOS/Source/timers.c ****                         /* Yield to wait for either a command to arrive, or the
 630:../../../../dependencies/freertos/FreeRTOSv10.4.1/FreeRTOS/Source/timers.c ****                          * block time to expire.  If a command arrived between the
 631:../../../../dependencies/freertos/FreeRTOSv10.4.1/FreeRTOS/Source/timers.c ****                          * critical section being exited and this yield then the yield
 632:../../../../dependencies/freertos/FreeRTOSv10.4.1/FreeRTOS/Source/timers.c ****                          * will not cause the task to block. */
 633:../../../../dependencies/freertos/FreeRTOSv10.4.1/FreeRTOS/Source/timers.c ****                         portYIELD_WITHIN_API();
 1136              		.loc 1 633 0
ARM GAS  /var/folders/_8/_cw6l3nd335f_j6cn6z79m4m0000gn/T//ccbV1VDy.s 			page 35


 1137 0072 094B     		ldr	r3, .L71+8
 1138 0074 4FF08052 		mov	r2, #268435456
 1139 0078 1A60     		str	r2, [r3]
 1140              	@ 633 "../../../../dependencies/freertos/FreeRTOSv10.4.1/FreeRTOS/Source/timers.c" 1
 1141 007a BFF34F8F 		dsb
 1142              	@ 0 "" 2
 1143              	@ 633 "../../../../dependencies/freertos/FreeRTOSv10.4.1/FreeRTOS/Source/timers.c" 1
 1144 007e BFF36F8F 		isb
 1145              	@ 0 "" 2
 1146              		.thumb
 1147 0082 01E0     		b	.L63
 1148              	.L64:
 634:../../../../dependencies/freertos/FreeRTOSv10.4.1/FreeRTOS/Source/timers.c ****                     }
 635:../../../../dependencies/freertos/FreeRTOSv10.4.1/FreeRTOS/Source/timers.c ****                     else
 636:../../../../dependencies/freertos/FreeRTOSv10.4.1/FreeRTOS/Source/timers.c ****                     {
 637:../../../../dependencies/freertos/FreeRTOSv10.4.1/FreeRTOS/Source/timers.c ****                         mtCOVERAGE_TEST_MARKER();
 638:../../../../dependencies/freertos/FreeRTOSv10.4.1/FreeRTOS/Source/timers.c ****                     }
 639:../../../../dependencies/freertos/FreeRTOSv10.4.1/FreeRTOS/Source/timers.c ****                 }
 640:../../../../dependencies/freertos/FreeRTOSv10.4.1/FreeRTOS/Source/timers.c ****             }
 641:../../../../dependencies/freertos/FreeRTOSv10.4.1/FreeRTOS/Source/timers.c ****             else
 642:../../../../dependencies/freertos/FreeRTOSv10.4.1/FreeRTOS/Source/timers.c ****             {
 643:../../../../dependencies/freertos/FreeRTOSv10.4.1/FreeRTOS/Source/timers.c ****                 ( void ) xTaskResumeAll();
 1149              		.loc 1 643 0
 1150 0084 FFF7FEFF 		bl	xTaskResumeAll
 1151              	.L63:
 644:../../../../dependencies/freertos/FreeRTOSv10.4.1/FreeRTOS/Source/timers.c ****             }
 645:../../../../dependencies/freertos/FreeRTOSv10.4.1/FreeRTOS/Source/timers.c ****         }
 646:../../../../dependencies/freertos/FreeRTOSv10.4.1/FreeRTOS/Source/timers.c ****     }
 1152              		.loc 1 646 0
 1153 0088 1037     		adds	r7, r7, #16
 1154              	.LCFI65:
 1155              		.cfi_def_cfa_offset 8
 1156 008a BD46     		mov	sp, r7
 1157              	.LCFI66:
 1158              		.cfi_def_cfa_register 13
 1159              		@ sp needed
 1160 008c 80BD     		pop	{r7, pc}
 1161              	.L72:
 1162 008e 00BF     		.align	2
 1163              	.L71:
 1164 0090 00000000 		.word	pxOverflowTimerList
 1165 0094 00000000 		.word	xTimerQueue
 1166 0098 04ED00E0 		.word	-536810236
 1167              		.cfi_endproc
 1168              	.LFE17:
 1170              		.section	.text.prvGetNextExpireTime,"ax",%progbits
 1171              		.align	2
 1172              		.thumb
 1173              		.thumb_func
 1175              	prvGetNextExpireTime:
 1176              	.LFB18:
 647:../../../../dependencies/freertos/FreeRTOSv10.4.1/FreeRTOS/Source/timers.c **** /*-----------------------------------------------------------*/
 648:../../../../dependencies/freertos/FreeRTOSv10.4.1/FreeRTOS/Source/timers.c **** 
 649:../../../../dependencies/freertos/FreeRTOSv10.4.1/FreeRTOS/Source/timers.c ****     static TickType_t prvGetNextExpireTime( BaseType_t * const pxListWasEmpty )
 650:../../../../dependencies/freertos/FreeRTOSv10.4.1/FreeRTOS/Source/timers.c ****     {
 1177              		.loc 1 650 0
 1178              		.cfi_startproc
ARM GAS  /var/folders/_8/_cw6l3nd335f_j6cn6z79m4m0000gn/T//ccbV1VDy.s 			page 36


 1179              		@ args = 0, pretend = 0, frame = 16
 1180              		@ frame_needed = 1, uses_anonymous_args = 0
 1181              		@ link register save eliminated.
 1182 0000 80B4     		push	{r7}
 1183              	.LCFI67:
 1184              		.cfi_def_cfa_offset 4
 1185              		.cfi_offset 7, -4
 1186 0002 85B0     		sub	sp, sp, #20
 1187              	.LCFI68:
 1188              		.cfi_def_cfa_offset 24
 1189 0004 00AF     		add	r7, sp, #0
 1190              	.LCFI69:
 1191              		.cfi_def_cfa_register 7
 1192 0006 7860     		str	r0, [r7, #4]
 651:../../../../dependencies/freertos/FreeRTOSv10.4.1/FreeRTOS/Source/timers.c ****         TickType_t xNextExpireTime;
 652:../../../../dependencies/freertos/FreeRTOSv10.4.1/FreeRTOS/Source/timers.c **** 
 653:../../../../dependencies/freertos/FreeRTOSv10.4.1/FreeRTOS/Source/timers.c ****         /* Timers are listed in expiry time order, with the head of the list
 654:../../../../dependencies/freertos/FreeRTOSv10.4.1/FreeRTOS/Source/timers.c ****          * referencing the task that will expire first.  Obtain the time at which
 655:../../../../dependencies/freertos/FreeRTOSv10.4.1/FreeRTOS/Source/timers.c ****          * the timer with the nearest expiry time will expire.  If there are no
 656:../../../../dependencies/freertos/FreeRTOSv10.4.1/FreeRTOS/Source/timers.c ****          * active timers then just set the next expire time to 0.  That will cause
 657:../../../../dependencies/freertos/FreeRTOSv10.4.1/FreeRTOS/Source/timers.c ****          * this task to unblock when the tick count overflows, at which point the
 658:../../../../dependencies/freertos/FreeRTOSv10.4.1/FreeRTOS/Source/timers.c ****          * timer lists will be switched and the next expiry time can be
 659:../../../../dependencies/freertos/FreeRTOSv10.4.1/FreeRTOS/Source/timers.c ****          * re-assessed.  */
 660:../../../../dependencies/freertos/FreeRTOSv10.4.1/FreeRTOS/Source/timers.c ****         *pxListWasEmpty = listLIST_IS_EMPTY( pxCurrentTimerList );
 1193              		.loc 1 660 0
 1194 0008 0E4B     		ldr	r3, .L79
 1195 000a 1B68     		ldr	r3, [r3]
 1196 000c 1B68     		ldr	r3, [r3]
 1197 000e 002B     		cmp	r3, #0
 1198 0010 01D1     		bne	.L74
 1199              		.loc 1 660 0 is_stmt 0 discriminator 1
 1200 0012 0122     		movs	r2, #1
 1201 0014 00E0     		b	.L75
 1202              	.L74:
 1203              		.loc 1 660 0 discriminator 2
 1204 0016 0022     		movs	r2, #0
 1205              	.L75:
 1206              		.loc 1 660 0 discriminator 4
 1207 0018 7B68     		ldr	r3, [r7, #4]
 1208 001a 1A60     		str	r2, [r3]
 661:../../../../dependencies/freertos/FreeRTOSv10.4.1/FreeRTOS/Source/timers.c **** 
 662:../../../../dependencies/freertos/FreeRTOSv10.4.1/FreeRTOS/Source/timers.c ****         if( *pxListWasEmpty == pdFALSE )
 1209              		.loc 1 662 0 is_stmt 1 discriminator 4
 1210 001c 7B68     		ldr	r3, [r7, #4]
 1211 001e 1B68     		ldr	r3, [r3]
 1212 0020 002B     		cmp	r3, #0
 1213 0022 05D1     		bne	.L76
 663:../../../../dependencies/freertos/FreeRTOSv10.4.1/FreeRTOS/Source/timers.c ****         {
 664:../../../../dependencies/freertos/FreeRTOSv10.4.1/FreeRTOS/Source/timers.c ****             xNextExpireTime = listGET_ITEM_VALUE_OF_HEAD_ENTRY( pxCurrentTimerList );
 1214              		.loc 1 664 0
 1215 0024 074B     		ldr	r3, .L79
 1216 0026 1B68     		ldr	r3, [r3]
 1217 0028 DB68     		ldr	r3, [r3, #12]
 1218 002a 1B68     		ldr	r3, [r3]
 1219 002c FB60     		str	r3, [r7, #12]
 1220 002e 01E0     		b	.L77
 1221              	.L76:
ARM GAS  /var/folders/_8/_cw6l3nd335f_j6cn6z79m4m0000gn/T//ccbV1VDy.s 			page 37


 665:../../../../dependencies/freertos/FreeRTOSv10.4.1/FreeRTOS/Source/timers.c ****         }
 666:../../../../dependencies/freertos/FreeRTOSv10.4.1/FreeRTOS/Source/timers.c ****         else
 667:../../../../dependencies/freertos/FreeRTOSv10.4.1/FreeRTOS/Source/timers.c ****         {
 668:../../../../dependencies/freertos/FreeRTOSv10.4.1/FreeRTOS/Source/timers.c ****             /* Ensure the task unblocks when the tick count rolls over. */
 669:../../../../dependencies/freertos/FreeRTOSv10.4.1/FreeRTOS/Source/timers.c ****             xNextExpireTime = ( TickType_t ) 0U;
 1222              		.loc 1 669 0
 1223 0030 0023     		movs	r3, #0
 1224 0032 FB60     		str	r3, [r7, #12]
 1225              	.L77:
 670:../../../../dependencies/freertos/FreeRTOSv10.4.1/FreeRTOS/Source/timers.c ****         }
 671:../../../../dependencies/freertos/FreeRTOSv10.4.1/FreeRTOS/Source/timers.c **** 
 672:../../../../dependencies/freertos/FreeRTOSv10.4.1/FreeRTOS/Source/timers.c ****         return xNextExpireTime;
 1226              		.loc 1 672 0
 1227 0034 FB68     		ldr	r3, [r7, #12]
 673:../../../../dependencies/freertos/FreeRTOSv10.4.1/FreeRTOS/Source/timers.c ****     }
 1228              		.loc 1 673 0
 1229 0036 1846     		mov	r0, r3
 1230 0038 1437     		adds	r7, r7, #20
 1231              	.LCFI70:
 1232              		.cfi_def_cfa_offset 4
 1233 003a BD46     		mov	sp, r7
 1234              	.LCFI71:
 1235              		.cfi_def_cfa_register 13
 1236              		@ sp needed
 1237 003c 5DF8047B 		ldr	r7, [sp], #4
 1238              	.LCFI72:
 1239              		.cfi_restore 7
 1240              		.cfi_def_cfa_offset 0
 1241 0040 7047     		bx	lr
 1242              	.L80:
 1243 0042 00BF     		.align	2
 1244              	.L79:
 1245 0044 00000000 		.word	pxCurrentTimerList
 1246              		.cfi_endproc
 1247              	.LFE18:
 1249              		.section	.text.prvSampleTimeNow,"ax",%progbits
 1250              		.align	2
 1251              		.thumb
 1252              		.thumb_func
 1254              	prvSampleTimeNow:
 1255              	.LFB19:
 674:../../../../dependencies/freertos/FreeRTOSv10.4.1/FreeRTOS/Source/timers.c **** /*-----------------------------------------------------------*/
 675:../../../../dependencies/freertos/FreeRTOSv10.4.1/FreeRTOS/Source/timers.c **** 
 676:../../../../dependencies/freertos/FreeRTOSv10.4.1/FreeRTOS/Source/timers.c ****     static TickType_t prvSampleTimeNow( BaseType_t * const pxTimerListsWereSwitched )
 677:../../../../dependencies/freertos/FreeRTOSv10.4.1/FreeRTOS/Source/timers.c ****     {
 1256              		.loc 1 677 0
 1257              		.cfi_startproc
 1258              		@ args = 0, pretend = 0, frame = 16
 1259              		@ frame_needed = 1, uses_anonymous_args = 0
 1260 0000 80B5     		push	{r7, lr}
 1261              	.LCFI73:
 1262              		.cfi_def_cfa_offset 8
 1263              		.cfi_offset 7, -8
 1264              		.cfi_offset 14, -4
 1265 0002 84B0     		sub	sp, sp, #16
 1266              	.LCFI74:
 1267              		.cfi_def_cfa_offset 24
ARM GAS  /var/folders/_8/_cw6l3nd335f_j6cn6z79m4m0000gn/T//ccbV1VDy.s 			page 38


 1268 0004 00AF     		add	r7, sp, #0
 1269              	.LCFI75:
 1270              		.cfi_def_cfa_register 7
 1271 0006 7860     		str	r0, [r7, #4]
 678:../../../../dependencies/freertos/FreeRTOSv10.4.1/FreeRTOS/Source/timers.c ****         TickType_t xTimeNow;
 679:../../../../dependencies/freertos/FreeRTOSv10.4.1/FreeRTOS/Source/timers.c ****         PRIVILEGED_DATA static TickType_t xLastTime = ( TickType_t ) 0U; /*lint !e956 Variable is o
 680:../../../../dependencies/freertos/FreeRTOSv10.4.1/FreeRTOS/Source/timers.c **** 
 681:../../../../dependencies/freertos/FreeRTOSv10.4.1/FreeRTOS/Source/timers.c ****         xTimeNow = xTaskGetTickCount();
 1272              		.loc 1 681 0
 1273 0008 FFF7FEFF 		bl	xTaskGetTickCount
 1274 000c F860     		str	r0, [r7, #12]
 682:../../../../dependencies/freertos/FreeRTOSv10.4.1/FreeRTOS/Source/timers.c **** 
 683:../../../../dependencies/freertos/FreeRTOSv10.4.1/FreeRTOS/Source/timers.c ****         if( xTimeNow < xLastTime )
 1275              		.loc 1 683 0
 1276 000e 0B4B     		ldr	r3, .L85
 1277 0010 1B68     		ldr	r3, [r3]
 1278 0012 FA68     		ldr	r2, [r7, #12]
 1279 0014 9A42     		cmp	r2, r3
 1280 0016 05D2     		bcs	.L82
 684:../../../../dependencies/freertos/FreeRTOSv10.4.1/FreeRTOS/Source/timers.c ****         {
 685:../../../../dependencies/freertos/FreeRTOSv10.4.1/FreeRTOS/Source/timers.c ****             prvSwitchTimerLists();
 1281              		.loc 1 685 0
 1282 0018 FFF7FEFF 		bl	prvSwitchTimerLists
 686:../../../../dependencies/freertos/FreeRTOSv10.4.1/FreeRTOS/Source/timers.c ****             *pxTimerListsWereSwitched = pdTRUE;
 1283              		.loc 1 686 0
 1284 001c 7B68     		ldr	r3, [r7, #4]
 1285 001e 0122     		movs	r2, #1
 1286 0020 1A60     		str	r2, [r3]
 1287 0022 02E0     		b	.L83
 1288              	.L82:
 687:../../../../dependencies/freertos/FreeRTOSv10.4.1/FreeRTOS/Source/timers.c ****         }
 688:../../../../dependencies/freertos/FreeRTOSv10.4.1/FreeRTOS/Source/timers.c ****         else
 689:../../../../dependencies/freertos/FreeRTOSv10.4.1/FreeRTOS/Source/timers.c ****         {
 690:../../../../dependencies/freertos/FreeRTOSv10.4.1/FreeRTOS/Source/timers.c ****             *pxTimerListsWereSwitched = pdFALSE;
 1289              		.loc 1 690 0
 1290 0024 7B68     		ldr	r3, [r7, #4]
 1291 0026 0022     		movs	r2, #0
 1292 0028 1A60     		str	r2, [r3]
 1293              	.L83:
 691:../../../../dependencies/freertos/FreeRTOSv10.4.1/FreeRTOS/Source/timers.c ****         }
 692:../../../../dependencies/freertos/FreeRTOSv10.4.1/FreeRTOS/Source/timers.c **** 
 693:../../../../dependencies/freertos/FreeRTOSv10.4.1/FreeRTOS/Source/timers.c ****         xLastTime = xTimeNow;
 1294              		.loc 1 693 0
 1295 002a 044A     		ldr	r2, .L85
 1296 002c FB68     		ldr	r3, [r7, #12]
 1297 002e 1360     		str	r3, [r2]
 694:../../../../dependencies/freertos/FreeRTOSv10.4.1/FreeRTOS/Source/timers.c **** 
 695:../../../../dependencies/freertos/FreeRTOSv10.4.1/FreeRTOS/Source/timers.c ****         return xTimeNow;
 1298              		.loc 1 695 0
 1299 0030 FB68     		ldr	r3, [r7, #12]
 696:../../../../dependencies/freertos/FreeRTOSv10.4.1/FreeRTOS/Source/timers.c ****     }
 1300              		.loc 1 696 0
 1301 0032 1846     		mov	r0, r3
 1302 0034 1037     		adds	r7, r7, #16
 1303              	.LCFI76:
 1304              		.cfi_def_cfa_offset 8
 1305 0036 BD46     		mov	sp, r7
ARM GAS  /var/folders/_8/_cw6l3nd335f_j6cn6z79m4m0000gn/T//ccbV1VDy.s 			page 39


 1306              	.LCFI77:
 1307              		.cfi_def_cfa_register 13
 1308              		@ sp needed
 1309 0038 80BD     		pop	{r7, pc}
 1310              	.L86:
 1311 003a 00BF     		.align	2
 1312              	.L85:
 1313 003c 00000000 		.word	xLastTime.5407
 1314              		.cfi_endproc
 1315              	.LFE19:
 1317              		.section	.text.prvInsertTimerInActiveList,"ax",%progbits
 1318              		.align	2
 1319              		.thumb
 1320              		.thumb_func
 1322              	prvInsertTimerInActiveList:
 1323              	.LFB20:
 697:../../../../dependencies/freertos/FreeRTOSv10.4.1/FreeRTOS/Source/timers.c **** /*-----------------------------------------------------------*/
 698:../../../../dependencies/freertos/FreeRTOSv10.4.1/FreeRTOS/Source/timers.c **** 
 699:../../../../dependencies/freertos/FreeRTOSv10.4.1/FreeRTOS/Source/timers.c ****     static BaseType_t prvInsertTimerInActiveList( Timer_t * const pxTimer,
 700:../../../../dependencies/freertos/FreeRTOSv10.4.1/FreeRTOS/Source/timers.c ****                                                   const TickType_t xNextExpiryTime,
 701:../../../../dependencies/freertos/FreeRTOSv10.4.1/FreeRTOS/Source/timers.c ****                                                   const TickType_t xTimeNow,
 702:../../../../dependencies/freertos/FreeRTOSv10.4.1/FreeRTOS/Source/timers.c ****                                                   const TickType_t xCommandTime )
 703:../../../../dependencies/freertos/FreeRTOSv10.4.1/FreeRTOS/Source/timers.c ****     {
 1324              		.loc 1 703 0
 1325              		.cfi_startproc
 1326              		@ args = 0, pretend = 0, frame = 24
 1327              		@ frame_needed = 1, uses_anonymous_args = 0
 1328 0000 80B5     		push	{r7, lr}
 1329              	.LCFI78:
 1330              		.cfi_def_cfa_offset 8
 1331              		.cfi_offset 7, -8
 1332              		.cfi_offset 14, -4
 1333 0002 86B0     		sub	sp, sp, #24
 1334              	.LCFI79:
 1335              		.cfi_def_cfa_offset 32
 1336 0004 00AF     		add	r7, sp, #0
 1337              	.LCFI80:
 1338              		.cfi_def_cfa_register 7
 1339 0006 F860     		str	r0, [r7, #12]
 1340 0008 B960     		str	r1, [r7, #8]
 1341 000a 7A60     		str	r2, [r7, #4]
 1342 000c 3B60     		str	r3, [r7]
 704:../../../../dependencies/freertos/FreeRTOSv10.4.1/FreeRTOS/Source/timers.c ****         BaseType_t xProcessTimerNow = pdFALSE;
 1343              		.loc 1 704 0
 1344 000e 0023     		movs	r3, #0
 1345 0010 7B61     		str	r3, [r7, #20]
 705:../../../../dependencies/freertos/FreeRTOSv10.4.1/FreeRTOS/Source/timers.c **** 
 706:../../../../dependencies/freertos/FreeRTOSv10.4.1/FreeRTOS/Source/timers.c ****         listSET_LIST_ITEM_VALUE( &( pxTimer->xTimerListItem ), xNextExpiryTime );
 1346              		.loc 1 706 0
 1347 0012 FB68     		ldr	r3, [r7, #12]
 1348 0014 BA68     		ldr	r2, [r7, #8]
 1349 0016 5A60     		str	r2, [r3, #4]
 707:../../../../dependencies/freertos/FreeRTOSv10.4.1/FreeRTOS/Source/timers.c ****         listSET_LIST_ITEM_OWNER( &( pxTimer->xTimerListItem ), pxTimer );
 1350              		.loc 1 707 0
 1351 0018 FB68     		ldr	r3, [r7, #12]
 1352 001a FA68     		ldr	r2, [r7, #12]
 1353 001c 1A61     		str	r2, [r3, #16]
ARM GAS  /var/folders/_8/_cw6l3nd335f_j6cn6z79m4m0000gn/T//ccbV1VDy.s 			page 40


 708:../../../../dependencies/freertos/FreeRTOSv10.4.1/FreeRTOS/Source/timers.c **** 
 709:../../../../dependencies/freertos/FreeRTOSv10.4.1/FreeRTOS/Source/timers.c ****         if( xNextExpiryTime <= xTimeNow )
 1354              		.loc 1 709 0
 1355 001e BA68     		ldr	r2, [r7, #8]
 1356 0020 7B68     		ldr	r3, [r7, #4]
 1357 0022 9A42     		cmp	r2, r3
 1358 0024 12D8     		bhi	.L88
 710:../../../../dependencies/freertos/FreeRTOSv10.4.1/FreeRTOS/Source/timers.c ****         {
 711:../../../../dependencies/freertos/FreeRTOSv10.4.1/FreeRTOS/Source/timers.c ****             /* Has the expiry time elapsed between the command to start/reset a
 712:../../../../dependencies/freertos/FreeRTOSv10.4.1/FreeRTOS/Source/timers.c ****              * timer was issued, and the time the command was processed? */
 713:../../../../dependencies/freertos/FreeRTOSv10.4.1/FreeRTOS/Source/timers.c ****             if( ( ( TickType_t ) ( xTimeNow - xCommandTime ) ) >= pxTimer->xTimerPeriodInTicks ) /*
 1359              		.loc 1 713 0
 1360 0026 7A68     		ldr	r2, [r7, #4]
 1361 0028 3B68     		ldr	r3, [r7]
 1362 002a D21A     		subs	r2, r2, r3
 1363 002c FB68     		ldr	r3, [r7, #12]
 1364 002e 9B69     		ldr	r3, [r3, #24]
 1365 0030 9A42     		cmp	r2, r3
 1366 0032 02D3     		bcc	.L89
 714:../../../../dependencies/freertos/FreeRTOSv10.4.1/FreeRTOS/Source/timers.c ****             {
 715:../../../../dependencies/freertos/FreeRTOSv10.4.1/FreeRTOS/Source/timers.c ****                 /* The time between a command being issued and the command being
 716:../../../../dependencies/freertos/FreeRTOSv10.4.1/FreeRTOS/Source/timers.c ****                  * processed actually exceeds the timers period.  */
 717:../../../../dependencies/freertos/FreeRTOSv10.4.1/FreeRTOS/Source/timers.c ****                 xProcessTimerNow = pdTRUE;
 1367              		.loc 1 717 0
 1368 0034 0123     		movs	r3, #1
 1369 0036 7B61     		str	r3, [r7, #20]
 1370 0038 1BE0     		b	.L91
 1371              	.L89:
 718:../../../../dependencies/freertos/FreeRTOSv10.4.1/FreeRTOS/Source/timers.c ****             }
 719:../../../../dependencies/freertos/FreeRTOSv10.4.1/FreeRTOS/Source/timers.c ****             else
 720:../../../../dependencies/freertos/FreeRTOSv10.4.1/FreeRTOS/Source/timers.c ****             {
 721:../../../../dependencies/freertos/FreeRTOSv10.4.1/FreeRTOS/Source/timers.c ****                 vListInsert( pxOverflowTimerList, &( pxTimer->xTimerListItem ) );
 1372              		.loc 1 721 0
 1373 003a 104B     		ldr	r3, .L94
 1374 003c 1A68     		ldr	r2, [r3]
 1375 003e FB68     		ldr	r3, [r7, #12]
 1376 0040 0433     		adds	r3, r3, #4
 1377 0042 1046     		mov	r0, r2
 1378 0044 1946     		mov	r1, r3
 1379 0046 FFF7FEFF 		bl	vListInsert
 1380 004a 12E0     		b	.L91
 1381              	.L88:
 722:../../../../dependencies/freertos/FreeRTOSv10.4.1/FreeRTOS/Source/timers.c ****             }
 723:../../../../dependencies/freertos/FreeRTOSv10.4.1/FreeRTOS/Source/timers.c ****         }
 724:../../../../dependencies/freertos/FreeRTOSv10.4.1/FreeRTOS/Source/timers.c ****         else
 725:../../../../dependencies/freertos/FreeRTOSv10.4.1/FreeRTOS/Source/timers.c ****         {
 726:../../../../dependencies/freertos/FreeRTOSv10.4.1/FreeRTOS/Source/timers.c ****             if( ( xTimeNow < xCommandTime ) && ( xNextExpiryTime >= xCommandTime ) )
 1382              		.loc 1 726 0
 1383 004c 7A68     		ldr	r2, [r7, #4]
 1384 004e 3B68     		ldr	r3, [r7]
 1385 0050 9A42     		cmp	r2, r3
 1386 0052 06D2     		bcs	.L92
 1387              		.loc 1 726 0 is_stmt 0 discriminator 1
 1388 0054 BA68     		ldr	r2, [r7, #8]
 1389 0056 3B68     		ldr	r3, [r7]
 1390 0058 9A42     		cmp	r2, r3
 1391 005a 02D3     		bcc	.L92
ARM GAS  /var/folders/_8/_cw6l3nd335f_j6cn6z79m4m0000gn/T//ccbV1VDy.s 			page 41


 727:../../../../dependencies/freertos/FreeRTOSv10.4.1/FreeRTOS/Source/timers.c ****             {
 728:../../../../dependencies/freertos/FreeRTOSv10.4.1/FreeRTOS/Source/timers.c ****                 /* If, since the command was issued, the tick count has overflowed
 729:../../../../dependencies/freertos/FreeRTOSv10.4.1/FreeRTOS/Source/timers.c ****                  * but the expiry time has not, then the timer must have already passed
 730:../../../../dependencies/freertos/FreeRTOSv10.4.1/FreeRTOS/Source/timers.c ****                  * its expiry time and should be processed immediately. */
 731:../../../../dependencies/freertos/FreeRTOSv10.4.1/FreeRTOS/Source/timers.c ****                 xProcessTimerNow = pdTRUE;
 1392              		.loc 1 731 0 is_stmt 1
 1393 005c 0123     		movs	r3, #1
 1394 005e 7B61     		str	r3, [r7, #20]
 1395 0060 07E0     		b	.L91
 1396              	.L92:
 732:../../../../dependencies/freertos/FreeRTOSv10.4.1/FreeRTOS/Source/timers.c ****             }
 733:../../../../dependencies/freertos/FreeRTOSv10.4.1/FreeRTOS/Source/timers.c ****             else
 734:../../../../dependencies/freertos/FreeRTOSv10.4.1/FreeRTOS/Source/timers.c ****             {
 735:../../../../dependencies/freertos/FreeRTOSv10.4.1/FreeRTOS/Source/timers.c ****                 vListInsert( pxCurrentTimerList, &( pxTimer->xTimerListItem ) );
 1397              		.loc 1 735 0
 1398 0062 074B     		ldr	r3, .L94+4
 1399 0064 1A68     		ldr	r2, [r3]
 1400 0066 FB68     		ldr	r3, [r7, #12]
 1401 0068 0433     		adds	r3, r3, #4
 1402 006a 1046     		mov	r0, r2
 1403 006c 1946     		mov	r1, r3
 1404 006e FFF7FEFF 		bl	vListInsert
 1405              	.L91:
 736:../../../../dependencies/freertos/FreeRTOSv10.4.1/FreeRTOS/Source/timers.c ****             }
 737:../../../../dependencies/freertos/FreeRTOSv10.4.1/FreeRTOS/Source/timers.c ****         }
 738:../../../../dependencies/freertos/FreeRTOSv10.4.1/FreeRTOS/Source/timers.c **** 
 739:../../../../dependencies/freertos/FreeRTOSv10.4.1/FreeRTOS/Source/timers.c ****         return xProcessTimerNow;
 1406              		.loc 1 739 0
 1407 0072 7B69     		ldr	r3, [r7, #20]
 740:../../../../dependencies/freertos/FreeRTOSv10.4.1/FreeRTOS/Source/timers.c ****     }
 1408              		.loc 1 740 0
 1409 0074 1846     		mov	r0, r3
 1410 0076 1837     		adds	r7, r7, #24
 1411              	.LCFI81:
 1412              		.cfi_def_cfa_offset 8
 1413 0078 BD46     		mov	sp, r7
 1414              	.LCFI82:
 1415              		.cfi_def_cfa_register 13
 1416              		@ sp needed
 1417 007a 80BD     		pop	{r7, pc}
 1418              	.L95:
 1419              		.align	2
 1420              	.L94:
 1421 007c 00000000 		.word	pxOverflowTimerList
 1422 0080 00000000 		.word	pxCurrentTimerList
 1423              		.cfi_endproc
 1424              	.LFE20:
 1426              		.section	.text.prvProcessReceivedCommands,"ax",%progbits
 1427              		.align	2
 1428              		.thumb
 1429              		.thumb_func
 1431              	prvProcessReceivedCommands:
 1432              	.LFB21:
 741:../../../../dependencies/freertos/FreeRTOSv10.4.1/FreeRTOS/Source/timers.c **** /*-----------------------------------------------------------*/
 742:../../../../dependencies/freertos/FreeRTOSv10.4.1/FreeRTOS/Source/timers.c **** 
 743:../../../../dependencies/freertos/FreeRTOSv10.4.1/FreeRTOS/Source/timers.c ****     static void prvProcessReceivedCommands( void )
 744:../../../../dependencies/freertos/FreeRTOSv10.4.1/FreeRTOS/Source/timers.c ****     {
ARM GAS  /var/folders/_8/_cw6l3nd335f_j6cn6z79m4m0000gn/T//ccbV1VDy.s 			page 42


 1433              		.loc 1 744 0
 1434              		.cfi_startproc
 1435              		@ args = 0, pretend = 0, frame = 40
 1436              		@ frame_needed = 1, uses_anonymous_args = 0
 1437 0000 80B5     		push	{r7, lr}
 1438              	.LCFI83:
 1439              		.cfi_def_cfa_offset 8
 1440              		.cfi_offset 7, -8
 1441              		.cfi_offset 14, -4
 1442 0002 8CB0     		sub	sp, sp, #48
 1443              	.LCFI84:
 1444              		.cfi_def_cfa_offset 56
 1445 0004 02AF     		add	r7, sp, #8
 1446              	.LCFI85:
 1447              		.cfi_def_cfa 7, 48
 745:../../../../dependencies/freertos/FreeRTOSv10.4.1/FreeRTOS/Source/timers.c ****         DaemonTaskMessage_t xMessage;
 746:../../../../dependencies/freertos/FreeRTOSv10.4.1/FreeRTOS/Source/timers.c ****         Timer_t * pxTimer;
 747:../../../../dependencies/freertos/FreeRTOSv10.4.1/FreeRTOS/Source/timers.c ****         BaseType_t xTimerListsWereSwitched, xResult;
 748:../../../../dependencies/freertos/FreeRTOSv10.4.1/FreeRTOS/Source/timers.c ****         TickType_t xTimeNow;
 749:../../../../dependencies/freertos/FreeRTOSv10.4.1/FreeRTOS/Source/timers.c **** 
 750:../../../../dependencies/freertos/FreeRTOSv10.4.1/FreeRTOS/Source/timers.c ****         while( xQueueReceive( xTimerQueue, &xMessage, tmrNO_DELAY ) != pdFAIL ) /*lint !e603 xMessa
 1448              		.loc 1 750 0
 1449 0006 AFE0     		b	.L97
 1450              	.L111:
 751:../../../../dependencies/freertos/FreeRTOSv10.4.1/FreeRTOS/Source/timers.c ****         {
 752:../../../../dependencies/freertos/FreeRTOSv10.4.1/FreeRTOS/Source/timers.c ****             #if ( INCLUDE_xTimerPendFunctionCall == 1 )
 753:../../../../dependencies/freertos/FreeRTOSv10.4.1/FreeRTOS/Source/timers.c ****                 {
 754:../../../../dependencies/freertos/FreeRTOSv10.4.1/FreeRTOS/Source/timers.c ****                     /* Negative commands are pended function calls rather than timer
 755:../../../../dependencies/freertos/FreeRTOSv10.4.1/FreeRTOS/Source/timers.c ****                      * commands. */
 756:../../../../dependencies/freertos/FreeRTOSv10.4.1/FreeRTOS/Source/timers.c ****                     if( xMessage.xMessageID < ( BaseType_t ) 0 )
 757:../../../../dependencies/freertos/FreeRTOSv10.4.1/FreeRTOS/Source/timers.c ****                     {
 758:../../../../dependencies/freertos/FreeRTOSv10.4.1/FreeRTOS/Source/timers.c ****                         const CallbackParameters_t * const pxCallback = &( xMessage.u.xCallbackPara
 759:../../../../dependencies/freertos/FreeRTOSv10.4.1/FreeRTOS/Source/timers.c **** 
 760:../../../../dependencies/freertos/FreeRTOSv10.4.1/FreeRTOS/Source/timers.c ****                         /* The timer uses the xCallbackParameters member to request a
 761:../../../../dependencies/freertos/FreeRTOSv10.4.1/FreeRTOS/Source/timers.c ****                          * callback be executed.  Check the callback is not NULL. */
 762:../../../../dependencies/freertos/FreeRTOSv10.4.1/FreeRTOS/Source/timers.c ****                         configASSERT( pxCallback );
 763:../../../../dependencies/freertos/FreeRTOSv10.4.1/FreeRTOS/Source/timers.c **** 
 764:../../../../dependencies/freertos/FreeRTOSv10.4.1/FreeRTOS/Source/timers.c ****                         /* Call the function. */
 765:../../../../dependencies/freertos/FreeRTOSv10.4.1/FreeRTOS/Source/timers.c ****                         pxCallback->pxCallbackFunction( pxCallback->pvParameter1, pxCallback->ulPar
 766:../../../../dependencies/freertos/FreeRTOSv10.4.1/FreeRTOS/Source/timers.c ****                     }
 767:../../../../dependencies/freertos/FreeRTOSv10.4.1/FreeRTOS/Source/timers.c ****                     else
 768:../../../../dependencies/freertos/FreeRTOSv10.4.1/FreeRTOS/Source/timers.c ****                     {
 769:../../../../dependencies/freertos/FreeRTOSv10.4.1/FreeRTOS/Source/timers.c ****                         mtCOVERAGE_TEST_MARKER();
 770:../../../../dependencies/freertos/FreeRTOSv10.4.1/FreeRTOS/Source/timers.c ****                     }
 771:../../../../dependencies/freertos/FreeRTOSv10.4.1/FreeRTOS/Source/timers.c ****                 }
 772:../../../../dependencies/freertos/FreeRTOSv10.4.1/FreeRTOS/Source/timers.c ****             #endif /* INCLUDE_xTimerPendFunctionCall */
 773:../../../../dependencies/freertos/FreeRTOSv10.4.1/FreeRTOS/Source/timers.c **** 
 774:../../../../dependencies/freertos/FreeRTOSv10.4.1/FreeRTOS/Source/timers.c ****             /* Commands that are positive are timer commands rather than pended
 775:../../../../dependencies/freertos/FreeRTOSv10.4.1/FreeRTOS/Source/timers.c ****              * function calls. */
 776:../../../../dependencies/freertos/FreeRTOSv10.4.1/FreeRTOS/Source/timers.c ****             if( xMessage.xMessageID >= ( BaseType_t ) 0 )
 1451              		.loc 1 776 0
 1452 0008 BB68     		ldr	r3, [r7, #8]
 1453 000a 002B     		cmp	r3, #0
 1454 000c C0F2AC80 		blt	.L97
 777:../../../../dependencies/freertos/FreeRTOSv10.4.1/FreeRTOS/Source/timers.c ****             {
 778:../../../../dependencies/freertos/FreeRTOSv10.4.1/FreeRTOS/Source/timers.c ****                 /* The messages uses the xTimerParameters member to work on a
 779:../../../../dependencies/freertos/FreeRTOSv10.4.1/FreeRTOS/Source/timers.c ****                  * software timer. */
ARM GAS  /var/folders/_8/_cw6l3nd335f_j6cn6z79m4m0000gn/T//ccbV1VDy.s 			page 43


 780:../../../../dependencies/freertos/FreeRTOSv10.4.1/FreeRTOS/Source/timers.c ****                 pxTimer = xMessage.u.xTimerParameters.pxTimer;
 1455              		.loc 1 780 0
 1456 0010 3B69     		ldr	r3, [r7, #16]
 1457 0012 7B62     		str	r3, [r7, #36]
 781:../../../../dependencies/freertos/FreeRTOSv10.4.1/FreeRTOS/Source/timers.c **** 
 782:../../../../dependencies/freertos/FreeRTOSv10.4.1/FreeRTOS/Source/timers.c ****                 if( listIS_CONTAINED_WITHIN( NULL, &( pxTimer->xTimerListItem ) ) == pdFALSE ) /*li
 1458              		.loc 1 782 0
 1459 0014 7B6A     		ldr	r3, [r7, #36]
 1460 0016 5B69     		ldr	r3, [r3, #20]
 1461 0018 002B     		cmp	r3, #0
 1462 001a 04D0     		beq	.L98
 783:../../../../dependencies/freertos/FreeRTOSv10.4.1/FreeRTOS/Source/timers.c ****                 {
 784:../../../../dependencies/freertos/FreeRTOSv10.4.1/FreeRTOS/Source/timers.c ****                     /* The timer is in a list, remove it. */
 785:../../../../dependencies/freertos/FreeRTOSv10.4.1/FreeRTOS/Source/timers.c ****                     ( void ) uxListRemove( &( pxTimer->xTimerListItem ) );
 1463              		.loc 1 785 0
 1464 001c 7B6A     		ldr	r3, [r7, #36]
 1465 001e 0433     		adds	r3, r3, #4
 1466 0020 1846     		mov	r0, r3
 1467 0022 FFF7FEFF 		bl	uxListRemove
 1468              	.L98:
 786:../../../../dependencies/freertos/FreeRTOSv10.4.1/FreeRTOS/Source/timers.c ****                 }
 787:../../../../dependencies/freertos/FreeRTOSv10.4.1/FreeRTOS/Source/timers.c ****                 else
 788:../../../../dependencies/freertos/FreeRTOSv10.4.1/FreeRTOS/Source/timers.c ****                 {
 789:../../../../dependencies/freertos/FreeRTOSv10.4.1/FreeRTOS/Source/timers.c ****                     mtCOVERAGE_TEST_MARKER();
 790:../../../../dependencies/freertos/FreeRTOSv10.4.1/FreeRTOS/Source/timers.c ****                 }
 791:../../../../dependencies/freertos/FreeRTOSv10.4.1/FreeRTOS/Source/timers.c **** 
 792:../../../../dependencies/freertos/FreeRTOSv10.4.1/FreeRTOS/Source/timers.c ****                 traceTIMER_COMMAND_RECEIVED( pxTimer, xMessage.xMessageID, xMessage.u.xTimerParamet
 793:../../../../dependencies/freertos/FreeRTOSv10.4.1/FreeRTOS/Source/timers.c **** 
 794:../../../../dependencies/freertos/FreeRTOSv10.4.1/FreeRTOS/Source/timers.c ****                 /* In this case the xTimerListsWereSwitched parameter is not used, but
 795:../../../../dependencies/freertos/FreeRTOSv10.4.1/FreeRTOS/Source/timers.c ****                  *  it must be present in the function call.  prvSampleTimeNow() must be
 796:../../../../dependencies/freertos/FreeRTOSv10.4.1/FreeRTOS/Source/timers.c ****                  *  called after the message is received from xTimerQueue so there is no
 797:../../../../dependencies/freertos/FreeRTOSv10.4.1/FreeRTOS/Source/timers.c ****                  *  possibility of a higher priority task adding a message to the message
 798:../../../../dependencies/freertos/FreeRTOSv10.4.1/FreeRTOS/Source/timers.c ****                  *  queue with a time that is ahead of the timer daemon task (because it
 799:../../../../dependencies/freertos/FreeRTOSv10.4.1/FreeRTOS/Source/timers.c ****                  *  pre-empted the timer daemon task after the xTimeNow value was set). */
 800:../../../../dependencies/freertos/FreeRTOSv10.4.1/FreeRTOS/Source/timers.c ****                 xTimeNow = prvSampleTimeNow( &xTimerListsWereSwitched );
 1469              		.loc 1 800 0
 1470 0026 3B1D     		adds	r3, r7, #4
 1471 0028 1846     		mov	r0, r3
 1472 002a FFF7FEFF 		bl	prvSampleTimeNow
 1473 002e 3862     		str	r0, [r7, #32]
 801:../../../../dependencies/freertos/FreeRTOSv10.4.1/FreeRTOS/Source/timers.c **** 
 802:../../../../dependencies/freertos/FreeRTOSv10.4.1/FreeRTOS/Source/timers.c ****                 switch( xMessage.xMessageID )
 1474              		.loc 1 802 0
 1475 0030 BB68     		ldr	r3, [r7, #8]
 1476 0032 092B     		cmp	r3, #9
 1477 0034 00F29780 		bhi	.L112
 1478 0038 01A2     		adr	r2, .L101
 1479 003a 52F823F0 		ldr	pc, [r2, r3, lsl #2]
 1480 003e 00BF     		.p2align 2
 1481              	.L101:
 1482 0040 69000000 		.word	.L100+1
 1483 0044 69000000 		.word	.L100+1
 1484 0048 69000000 		.word	.L100+1
 1485 004c DF000000 		.word	.L102+1
 1486 0050 F3000000 		.word	.L103+1
 1487 0054 3D010000 		.word	.L104+1
 1488 0058 69000000 		.word	.L100+1
ARM GAS  /var/folders/_8/_cw6l3nd335f_j6cn6z79m4m0000gn/T//ccbV1VDy.s 			page 44


 1489 005c 69000000 		.word	.L100+1
 1490 0060 DF000000 		.word	.L102+1
 1491 0064 F3000000 		.word	.L103+1
 1492              		.p2align 1
 1493              	.L100:
 803:../../../../dependencies/freertos/FreeRTOSv10.4.1/FreeRTOS/Source/timers.c ****                 {
 804:../../../../dependencies/freertos/FreeRTOSv10.4.1/FreeRTOS/Source/timers.c ****                     case tmrCOMMAND_START:
 805:../../../../dependencies/freertos/FreeRTOSv10.4.1/FreeRTOS/Source/timers.c ****                     case tmrCOMMAND_START_FROM_ISR:
 806:../../../../dependencies/freertos/FreeRTOSv10.4.1/FreeRTOS/Source/timers.c ****                     case tmrCOMMAND_RESET:
 807:../../../../dependencies/freertos/FreeRTOSv10.4.1/FreeRTOS/Source/timers.c ****                     case tmrCOMMAND_RESET_FROM_ISR:
 808:../../../../dependencies/freertos/FreeRTOSv10.4.1/FreeRTOS/Source/timers.c ****                     case tmrCOMMAND_START_DONT_TRACE:
 809:../../../../dependencies/freertos/FreeRTOSv10.4.1/FreeRTOS/Source/timers.c ****                         /* Start or restart a timer. */
 810:../../../../dependencies/freertos/FreeRTOSv10.4.1/FreeRTOS/Source/timers.c ****                         pxTimer->ucStatus |= tmrSTATUS_IS_ACTIVE;
 1494              		.loc 1 810 0
 1495 0068 7B6A     		ldr	r3, [r7, #36]
 1496 006a 93F82830 		ldrb	r3, [r3, #40]	@ zero_extendqisi2
 1497 006e 43F00103 		orr	r3, r3, #1
 1498 0072 DAB2     		uxtb	r2, r3
 1499 0074 7B6A     		ldr	r3, [r7, #36]
 1500 0076 83F82820 		strb	r2, [r3, #40]
 811:../../../../dependencies/freertos/FreeRTOSv10.4.1/FreeRTOS/Source/timers.c **** 
 812:../../../../dependencies/freertos/FreeRTOSv10.4.1/FreeRTOS/Source/timers.c ****                         if( prvInsertTimerInActiveList( pxTimer, xMessage.u.xTimerParameters.xMessa
 1501              		.loc 1 812 0
 1502 007a FA68     		ldr	r2, [r7, #12]
 1503 007c 7B6A     		ldr	r3, [r7, #36]
 1504 007e 9B69     		ldr	r3, [r3, #24]
 1505 0080 1A44     		add	r2, r2, r3
 1506 0082 FB68     		ldr	r3, [r7, #12]
 1507 0084 786A     		ldr	r0, [r7, #36]
 1508 0086 1146     		mov	r1, r2
 1509 0088 3A6A     		ldr	r2, [r7, #32]
 1510 008a FFF7FEFF 		bl	prvInsertTimerInActiveList
 1511 008e 0346     		mov	r3, r0
 1512 0090 002B     		cmp	r3, #0
 1513 0092 23D0     		beq	.L105
 813:../../../../dependencies/freertos/FreeRTOSv10.4.1/FreeRTOS/Source/timers.c ****                         {
 814:../../../../dependencies/freertos/FreeRTOSv10.4.1/FreeRTOS/Source/timers.c ****                             /* The timer expired before it was added to the active
 815:../../../../dependencies/freertos/FreeRTOSv10.4.1/FreeRTOS/Source/timers.c ****                              * timer list.  Process it now. */
 816:../../../../dependencies/freertos/FreeRTOSv10.4.1/FreeRTOS/Source/timers.c ****                             pxTimer->pxCallbackFunction( ( TimerHandle_t ) pxTimer );
 1514              		.loc 1 816 0
 1515 0094 7B6A     		ldr	r3, [r7, #36]
 1516 0096 1B6A     		ldr	r3, [r3, #32]
 1517 0098 786A     		ldr	r0, [r7, #36]
 1518 009a 9847     		blx	r3
 817:../../../../dependencies/freertos/FreeRTOSv10.4.1/FreeRTOS/Source/timers.c ****                             traceTIMER_EXPIRED( pxTimer );
 818:../../../../dependencies/freertos/FreeRTOSv10.4.1/FreeRTOS/Source/timers.c **** 
 819:../../../../dependencies/freertos/FreeRTOSv10.4.1/FreeRTOS/Source/timers.c ****                             if( ( pxTimer->ucStatus & tmrSTATUS_IS_AUTORELOAD ) != 0 )
 1519              		.loc 1 819 0
 1520 009c 7B6A     		ldr	r3, [r7, #36]
 1521 009e 93F82830 		ldrb	r3, [r3, #40]	@ zero_extendqisi2
 1522 00a2 03F00403 		and	r3, r3, #4
 1523 00a6 002B     		cmp	r3, #0
 1524 00a8 18D0     		beq	.L105
 820:../../../../dependencies/freertos/FreeRTOSv10.4.1/FreeRTOS/Source/timers.c ****                             {
 821:../../../../dependencies/freertos/FreeRTOSv10.4.1/FreeRTOS/Source/timers.c ****                                 xResult = xTimerGenericCommand( pxTimer, tmrCOMMAND_START_DONT_TRAC
 1525              		.loc 1 821 0
 1526 00aa FA68     		ldr	r2, [r7, #12]
ARM GAS  /var/folders/_8/_cw6l3nd335f_j6cn6z79m4m0000gn/T//ccbV1VDy.s 			page 45


 1527 00ac 7B6A     		ldr	r3, [r7, #36]
 1528 00ae 9B69     		ldr	r3, [r3, #24]
 1529 00b0 1A44     		add	r2, r2, r3
 1530 00b2 0023     		movs	r3, #0
 1531 00b4 0093     		str	r3, [sp]
 1532 00b6 786A     		ldr	r0, [r7, #36]
 1533 00b8 0021     		movs	r1, #0
 1534 00ba 0023     		movs	r3, #0
 1535 00bc FFF7FEFF 		bl	xTimerGenericCommand
 1536 00c0 F861     		str	r0, [r7, #28]
 822:../../../../dependencies/freertos/FreeRTOSv10.4.1/FreeRTOS/Source/timers.c ****                                 configASSERT( xResult );
 1537              		.loc 1 822 0
 1538 00c2 FB69     		ldr	r3, [r7, #28]
 1539 00c4 002B     		cmp	r3, #0
 1540 00c6 09D1     		bne	.L105
 1541              	.LBB54:
 1542              	.LBB55:
 1543              		.loc 2 197 0 discriminator 1
 1544              	@ 197 "../../../../dependencies/freertos/FreeRTOSv10.4.1/FreeRTOS/Source/portable/GCC/ARM_CM4F/port
 1545 00c8 4FF05003 			mov r3, #80												
 1546 00cc 83F31188 		msr basepri, r3											
 1547 00d0 BFF36F8F 		isb														
 1548 00d4 BFF34F8F 		dsb														
 1549              	
 1550              	@ 0 "" 2
 1551              		.thumb
 1552 00d8 BB61     		str	r3, [r7, #24]
 1553              	.L106:
 1554              	.LBE55:
 1555              	.LBE54:
 1556              		.loc 1 822 0 discriminator 1
 1557 00da FEE7     		b	.L106
 1558              	.L105:
 823:../../../../dependencies/freertos/FreeRTOSv10.4.1/FreeRTOS/Source/timers.c ****                                 ( void ) xResult;
 824:../../../../dependencies/freertos/FreeRTOSv10.4.1/FreeRTOS/Source/timers.c ****                             }
 825:../../../../dependencies/freertos/FreeRTOSv10.4.1/FreeRTOS/Source/timers.c ****                             else
 826:../../../../dependencies/freertos/FreeRTOSv10.4.1/FreeRTOS/Source/timers.c ****                             {
 827:../../../../dependencies/freertos/FreeRTOSv10.4.1/FreeRTOS/Source/timers.c ****                                 mtCOVERAGE_TEST_MARKER();
 828:../../../../dependencies/freertos/FreeRTOSv10.4.1/FreeRTOS/Source/timers.c ****                             }
 829:../../../../dependencies/freertos/FreeRTOSv10.4.1/FreeRTOS/Source/timers.c ****                         }
 830:../../../../dependencies/freertos/FreeRTOSv10.4.1/FreeRTOS/Source/timers.c ****                         else
 831:../../../../dependencies/freertos/FreeRTOSv10.4.1/FreeRTOS/Source/timers.c ****                         {
 832:../../../../dependencies/freertos/FreeRTOSv10.4.1/FreeRTOS/Source/timers.c ****                             mtCOVERAGE_TEST_MARKER();
 833:../../../../dependencies/freertos/FreeRTOSv10.4.1/FreeRTOS/Source/timers.c ****                         }
 834:../../../../dependencies/freertos/FreeRTOSv10.4.1/FreeRTOS/Source/timers.c **** 
 835:../../../../dependencies/freertos/FreeRTOSv10.4.1/FreeRTOS/Source/timers.c ****                         break;
 1559              		.loc 1 835 0 discriminator 3
 1560 00dc 44E0     		b	.L97
 1561              	.L102:
 836:../../../../dependencies/freertos/FreeRTOSv10.4.1/FreeRTOS/Source/timers.c **** 
 837:../../../../dependencies/freertos/FreeRTOSv10.4.1/FreeRTOS/Source/timers.c ****                     case tmrCOMMAND_STOP:
 838:../../../../dependencies/freertos/FreeRTOSv10.4.1/FreeRTOS/Source/timers.c ****                     case tmrCOMMAND_STOP_FROM_ISR:
 839:../../../../dependencies/freertos/FreeRTOSv10.4.1/FreeRTOS/Source/timers.c ****                         /* The timer has already been removed from the active list. */
 840:../../../../dependencies/freertos/FreeRTOSv10.4.1/FreeRTOS/Source/timers.c ****                         pxTimer->ucStatus &= ~tmrSTATUS_IS_ACTIVE;
 1562              		.loc 1 840 0
 1563 00de 7B6A     		ldr	r3, [r7, #36]
 1564 00e0 93F82830 		ldrb	r3, [r3, #40]	@ zero_extendqisi2
ARM GAS  /var/folders/_8/_cw6l3nd335f_j6cn6z79m4m0000gn/T//ccbV1VDy.s 			page 46


 1565 00e4 23F00103 		bic	r3, r3, #1
 1566 00e8 DAB2     		uxtb	r2, r3
 1567 00ea 7B6A     		ldr	r3, [r7, #36]
 1568 00ec 83F82820 		strb	r2, [r3, #40]
 841:../../../../dependencies/freertos/FreeRTOSv10.4.1/FreeRTOS/Source/timers.c ****                         break;
 1569              		.loc 1 841 0
 1570 00f0 3AE0     		b	.L97
 1571              	.L103:
 842:../../../../dependencies/freertos/FreeRTOSv10.4.1/FreeRTOS/Source/timers.c **** 
 843:../../../../dependencies/freertos/FreeRTOSv10.4.1/FreeRTOS/Source/timers.c ****                     case tmrCOMMAND_CHANGE_PERIOD:
 844:../../../../dependencies/freertos/FreeRTOSv10.4.1/FreeRTOS/Source/timers.c ****                     case tmrCOMMAND_CHANGE_PERIOD_FROM_ISR:
 845:../../../../dependencies/freertos/FreeRTOSv10.4.1/FreeRTOS/Source/timers.c ****                         pxTimer->ucStatus |= tmrSTATUS_IS_ACTIVE;
 1572              		.loc 1 845 0
 1573 00f2 7B6A     		ldr	r3, [r7, #36]
 1574 00f4 93F82830 		ldrb	r3, [r3, #40]	@ zero_extendqisi2
 1575 00f8 43F00103 		orr	r3, r3, #1
 1576 00fc DAB2     		uxtb	r2, r3
 1577 00fe 7B6A     		ldr	r3, [r7, #36]
 1578 0100 83F82820 		strb	r2, [r3, #40]
 846:../../../../dependencies/freertos/FreeRTOSv10.4.1/FreeRTOS/Source/timers.c ****                         pxTimer->xTimerPeriodInTicks = xMessage.u.xTimerParameters.xMessageValue;
 1579              		.loc 1 846 0
 1580 0104 FA68     		ldr	r2, [r7, #12]
 1581 0106 7B6A     		ldr	r3, [r7, #36]
 1582 0108 9A61     		str	r2, [r3, #24]
 847:../../../../dependencies/freertos/FreeRTOSv10.4.1/FreeRTOS/Source/timers.c ****                         configASSERT( ( pxTimer->xTimerPeriodInTicks > 0 ) );
 1583              		.loc 1 847 0
 1584 010a 7B6A     		ldr	r3, [r7, #36]
 1585 010c 9B69     		ldr	r3, [r3, #24]
 1586 010e 002B     		cmp	r3, #0
 1587 0110 09D1     		bne	.L107
 1588              	.LBB56:
 1589              	.LBB57:
 1590              		.loc 2 197 0 discriminator 1
 1591              	@ 197 "../../../../dependencies/freertos/FreeRTOSv10.4.1/FreeRTOS/Source/portable/GCC/ARM_CM4F/port
 1592 0112 4FF05003 			mov r3, #80												
 1593 0116 83F31188 		msr basepri, r3											
 1594 011a BFF36F8F 		isb														
 1595 011e BFF34F8F 		dsb														
 1596              	
 1597              	@ 0 "" 2
 1598              		.thumb
 1599 0122 7B61     		str	r3, [r7, #20]
 1600              	.L108:
 1601              	.LBE57:
 1602              	.LBE56:
 1603              		.loc 1 847 0 discriminator 4
 1604 0124 FEE7     		b	.L108
 1605              	.L107:
 848:../../../../dependencies/freertos/FreeRTOSv10.4.1/FreeRTOS/Source/timers.c **** 
 849:../../../../dependencies/freertos/FreeRTOSv10.4.1/FreeRTOS/Source/timers.c ****                         /* The new period does not really have a reference, and can
 850:../../../../dependencies/freertos/FreeRTOSv10.4.1/FreeRTOS/Source/timers.c ****                          * be longer or shorter than the old one.  The command time is
 851:../../../../dependencies/freertos/FreeRTOSv10.4.1/FreeRTOS/Source/timers.c ****                          * therefore set to the current time, and as the period cannot
 852:../../../../dependencies/freertos/FreeRTOSv10.4.1/FreeRTOS/Source/timers.c ****                          * be zero the next expiry time can only be in the future,
 853:../../../../dependencies/freertos/FreeRTOSv10.4.1/FreeRTOS/Source/timers.c ****                          * meaning (unlike for the xTimerStart() case above) there is
 854:../../../../dependencies/freertos/FreeRTOSv10.4.1/FreeRTOS/Source/timers.c ****                          * no fail case that needs to be handled here. */
 855:../../../../dependencies/freertos/FreeRTOSv10.4.1/FreeRTOS/Source/timers.c ****                         ( void ) prvInsertTimerInActiveList( pxTimer, ( xTimeNow + pxTimer->xTimerP
 1606              		.loc 1 855 0
ARM GAS  /var/folders/_8/_cw6l3nd335f_j6cn6z79m4m0000gn/T//ccbV1VDy.s 			page 47


 1607 0126 7B6A     		ldr	r3, [r7, #36]
 1608 0128 9A69     		ldr	r2, [r3, #24]
 1609 012a 3B6A     		ldr	r3, [r7, #32]
 1610 012c 1344     		add	r3, r3, r2
 1611 012e 786A     		ldr	r0, [r7, #36]
 1612 0130 1946     		mov	r1, r3
 1613 0132 3A6A     		ldr	r2, [r7, #32]
 1614 0134 3B6A     		ldr	r3, [r7, #32]
 1615 0136 FFF7FEFF 		bl	prvInsertTimerInActiveList
 856:../../../../dependencies/freertos/FreeRTOSv10.4.1/FreeRTOS/Source/timers.c ****                         break;
 1616              		.loc 1 856 0
 1617 013a 15E0     		b	.L97
 1618              	.L104:
 857:../../../../dependencies/freertos/FreeRTOSv10.4.1/FreeRTOS/Source/timers.c **** 
 858:../../../../dependencies/freertos/FreeRTOSv10.4.1/FreeRTOS/Source/timers.c ****                     case tmrCOMMAND_DELETE:
 859:../../../../dependencies/freertos/FreeRTOSv10.4.1/FreeRTOS/Source/timers.c ****                         #if ( configSUPPORT_DYNAMIC_ALLOCATION == 1 )
 860:../../../../dependencies/freertos/FreeRTOSv10.4.1/FreeRTOS/Source/timers.c ****                             {
 861:../../../../dependencies/freertos/FreeRTOSv10.4.1/FreeRTOS/Source/timers.c ****                                 /* The timer has already been removed from the active list,
 862:../../../../dependencies/freertos/FreeRTOSv10.4.1/FreeRTOS/Source/timers.c ****                                  * just free up the memory if the memory was dynamically
 863:../../../../dependencies/freertos/FreeRTOSv10.4.1/FreeRTOS/Source/timers.c ****                                  * allocated. */
 864:../../../../dependencies/freertos/FreeRTOSv10.4.1/FreeRTOS/Source/timers.c ****                                 if( ( pxTimer->ucStatus & tmrSTATUS_IS_STATICALLY_ALLOCATED ) == ( 
 1619              		.loc 1 864 0
 1620 013c 7B6A     		ldr	r3, [r7, #36]
 1621 013e 93F82830 		ldrb	r3, [r3, #40]	@ zero_extendqisi2
 1622 0142 03F00203 		and	r3, r3, #2
 1623 0146 002B     		cmp	r3, #0
 1624 0148 03D1     		bne	.L109
 865:../../../../dependencies/freertos/FreeRTOSv10.4.1/FreeRTOS/Source/timers.c ****                                 {
 866:../../../../dependencies/freertos/FreeRTOSv10.4.1/FreeRTOS/Source/timers.c ****                                     vPortFree( pxTimer );
 1625              		.loc 1 866 0
 1626 014a 786A     		ldr	r0, [r7, #36]
 1627 014c FFF7FEFF 		bl	vPortFree
 1628 0150 08E0     		b	.L110
 1629              	.L109:
 867:../../../../dependencies/freertos/FreeRTOSv10.4.1/FreeRTOS/Source/timers.c ****                                 }
 868:../../../../dependencies/freertos/FreeRTOSv10.4.1/FreeRTOS/Source/timers.c ****                                 else
 869:../../../../dependencies/freertos/FreeRTOSv10.4.1/FreeRTOS/Source/timers.c ****                                 {
 870:../../../../dependencies/freertos/FreeRTOSv10.4.1/FreeRTOS/Source/timers.c ****                                     pxTimer->ucStatus &= ~tmrSTATUS_IS_ACTIVE;
 1630              		.loc 1 870 0
 1631 0152 7B6A     		ldr	r3, [r7, #36]
 1632 0154 93F82830 		ldrb	r3, [r3, #40]	@ zero_extendqisi2
 1633 0158 23F00103 		bic	r3, r3, #1
 1634 015c DAB2     		uxtb	r2, r3
 1635 015e 7B6A     		ldr	r3, [r7, #36]
 1636 0160 83F82820 		strb	r2, [r3, #40]
 1637              	.L110:
 871:../../../../dependencies/freertos/FreeRTOSv10.4.1/FreeRTOS/Source/timers.c ****                                 }
 872:../../../../dependencies/freertos/FreeRTOSv10.4.1/FreeRTOS/Source/timers.c ****                             }
 873:../../../../dependencies/freertos/FreeRTOSv10.4.1/FreeRTOS/Source/timers.c ****                         #else /* if ( configSUPPORT_DYNAMIC_ALLOCATION == 1 ) */
 874:../../../../dependencies/freertos/FreeRTOSv10.4.1/FreeRTOS/Source/timers.c ****                             {
 875:../../../../dependencies/freertos/FreeRTOSv10.4.1/FreeRTOS/Source/timers.c ****                                 /* If dynamic allocation is not enabled, the memory
 876:../../../../dependencies/freertos/FreeRTOSv10.4.1/FreeRTOS/Source/timers.c ****                                  * could not have been dynamically allocated. So there is
 877:../../../../dependencies/freertos/FreeRTOSv10.4.1/FreeRTOS/Source/timers.c ****                                  * no need to free the memory - just mark the timer as
 878:../../../../dependencies/freertos/FreeRTOSv10.4.1/FreeRTOS/Source/timers.c ****                                  * "not active". */
 879:../../../../dependencies/freertos/FreeRTOSv10.4.1/FreeRTOS/Source/timers.c ****                                 pxTimer->ucStatus &= ~tmrSTATUS_IS_ACTIVE;
 880:../../../../dependencies/freertos/FreeRTOSv10.4.1/FreeRTOS/Source/timers.c ****                             }
 881:../../../../dependencies/freertos/FreeRTOSv10.4.1/FreeRTOS/Source/timers.c ****                         #endif /* configSUPPORT_DYNAMIC_ALLOCATION */
ARM GAS  /var/folders/_8/_cw6l3nd335f_j6cn6z79m4m0000gn/T//ccbV1VDy.s 			page 48


 882:../../../../dependencies/freertos/FreeRTOSv10.4.1/FreeRTOS/Source/timers.c ****                         break;
 1638              		.loc 1 882 0
 1639 0164 00E0     		b	.L97
 1640              	.L112:
 883:../../../../dependencies/freertos/FreeRTOSv10.4.1/FreeRTOS/Source/timers.c **** 
 884:../../../../dependencies/freertos/FreeRTOSv10.4.1/FreeRTOS/Source/timers.c ****                     default:
 885:../../../../dependencies/freertos/FreeRTOSv10.4.1/FreeRTOS/Source/timers.c ****                         /* Don't expect to get here. */
 886:../../../../dependencies/freertos/FreeRTOSv10.4.1/FreeRTOS/Source/timers.c ****                         break;
 1641              		.loc 1 886 0
 1642 0166 00BF     		nop
 1643              	.L97:
 750:../../../../dependencies/freertos/FreeRTOSv10.4.1/FreeRTOS/Source/timers.c ****         {
 1644              		.loc 1 750 0
 1645 0168 074B     		ldr	r3, .L113
 1646 016a 1A68     		ldr	r2, [r3]
 1647 016c 07F10803 		add	r3, r7, #8
 1648 0170 1046     		mov	r0, r2
 1649 0172 1946     		mov	r1, r3
 1650 0174 0022     		movs	r2, #0
 1651 0176 FFF7FEFF 		bl	xQueueReceive
 1652 017a 0346     		mov	r3, r0
 1653 017c 002B     		cmp	r3, #0
 1654 017e 7FF443AF 		bne	.L111
 887:../../../../dependencies/freertos/FreeRTOSv10.4.1/FreeRTOS/Source/timers.c ****                 }
 888:../../../../dependencies/freertos/FreeRTOSv10.4.1/FreeRTOS/Source/timers.c ****             }
 889:../../../../dependencies/freertos/FreeRTOSv10.4.1/FreeRTOS/Source/timers.c ****         }
 890:../../../../dependencies/freertos/FreeRTOSv10.4.1/FreeRTOS/Source/timers.c ****     }
 1655              		.loc 1 890 0
 1656 0182 2837     		adds	r7, r7, #40
 1657              	.LCFI86:
 1658              		.cfi_def_cfa_offset 8
 1659 0184 BD46     		mov	sp, r7
 1660              	.LCFI87:
 1661              		.cfi_def_cfa_register 13
 1662              		@ sp needed
 1663 0186 80BD     		pop	{r7, pc}
 1664              	.L114:
 1665              		.align	2
 1666              	.L113:
 1667 0188 00000000 		.word	xTimerQueue
 1668              		.cfi_endproc
 1669              	.LFE21:
 1671              		.section	.text.prvSwitchTimerLists,"ax",%progbits
 1672              		.align	2
 1673              		.thumb
 1674              		.thumb_func
 1676              	prvSwitchTimerLists:
 1677              	.LFB22:
 891:../../../../dependencies/freertos/FreeRTOSv10.4.1/FreeRTOS/Source/timers.c **** /*-----------------------------------------------------------*/
 892:../../../../dependencies/freertos/FreeRTOSv10.4.1/FreeRTOS/Source/timers.c **** 
 893:../../../../dependencies/freertos/FreeRTOSv10.4.1/FreeRTOS/Source/timers.c ****     static void prvSwitchTimerLists( void )
 894:../../../../dependencies/freertos/FreeRTOSv10.4.1/FreeRTOS/Source/timers.c ****     {
 1678              		.loc 1 894 0
 1679              		.cfi_startproc
 1680              		@ args = 0, pretend = 0, frame = 24
 1681              		@ frame_needed = 1, uses_anonymous_args = 0
 1682 0000 80B5     		push	{r7, lr}
ARM GAS  /var/folders/_8/_cw6l3nd335f_j6cn6z79m4m0000gn/T//ccbV1VDy.s 			page 49


 1683              	.LCFI88:
 1684              		.cfi_def_cfa_offset 8
 1685              		.cfi_offset 7, -8
 1686              		.cfi_offset 14, -4
 1687 0002 88B0     		sub	sp, sp, #32
 1688              	.LCFI89:
 1689              		.cfi_def_cfa_offset 40
 1690 0004 02AF     		add	r7, sp, #8
 1691              	.LCFI90:
 1692              		.cfi_def_cfa 7, 32
 895:../../../../dependencies/freertos/FreeRTOSv10.4.1/FreeRTOS/Source/timers.c ****         TickType_t xNextExpireTime, xReloadTime;
 896:../../../../dependencies/freertos/FreeRTOSv10.4.1/FreeRTOS/Source/timers.c ****         List_t * pxTemp;
 897:../../../../dependencies/freertos/FreeRTOSv10.4.1/FreeRTOS/Source/timers.c ****         Timer_t * pxTimer;
 898:../../../../dependencies/freertos/FreeRTOSv10.4.1/FreeRTOS/Source/timers.c ****         BaseType_t xResult;
 899:../../../../dependencies/freertos/FreeRTOSv10.4.1/FreeRTOS/Source/timers.c **** 
 900:../../../../dependencies/freertos/FreeRTOSv10.4.1/FreeRTOS/Source/timers.c ****         /* The tick count has overflowed.  The timer lists must be switched.
 901:../../../../dependencies/freertos/FreeRTOSv10.4.1/FreeRTOS/Source/timers.c ****          * If there are any timers still referenced from the current timer list
 902:../../../../dependencies/freertos/FreeRTOSv10.4.1/FreeRTOS/Source/timers.c ****          * then they must have expired and should be processed before the lists
 903:../../../../dependencies/freertos/FreeRTOSv10.4.1/FreeRTOS/Source/timers.c ****          * are switched. */
 904:../../../../dependencies/freertos/FreeRTOSv10.4.1/FreeRTOS/Source/timers.c ****         while( listLIST_IS_EMPTY( pxCurrentTimerList ) == pdFALSE )
 1693              		.loc 1 904 0
 1694 0006 47E0     		b	.L116
 1695              	.L119:
 905:../../../../dependencies/freertos/FreeRTOSv10.4.1/FreeRTOS/Source/timers.c ****         {
 906:../../../../dependencies/freertos/FreeRTOSv10.4.1/FreeRTOS/Source/timers.c ****             xNextExpireTime = listGET_ITEM_VALUE_OF_HEAD_ENTRY( pxCurrentTimerList );
 1696              		.loc 1 906 0
 1697 0008 2C4B     		ldr	r3, .L120
 1698 000a 1B68     		ldr	r3, [r3]
 1699 000c DB68     		ldr	r3, [r3, #12]
 1700 000e 1B68     		ldr	r3, [r3]
 1701 0010 7B61     		str	r3, [r7, #20]
 907:../../../../dependencies/freertos/FreeRTOSv10.4.1/FreeRTOS/Source/timers.c **** 
 908:../../../../dependencies/freertos/FreeRTOSv10.4.1/FreeRTOS/Source/timers.c ****             /* Remove the timer from the list. */
 909:../../../../dependencies/freertos/FreeRTOSv10.4.1/FreeRTOS/Source/timers.c ****             pxTimer = ( Timer_t * ) listGET_OWNER_OF_HEAD_ENTRY( pxCurrentTimerList ); /*lint !e908
 1702              		.loc 1 909 0
 1703 0012 2A4B     		ldr	r3, .L120
 1704 0014 1B68     		ldr	r3, [r3]
 1705 0016 DB68     		ldr	r3, [r3, #12]
 1706 0018 DB68     		ldr	r3, [r3, #12]
 1707 001a 3B61     		str	r3, [r7, #16]
 910:../../../../dependencies/freertos/FreeRTOSv10.4.1/FreeRTOS/Source/timers.c ****             ( void ) uxListRemove( &( pxTimer->xTimerListItem ) );
 1708              		.loc 1 910 0
 1709 001c 3B69     		ldr	r3, [r7, #16]
 1710 001e 0433     		adds	r3, r3, #4
 1711 0020 1846     		mov	r0, r3
 1712 0022 FFF7FEFF 		bl	uxListRemove
 911:../../../../dependencies/freertos/FreeRTOSv10.4.1/FreeRTOS/Source/timers.c ****             traceTIMER_EXPIRED( pxTimer );
 912:../../../../dependencies/freertos/FreeRTOSv10.4.1/FreeRTOS/Source/timers.c **** 
 913:../../../../dependencies/freertos/FreeRTOSv10.4.1/FreeRTOS/Source/timers.c ****             /* Execute its callback, then send a command to restart the timer if
 914:../../../../dependencies/freertos/FreeRTOSv10.4.1/FreeRTOS/Source/timers.c ****              * it is an auto-reload timer.  It cannot be restarted here as the lists
 915:../../../../dependencies/freertos/FreeRTOSv10.4.1/FreeRTOS/Source/timers.c ****              * have not yet been switched. */
 916:../../../../dependencies/freertos/FreeRTOSv10.4.1/FreeRTOS/Source/timers.c ****             pxTimer->pxCallbackFunction( ( TimerHandle_t ) pxTimer );
 1713              		.loc 1 916 0
 1714 0026 3B69     		ldr	r3, [r7, #16]
 1715 0028 1B6A     		ldr	r3, [r3, #32]
 1716 002a 3869     		ldr	r0, [r7, #16]
 1717 002c 9847     		blx	r3
ARM GAS  /var/folders/_8/_cw6l3nd335f_j6cn6z79m4m0000gn/T//ccbV1VDy.s 			page 50


 917:../../../../dependencies/freertos/FreeRTOSv10.4.1/FreeRTOS/Source/timers.c **** 
 918:../../../../dependencies/freertos/FreeRTOSv10.4.1/FreeRTOS/Source/timers.c ****             if( ( pxTimer->ucStatus & tmrSTATUS_IS_AUTORELOAD ) != 0 )
 1718              		.loc 1 918 0
 1719 002e 3B69     		ldr	r3, [r7, #16]
 1720 0030 93F82830 		ldrb	r3, [r3, #40]	@ zero_extendqisi2
 1721 0034 03F00403 		and	r3, r3, #4
 1722 0038 002B     		cmp	r3, #0
 1723 003a 2DD0     		beq	.L116
 919:../../../../dependencies/freertos/FreeRTOSv10.4.1/FreeRTOS/Source/timers.c ****             {
 920:../../../../dependencies/freertos/FreeRTOSv10.4.1/FreeRTOS/Source/timers.c ****                 /* Calculate the reload value, and if the reload value results in
 921:../../../../dependencies/freertos/FreeRTOSv10.4.1/FreeRTOS/Source/timers.c ****                  * the timer going into the same timer list then it has already expired
 922:../../../../dependencies/freertos/FreeRTOSv10.4.1/FreeRTOS/Source/timers.c ****                  * and the timer should be re-inserted into the current list so it is
 923:../../../../dependencies/freertos/FreeRTOSv10.4.1/FreeRTOS/Source/timers.c ****                  * processed again within this loop.  Otherwise a command should be sent
 924:../../../../dependencies/freertos/FreeRTOSv10.4.1/FreeRTOS/Source/timers.c ****                  * to restart the timer to ensure it is only inserted into a list after
 925:../../../../dependencies/freertos/FreeRTOSv10.4.1/FreeRTOS/Source/timers.c ****                  * the lists have been swapped. */
 926:../../../../dependencies/freertos/FreeRTOSv10.4.1/FreeRTOS/Source/timers.c ****                 xReloadTime = ( xNextExpireTime + pxTimer->xTimerPeriodInTicks );
 1724              		.loc 1 926 0
 1725 003c 3B69     		ldr	r3, [r7, #16]
 1726 003e 9A69     		ldr	r2, [r3, #24]
 1727 0040 7B69     		ldr	r3, [r7, #20]
 1728 0042 1344     		add	r3, r3, r2
 1729 0044 FB60     		str	r3, [r7, #12]
 927:../../../../dependencies/freertos/FreeRTOSv10.4.1/FreeRTOS/Source/timers.c **** 
 928:../../../../dependencies/freertos/FreeRTOSv10.4.1/FreeRTOS/Source/timers.c ****                 if( xReloadTime > xNextExpireTime )
 1730              		.loc 1 928 0
 1731 0046 FA68     		ldr	r2, [r7, #12]
 1732 0048 7B69     		ldr	r3, [r7, #20]
 1733 004a 9A42     		cmp	r2, r3
 1734 004c 0ED9     		bls	.L117
 929:../../../../dependencies/freertos/FreeRTOSv10.4.1/FreeRTOS/Source/timers.c ****                 {
 930:../../../../dependencies/freertos/FreeRTOSv10.4.1/FreeRTOS/Source/timers.c ****                     listSET_LIST_ITEM_VALUE( &( pxTimer->xTimerListItem ), xReloadTime );
 1735              		.loc 1 930 0
 1736 004e 3B69     		ldr	r3, [r7, #16]
 1737 0050 FA68     		ldr	r2, [r7, #12]
 1738 0052 5A60     		str	r2, [r3, #4]
 931:../../../../dependencies/freertos/FreeRTOSv10.4.1/FreeRTOS/Source/timers.c ****                     listSET_LIST_ITEM_OWNER( &( pxTimer->xTimerListItem ), pxTimer );
 1739              		.loc 1 931 0
 1740 0054 3B69     		ldr	r3, [r7, #16]
 1741 0056 3A69     		ldr	r2, [r7, #16]
 1742 0058 1A61     		str	r2, [r3, #16]
 932:../../../../dependencies/freertos/FreeRTOSv10.4.1/FreeRTOS/Source/timers.c ****                     vListInsert( pxCurrentTimerList, &( pxTimer->xTimerListItem ) );
 1743              		.loc 1 932 0
 1744 005a 184B     		ldr	r3, .L120
 1745 005c 1A68     		ldr	r2, [r3]
 1746 005e 3B69     		ldr	r3, [r7, #16]
 1747 0060 0433     		adds	r3, r3, #4
 1748 0062 1046     		mov	r0, r2
 1749 0064 1946     		mov	r1, r3
 1750 0066 FFF7FEFF 		bl	vListInsert
 1751 006a 15E0     		b	.L116
 1752              	.L117:
 933:../../../../dependencies/freertos/FreeRTOSv10.4.1/FreeRTOS/Source/timers.c ****                 }
 934:../../../../dependencies/freertos/FreeRTOSv10.4.1/FreeRTOS/Source/timers.c ****                 else
 935:../../../../dependencies/freertos/FreeRTOSv10.4.1/FreeRTOS/Source/timers.c ****                 {
 936:../../../../dependencies/freertos/FreeRTOSv10.4.1/FreeRTOS/Source/timers.c ****                     xResult = xTimerGenericCommand( pxTimer, tmrCOMMAND_START_DONT_TRACE, xNextExpi
 1753              		.loc 1 936 0
 1754 006c 0023     		movs	r3, #0
ARM GAS  /var/folders/_8/_cw6l3nd335f_j6cn6z79m4m0000gn/T//ccbV1VDy.s 			page 51


 1755 006e 0093     		str	r3, [sp]
 1756 0070 3869     		ldr	r0, [r7, #16]
 1757 0072 0021     		movs	r1, #0
 1758 0074 7A69     		ldr	r2, [r7, #20]
 1759 0076 0023     		movs	r3, #0
 1760 0078 FFF7FEFF 		bl	xTimerGenericCommand
 1761 007c B860     		str	r0, [r7, #8]
 937:../../../../dependencies/freertos/FreeRTOSv10.4.1/FreeRTOS/Source/timers.c ****                     configASSERT( xResult );
 1762              		.loc 1 937 0
 1763 007e BB68     		ldr	r3, [r7, #8]
 1764 0080 002B     		cmp	r3, #0
 1765 0082 09D1     		bne	.L116
 1766              	.LBB58:
 1767              	.LBB59:
 1768              		.loc 2 197 0 discriminator 1
 1769              	@ 197 "../../../../dependencies/freertos/FreeRTOSv10.4.1/FreeRTOS/Source/portable/GCC/ARM_CM4F/port
 1770 0084 4FF05003 			mov r3, #80												
 1771 0088 83F31188 		msr basepri, r3											
 1772 008c BFF36F8F 		isb														
 1773 0090 BFF34F8F 		dsb														
 1774              	
 1775              	@ 0 "" 2
 1776              		.thumb
 1777 0094 3B60     		str	r3, [r7]
 1778              	.L118:
 1779              	.LBE59:
 1780              	.LBE58:
 1781              		.loc 1 937 0 discriminator 1
 1782 0096 FEE7     		b	.L118
 1783              	.L116:
 904:../../../../dependencies/freertos/FreeRTOSv10.4.1/FreeRTOS/Source/timers.c ****         {
 1784              		.loc 1 904 0
 1785 0098 084B     		ldr	r3, .L120
 1786 009a 1B68     		ldr	r3, [r3]
 1787 009c 1B68     		ldr	r3, [r3]
 1788 009e 002B     		cmp	r3, #0
 1789 00a0 B2D1     		bne	.L119
 938:../../../../dependencies/freertos/FreeRTOSv10.4.1/FreeRTOS/Source/timers.c ****                     ( void ) xResult;
 939:../../../../dependencies/freertos/FreeRTOSv10.4.1/FreeRTOS/Source/timers.c ****                 }
 940:../../../../dependencies/freertos/FreeRTOSv10.4.1/FreeRTOS/Source/timers.c ****             }
 941:../../../../dependencies/freertos/FreeRTOSv10.4.1/FreeRTOS/Source/timers.c ****             else
 942:../../../../dependencies/freertos/FreeRTOSv10.4.1/FreeRTOS/Source/timers.c ****             {
 943:../../../../dependencies/freertos/FreeRTOSv10.4.1/FreeRTOS/Source/timers.c ****                 mtCOVERAGE_TEST_MARKER();
 944:../../../../dependencies/freertos/FreeRTOSv10.4.1/FreeRTOS/Source/timers.c ****             }
 945:../../../../dependencies/freertos/FreeRTOSv10.4.1/FreeRTOS/Source/timers.c ****         }
 946:../../../../dependencies/freertos/FreeRTOSv10.4.1/FreeRTOS/Source/timers.c **** 
 947:../../../../dependencies/freertos/FreeRTOSv10.4.1/FreeRTOS/Source/timers.c ****         pxTemp = pxCurrentTimerList;
 1790              		.loc 1 947 0
 1791 00a2 064B     		ldr	r3, .L120
 1792 00a4 1B68     		ldr	r3, [r3]
 1793 00a6 7B60     		str	r3, [r7, #4]
 948:../../../../dependencies/freertos/FreeRTOSv10.4.1/FreeRTOS/Source/timers.c ****         pxCurrentTimerList = pxOverflowTimerList;
 1794              		.loc 1 948 0
 1795 00a8 054B     		ldr	r3, .L120+4
 1796 00aa 1B68     		ldr	r3, [r3]
 1797 00ac 034A     		ldr	r2, .L120
 1798 00ae 1360     		str	r3, [r2]
ARM GAS  /var/folders/_8/_cw6l3nd335f_j6cn6z79m4m0000gn/T//ccbV1VDy.s 			page 52


 949:../../../../dependencies/freertos/FreeRTOSv10.4.1/FreeRTOS/Source/timers.c ****         pxOverflowTimerList = pxTemp;
 1799              		.loc 1 949 0
 1800 00b0 034A     		ldr	r2, .L120+4
 1801 00b2 7B68     		ldr	r3, [r7, #4]
 1802 00b4 1360     		str	r3, [r2]
 950:../../../../dependencies/freertos/FreeRTOSv10.4.1/FreeRTOS/Source/timers.c ****     }
 1803              		.loc 1 950 0
 1804 00b6 1837     		adds	r7, r7, #24
 1805              	.LCFI91:
 1806              		.cfi_def_cfa_offset 8
 1807 00b8 BD46     		mov	sp, r7
 1808              	.LCFI92:
 1809              		.cfi_def_cfa_register 13
 1810              		@ sp needed
 1811 00ba 80BD     		pop	{r7, pc}
 1812              	.L121:
 1813              		.align	2
 1814              	.L120:
 1815 00bc 00000000 		.word	pxCurrentTimerList
 1816 00c0 00000000 		.word	pxOverflowTimerList
 1817              		.cfi_endproc
 1818              	.LFE22:
 1820              		.section	.rodata
 1821              		.align	2
 1822              	.LC1:
 1823 0008 546D7251 		.ascii	"TmrQ\000"
 1823      00
 1824              		.section	.text.prvCheckForValidListAndQueue,"ax",%progbits
 1825              		.align	2
 1826              		.thumb
 1827              		.thumb_func
 1829              	prvCheckForValidListAndQueue:
 1830              	.LFB23:
 951:../../../../dependencies/freertos/FreeRTOSv10.4.1/FreeRTOS/Source/timers.c **** /*-----------------------------------------------------------*/
 952:../../../../dependencies/freertos/FreeRTOSv10.4.1/FreeRTOS/Source/timers.c **** 
 953:../../../../dependencies/freertos/FreeRTOSv10.4.1/FreeRTOS/Source/timers.c ****     static void prvCheckForValidListAndQueue( void )
 954:../../../../dependencies/freertos/FreeRTOSv10.4.1/FreeRTOS/Source/timers.c ****     {
 1831              		.loc 1 954 0
 1832              		.cfi_startproc
 1833              		@ args = 0, pretend = 0, frame = 0
 1834              		@ frame_needed = 1, uses_anonymous_args = 0
 1835 0000 80B5     		push	{r7, lr}
 1836              	.LCFI93:
 1837              		.cfi_def_cfa_offset 8
 1838              		.cfi_offset 7, -8
 1839              		.cfi_offset 14, -4
 1840 0002 00AF     		add	r7, sp, #0
 1841              	.LCFI94:
 1842              		.cfi_def_cfa_register 7
 955:../../../../dependencies/freertos/FreeRTOSv10.4.1/FreeRTOS/Source/timers.c ****         /* Check that the list from which active timers are referenced, and the
 956:../../../../dependencies/freertos/FreeRTOSv10.4.1/FreeRTOS/Source/timers.c ****          * queue used to communicate with the timer service, have been
 957:../../../../dependencies/freertos/FreeRTOSv10.4.1/FreeRTOS/Source/timers.c ****          * initialised. */
 958:../../../../dependencies/freertos/FreeRTOSv10.4.1/FreeRTOS/Source/timers.c ****         taskENTER_CRITICAL();
 1843              		.loc 1 958 0
 1844 0004 FFF7FEFF 		bl	vPortEnterCritical
 959:../../../../dependencies/freertos/FreeRTOSv10.4.1/FreeRTOS/Source/timers.c ****         {
 960:../../../../dependencies/freertos/FreeRTOSv10.4.1/FreeRTOS/Source/timers.c ****             if( xTimerQueue == NULL )
ARM GAS  /var/folders/_8/_cw6l3nd335f_j6cn6z79m4m0000gn/T//ccbV1VDy.s 			page 53


 1845              		.loc 1 960 0
 1846 0008 124B     		ldr	r3, .L124
 1847 000a 1B68     		ldr	r3, [r3]
 1848 000c 002B     		cmp	r3, #0
 1849 000e 1DD1     		bne	.L123
 961:../../../../dependencies/freertos/FreeRTOSv10.4.1/FreeRTOS/Source/timers.c ****             {
 962:../../../../dependencies/freertos/FreeRTOSv10.4.1/FreeRTOS/Source/timers.c ****                 vListInitialise( &xActiveTimerList1 );
 1850              		.loc 1 962 0
 1851 0010 1148     		ldr	r0, .L124+4
 1852 0012 FFF7FEFF 		bl	vListInitialise
 963:../../../../dependencies/freertos/FreeRTOSv10.4.1/FreeRTOS/Source/timers.c ****                 vListInitialise( &xActiveTimerList2 );
 1853              		.loc 1 963 0
 1854 0016 1148     		ldr	r0, .L124+8
 1855 0018 FFF7FEFF 		bl	vListInitialise
 964:../../../../dependencies/freertos/FreeRTOSv10.4.1/FreeRTOS/Source/timers.c ****                 pxCurrentTimerList = &xActiveTimerList1;
 1856              		.loc 1 964 0
 1857 001c 104B     		ldr	r3, .L124+12
 1858 001e 0E4A     		ldr	r2, .L124+4
 1859 0020 1A60     		str	r2, [r3]
 965:../../../../dependencies/freertos/FreeRTOSv10.4.1/FreeRTOS/Source/timers.c ****                 pxOverflowTimerList = &xActiveTimerList2;
 1860              		.loc 1 965 0
 1861 0022 104B     		ldr	r3, .L124+16
 1862 0024 0D4A     		ldr	r2, .L124+8
 1863 0026 1A60     		str	r2, [r3]
 966:../../../../dependencies/freertos/FreeRTOSv10.4.1/FreeRTOS/Source/timers.c **** 
 967:../../../../dependencies/freertos/FreeRTOSv10.4.1/FreeRTOS/Source/timers.c ****                 #if ( configSUPPORT_STATIC_ALLOCATION == 1 )
 968:../../../../dependencies/freertos/FreeRTOSv10.4.1/FreeRTOS/Source/timers.c ****                     {
 969:../../../../dependencies/freertos/FreeRTOSv10.4.1/FreeRTOS/Source/timers.c ****                         /* The timer queue is allocated statically in case
 970:../../../../dependencies/freertos/FreeRTOSv10.4.1/FreeRTOS/Source/timers.c ****                          * configSUPPORT_DYNAMIC_ALLOCATION is 0. */
 971:../../../../dependencies/freertos/FreeRTOSv10.4.1/FreeRTOS/Source/timers.c ****                         PRIVILEGED_DATA static StaticQueue_t xStaticTimerQueue;                    
 972:../../../../dependencies/freertos/FreeRTOSv10.4.1/FreeRTOS/Source/timers.c ****                         PRIVILEGED_DATA static uint8_t ucStaticTimerQueueStorage[ ( size_t ) config
 973:../../../../dependencies/freertos/FreeRTOSv10.4.1/FreeRTOS/Source/timers.c **** 
 974:../../../../dependencies/freertos/FreeRTOSv10.4.1/FreeRTOS/Source/timers.c ****                         xTimerQueue = xQueueCreateStatic( ( UBaseType_t ) configTIMER_QUEUE_LENGTH,
 975:../../../../dependencies/freertos/FreeRTOSv10.4.1/FreeRTOS/Source/timers.c ****                     }
 976:../../../../dependencies/freertos/FreeRTOSv10.4.1/FreeRTOS/Source/timers.c ****                 #else
 977:../../../../dependencies/freertos/FreeRTOSv10.4.1/FreeRTOS/Source/timers.c ****                     {
 978:../../../../dependencies/freertos/FreeRTOSv10.4.1/FreeRTOS/Source/timers.c ****                         xTimerQueue = xQueueCreate( ( UBaseType_t ) configTIMER_QUEUE_LENGTH, sizeo
 1864              		.loc 1 978 0
 1865 0028 0A20     		movs	r0, #10
 1866 002a 0C21     		movs	r1, #12
 1867 002c 0022     		movs	r2, #0
 1868 002e FFF7FEFF 		bl	xQueueGenericCreate
 1869 0032 0246     		mov	r2, r0
 1870 0034 074B     		ldr	r3, .L124
 1871 0036 1A60     		str	r2, [r3]
 979:../../../../dependencies/freertos/FreeRTOSv10.4.1/FreeRTOS/Source/timers.c ****                     }
 980:../../../../dependencies/freertos/FreeRTOSv10.4.1/FreeRTOS/Source/timers.c ****                 #endif /* if ( configSUPPORT_STATIC_ALLOCATION == 1 ) */
 981:../../../../dependencies/freertos/FreeRTOSv10.4.1/FreeRTOS/Source/timers.c **** 
 982:../../../../dependencies/freertos/FreeRTOSv10.4.1/FreeRTOS/Source/timers.c ****                 #if ( configQUEUE_REGISTRY_SIZE > 0 )
 983:../../../../dependencies/freertos/FreeRTOSv10.4.1/FreeRTOS/Source/timers.c ****                     {
 984:../../../../dependencies/freertos/FreeRTOSv10.4.1/FreeRTOS/Source/timers.c ****                         if( xTimerQueue != NULL )
 1872              		.loc 1 984 0
 1873 0038 064B     		ldr	r3, .L124
 1874 003a 1B68     		ldr	r3, [r3]
 1875 003c 002B     		cmp	r3, #0
 1876 003e 05D0     		beq	.L123
 985:../../../../dependencies/freertos/FreeRTOSv10.4.1/FreeRTOS/Source/timers.c ****                         {
ARM GAS  /var/folders/_8/_cw6l3nd335f_j6cn6z79m4m0000gn/T//ccbV1VDy.s 			page 54


 986:../../../../dependencies/freertos/FreeRTOSv10.4.1/FreeRTOS/Source/timers.c ****                             vQueueAddToRegistry( xTimerQueue, "TmrQ" );
 1877              		.loc 1 986 0
 1878 0040 044B     		ldr	r3, .L124
 1879 0042 1B68     		ldr	r3, [r3]
 1880 0044 1846     		mov	r0, r3
 1881 0046 0849     		ldr	r1, .L124+20
 1882 0048 FFF7FEFF 		bl	vQueueAddToRegistry
 1883              	.L123:
 987:../../../../dependencies/freertos/FreeRTOSv10.4.1/FreeRTOS/Source/timers.c ****                         }
 988:../../../../dependencies/freertos/FreeRTOSv10.4.1/FreeRTOS/Source/timers.c ****                         else
 989:../../../../dependencies/freertos/FreeRTOSv10.4.1/FreeRTOS/Source/timers.c ****                         {
 990:../../../../dependencies/freertos/FreeRTOSv10.4.1/FreeRTOS/Source/timers.c ****                             mtCOVERAGE_TEST_MARKER();
 991:../../../../dependencies/freertos/FreeRTOSv10.4.1/FreeRTOS/Source/timers.c ****                         }
 992:../../../../dependencies/freertos/FreeRTOSv10.4.1/FreeRTOS/Source/timers.c ****                     }
 993:../../../../dependencies/freertos/FreeRTOSv10.4.1/FreeRTOS/Source/timers.c ****                 #endif /* configQUEUE_REGISTRY_SIZE */
 994:../../../../dependencies/freertos/FreeRTOSv10.4.1/FreeRTOS/Source/timers.c ****             }
 995:../../../../dependencies/freertos/FreeRTOSv10.4.1/FreeRTOS/Source/timers.c ****             else
 996:../../../../dependencies/freertos/FreeRTOSv10.4.1/FreeRTOS/Source/timers.c ****             {
 997:../../../../dependencies/freertos/FreeRTOSv10.4.1/FreeRTOS/Source/timers.c ****                 mtCOVERAGE_TEST_MARKER();
 998:../../../../dependencies/freertos/FreeRTOSv10.4.1/FreeRTOS/Source/timers.c ****             }
 999:../../../../dependencies/freertos/FreeRTOSv10.4.1/FreeRTOS/Source/timers.c ****         }
1000:../../../../dependencies/freertos/FreeRTOSv10.4.1/FreeRTOS/Source/timers.c ****         taskEXIT_CRITICAL();
 1884              		.loc 1 1000 0
 1885 004c FFF7FEFF 		bl	vPortExitCritical
1001:../../../../dependencies/freertos/FreeRTOSv10.4.1/FreeRTOS/Source/timers.c ****     }
 1886              		.loc 1 1001 0
 1887 0050 80BD     		pop	{r7, pc}
 1888              	.L125:
 1889 0052 00BF     		.align	2
 1890              	.L124:
 1891 0054 00000000 		.word	xTimerQueue
 1892 0058 00000000 		.word	xActiveTimerList1
 1893 005c 00000000 		.word	xActiveTimerList2
 1894 0060 00000000 		.word	pxCurrentTimerList
 1895 0064 00000000 		.word	pxOverflowTimerList
 1896 0068 08000000 		.word	.LC1
 1897              		.cfi_endproc
 1898              	.LFE23:
 1900              		.section	.text.xTimerIsTimerActive,"ax",%progbits
 1901              		.align	2
 1902              		.global	xTimerIsTimerActive
 1903              		.thumb
 1904              		.thumb_func
 1906              	xTimerIsTimerActive:
 1907              	.LFB24:
1002:../../../../dependencies/freertos/FreeRTOSv10.4.1/FreeRTOS/Source/timers.c **** /*-----------------------------------------------------------*/
1003:../../../../dependencies/freertos/FreeRTOSv10.4.1/FreeRTOS/Source/timers.c **** 
1004:../../../../dependencies/freertos/FreeRTOSv10.4.1/FreeRTOS/Source/timers.c ****     BaseType_t xTimerIsTimerActive( TimerHandle_t xTimer )
1005:../../../../dependencies/freertos/FreeRTOSv10.4.1/FreeRTOS/Source/timers.c ****     {
 1908              		.loc 1 1005 0
 1909              		.cfi_startproc
 1910              		@ args = 0, pretend = 0, frame = 24
 1911              		@ frame_needed = 1, uses_anonymous_args = 0
 1912 0000 80B5     		push	{r7, lr}
 1913              	.LCFI95:
 1914              		.cfi_def_cfa_offset 8
 1915              		.cfi_offset 7, -8
ARM GAS  /var/folders/_8/_cw6l3nd335f_j6cn6z79m4m0000gn/T//ccbV1VDy.s 			page 55


 1916              		.cfi_offset 14, -4
 1917 0002 86B0     		sub	sp, sp, #24
 1918              	.LCFI96:
 1919              		.cfi_def_cfa_offset 32
 1920 0004 00AF     		add	r7, sp, #0
 1921              	.LCFI97:
 1922              		.cfi_def_cfa_register 7
 1923 0006 7860     		str	r0, [r7, #4]
1006:../../../../dependencies/freertos/FreeRTOSv10.4.1/FreeRTOS/Source/timers.c ****         BaseType_t xReturn;
1007:../../../../dependencies/freertos/FreeRTOSv10.4.1/FreeRTOS/Source/timers.c ****         Timer_t * pxTimer = xTimer;
 1924              		.loc 1 1007 0
 1925 0008 7B68     		ldr	r3, [r7, #4]
 1926 000a 3B61     		str	r3, [r7, #16]
1008:../../../../dependencies/freertos/FreeRTOSv10.4.1/FreeRTOS/Source/timers.c **** 
1009:../../../../dependencies/freertos/FreeRTOSv10.4.1/FreeRTOS/Source/timers.c ****         configASSERT( xTimer );
 1927              		.loc 1 1009 0
 1928 000c 7B68     		ldr	r3, [r7, #4]
 1929 000e 002B     		cmp	r3, #0
 1930 0010 09D1     		bne	.L127
 1931              	.LBB60:
 1932              	.LBB61:
 1933              		.loc 2 197 0 discriminator 1
 1934              	@ 197 "../../../../dependencies/freertos/FreeRTOSv10.4.1/FreeRTOS/Source/portable/GCC/ARM_CM4F/port
 1935 0012 4FF05003 			mov r3, #80												
 1936 0016 83F31188 		msr basepri, r3											
 1937 001a BFF36F8F 		isb														
 1938 001e BFF34F8F 		dsb														
 1939              	
 1940              	@ 0 "" 2
 1941              		.thumb
 1942 0022 FB60     		str	r3, [r7, #12]
 1943              	.L128:
 1944              	.LBE61:
 1945              	.LBE60:
 1946              		.loc 1 1009 0 discriminator 1
 1947 0024 FEE7     		b	.L128
 1948              	.L127:
1010:../../../../dependencies/freertos/FreeRTOSv10.4.1/FreeRTOS/Source/timers.c **** 
1011:../../../../dependencies/freertos/FreeRTOSv10.4.1/FreeRTOS/Source/timers.c ****         /* Is the timer in the list of active timers? */
1012:../../../../dependencies/freertos/FreeRTOSv10.4.1/FreeRTOS/Source/timers.c ****         taskENTER_CRITICAL();
 1949              		.loc 1 1012 0
 1950 0026 FFF7FEFF 		bl	vPortEnterCritical
1013:../../../../dependencies/freertos/FreeRTOSv10.4.1/FreeRTOS/Source/timers.c ****         {
1014:../../../../dependencies/freertos/FreeRTOSv10.4.1/FreeRTOS/Source/timers.c ****             if( ( pxTimer->ucStatus & tmrSTATUS_IS_ACTIVE ) == 0 )
 1951              		.loc 1 1014 0
 1952 002a 3B69     		ldr	r3, [r7, #16]
 1953 002c 93F82830 		ldrb	r3, [r3, #40]	@ zero_extendqisi2
 1954 0030 03F00103 		and	r3, r3, #1
 1955 0034 002B     		cmp	r3, #0
 1956 0036 02D1     		bne	.L129
1015:../../../../dependencies/freertos/FreeRTOSv10.4.1/FreeRTOS/Source/timers.c ****             {
1016:../../../../dependencies/freertos/FreeRTOSv10.4.1/FreeRTOS/Source/timers.c ****                 xReturn = pdFALSE;
 1957              		.loc 1 1016 0
 1958 0038 0023     		movs	r3, #0
 1959 003a 7B61     		str	r3, [r7, #20]
 1960 003c 01E0     		b	.L130
 1961              	.L129:
ARM GAS  /var/folders/_8/_cw6l3nd335f_j6cn6z79m4m0000gn/T//ccbV1VDy.s 			page 56


1017:../../../../dependencies/freertos/FreeRTOSv10.4.1/FreeRTOS/Source/timers.c ****             }
1018:../../../../dependencies/freertos/FreeRTOSv10.4.1/FreeRTOS/Source/timers.c ****             else
1019:../../../../dependencies/freertos/FreeRTOSv10.4.1/FreeRTOS/Source/timers.c ****             {
1020:../../../../dependencies/freertos/FreeRTOSv10.4.1/FreeRTOS/Source/timers.c ****                 xReturn = pdTRUE;
 1962              		.loc 1 1020 0
 1963 003e 0123     		movs	r3, #1
 1964 0040 7B61     		str	r3, [r7, #20]
 1965              	.L130:
1021:../../../../dependencies/freertos/FreeRTOSv10.4.1/FreeRTOS/Source/timers.c ****             }
1022:../../../../dependencies/freertos/FreeRTOSv10.4.1/FreeRTOS/Source/timers.c ****         }
1023:../../../../dependencies/freertos/FreeRTOSv10.4.1/FreeRTOS/Source/timers.c ****         taskEXIT_CRITICAL();
 1966              		.loc 1 1023 0
 1967 0042 FFF7FEFF 		bl	vPortExitCritical
1024:../../../../dependencies/freertos/FreeRTOSv10.4.1/FreeRTOS/Source/timers.c **** 
1025:../../../../dependencies/freertos/FreeRTOSv10.4.1/FreeRTOS/Source/timers.c ****         return xReturn;
 1968              		.loc 1 1025 0
 1969 0046 7B69     		ldr	r3, [r7, #20]
1026:../../../../dependencies/freertos/FreeRTOSv10.4.1/FreeRTOS/Source/timers.c ****     } /*lint !e818 Can't be pointer to const due to the typedef. */
 1970              		.loc 1 1026 0
 1971 0048 1846     		mov	r0, r3
 1972 004a 1837     		adds	r7, r7, #24
 1973              	.LCFI98:
 1974              		.cfi_def_cfa_offset 8
 1975 004c BD46     		mov	sp, r7
 1976              	.LCFI99:
 1977              		.cfi_def_cfa_register 13
 1978              		@ sp needed
 1979 004e 80BD     		pop	{r7, pc}
 1980              		.cfi_endproc
 1981              	.LFE24:
 1983              		.section	.text.pvTimerGetTimerID,"ax",%progbits
 1984              		.align	2
 1985              		.global	pvTimerGetTimerID
 1986              		.thumb
 1987              		.thumb_func
 1989              	pvTimerGetTimerID:
 1990              	.LFB25:
1027:../../../../dependencies/freertos/FreeRTOSv10.4.1/FreeRTOS/Source/timers.c **** /*-----------------------------------------------------------*/
1028:../../../../dependencies/freertos/FreeRTOSv10.4.1/FreeRTOS/Source/timers.c **** 
1029:../../../../dependencies/freertos/FreeRTOSv10.4.1/FreeRTOS/Source/timers.c ****     void * pvTimerGetTimerID( const TimerHandle_t xTimer )
1030:../../../../dependencies/freertos/FreeRTOSv10.4.1/FreeRTOS/Source/timers.c ****     {
 1991              		.loc 1 1030 0
 1992              		.cfi_startproc
 1993              		@ args = 0, pretend = 0, frame = 24
 1994              		@ frame_needed = 1, uses_anonymous_args = 0
 1995 0000 80B5     		push	{r7, lr}
 1996              	.LCFI100:
 1997              		.cfi_def_cfa_offset 8
 1998              		.cfi_offset 7, -8
 1999              		.cfi_offset 14, -4
 2000 0002 86B0     		sub	sp, sp, #24
 2001              	.LCFI101:
 2002              		.cfi_def_cfa_offset 32
 2003 0004 00AF     		add	r7, sp, #0
 2004              	.LCFI102:
 2005              		.cfi_def_cfa_register 7
 2006 0006 7860     		str	r0, [r7, #4]
ARM GAS  /var/folders/_8/_cw6l3nd335f_j6cn6z79m4m0000gn/T//ccbV1VDy.s 			page 57


1031:../../../../dependencies/freertos/FreeRTOSv10.4.1/FreeRTOS/Source/timers.c ****         Timer_t * const pxTimer = xTimer;
 2007              		.loc 1 1031 0
 2008 0008 7B68     		ldr	r3, [r7, #4]
 2009 000a 7B61     		str	r3, [r7, #20]
1032:../../../../dependencies/freertos/FreeRTOSv10.4.1/FreeRTOS/Source/timers.c ****         void * pvReturn;
1033:../../../../dependencies/freertos/FreeRTOSv10.4.1/FreeRTOS/Source/timers.c **** 
1034:../../../../dependencies/freertos/FreeRTOSv10.4.1/FreeRTOS/Source/timers.c ****         configASSERT( xTimer );
 2010              		.loc 1 1034 0
 2011 000c 7B68     		ldr	r3, [r7, #4]
 2012 000e 002B     		cmp	r3, #0
 2013 0010 09D1     		bne	.L133
 2014              	.LBB62:
 2015              	.LBB63:
 2016              		.loc 2 197 0 discriminator 1
 2017              	@ 197 "../../../../dependencies/freertos/FreeRTOSv10.4.1/FreeRTOS/Source/portable/GCC/ARM_CM4F/port
 2018 0012 4FF05003 			mov r3, #80												
 2019 0016 83F31188 		msr basepri, r3											
 2020 001a BFF36F8F 		isb														
 2021 001e BFF34F8F 		dsb														
 2022              	
 2023              	@ 0 "" 2
 2024              		.thumb
 2025 0022 FB60     		str	r3, [r7, #12]
 2026              	.L134:
 2027              	.LBE63:
 2028              	.LBE62:
 2029              		.loc 1 1034 0 discriminator 1
 2030 0024 FEE7     		b	.L134
 2031              	.L133:
1035:../../../../dependencies/freertos/FreeRTOSv10.4.1/FreeRTOS/Source/timers.c **** 
1036:../../../../dependencies/freertos/FreeRTOSv10.4.1/FreeRTOS/Source/timers.c ****         taskENTER_CRITICAL();
 2032              		.loc 1 1036 0
 2033 0026 FFF7FEFF 		bl	vPortEnterCritical
1037:../../../../dependencies/freertos/FreeRTOSv10.4.1/FreeRTOS/Source/timers.c ****         {
1038:../../../../dependencies/freertos/FreeRTOSv10.4.1/FreeRTOS/Source/timers.c ****             pvReturn = pxTimer->pvTimerID;
 2034              		.loc 1 1038 0
 2035 002a 7B69     		ldr	r3, [r7, #20]
 2036 002c DB69     		ldr	r3, [r3, #28]
 2037 002e 3B61     		str	r3, [r7, #16]
1039:../../../../dependencies/freertos/FreeRTOSv10.4.1/FreeRTOS/Source/timers.c ****         }
1040:../../../../dependencies/freertos/FreeRTOSv10.4.1/FreeRTOS/Source/timers.c ****         taskEXIT_CRITICAL();
 2038              		.loc 1 1040 0
 2039 0030 FFF7FEFF 		bl	vPortExitCritical
1041:../../../../dependencies/freertos/FreeRTOSv10.4.1/FreeRTOS/Source/timers.c **** 
1042:../../../../dependencies/freertos/FreeRTOSv10.4.1/FreeRTOS/Source/timers.c ****         return pvReturn;
 2040              		.loc 1 1042 0
 2041 0034 3B69     		ldr	r3, [r7, #16]
1043:../../../../dependencies/freertos/FreeRTOSv10.4.1/FreeRTOS/Source/timers.c ****     }
 2042              		.loc 1 1043 0
 2043 0036 1846     		mov	r0, r3
 2044 0038 1837     		adds	r7, r7, #24
 2045              	.LCFI103:
 2046              		.cfi_def_cfa_offset 8
 2047 003a BD46     		mov	sp, r7
 2048              	.LCFI104:
 2049              		.cfi_def_cfa_register 13
 2050              		@ sp needed
ARM GAS  /var/folders/_8/_cw6l3nd335f_j6cn6z79m4m0000gn/T//ccbV1VDy.s 			page 58


 2051 003c 80BD     		pop	{r7, pc}
 2052              		.cfi_endproc
 2053              	.LFE25:
 2055 003e 00BF     		.section	.text.vTimerSetTimerID,"ax",%progbits
 2056              		.align	2
 2057              		.global	vTimerSetTimerID
 2058              		.thumb
 2059              		.thumb_func
 2061              	vTimerSetTimerID:
 2062              	.LFB26:
1044:../../../../dependencies/freertos/FreeRTOSv10.4.1/FreeRTOS/Source/timers.c **** /*-----------------------------------------------------------*/
1045:../../../../dependencies/freertos/FreeRTOSv10.4.1/FreeRTOS/Source/timers.c **** 
1046:../../../../dependencies/freertos/FreeRTOSv10.4.1/FreeRTOS/Source/timers.c ****     void vTimerSetTimerID( TimerHandle_t xTimer,
1047:../../../../dependencies/freertos/FreeRTOSv10.4.1/FreeRTOS/Source/timers.c ****                            void * pvNewID )
1048:../../../../dependencies/freertos/FreeRTOSv10.4.1/FreeRTOS/Source/timers.c ****     {
 2063              		.loc 1 1048 0
 2064              		.cfi_startproc
 2065              		@ args = 0, pretend = 0, frame = 16
 2066              		@ frame_needed = 1, uses_anonymous_args = 0
 2067 0000 80B5     		push	{r7, lr}
 2068              	.LCFI105:
 2069              		.cfi_def_cfa_offset 8
 2070              		.cfi_offset 7, -8
 2071              		.cfi_offset 14, -4
 2072 0002 84B0     		sub	sp, sp, #16
 2073              	.LCFI106:
 2074              		.cfi_def_cfa_offset 24
 2075 0004 00AF     		add	r7, sp, #0
 2076              	.LCFI107:
 2077              		.cfi_def_cfa_register 7
 2078 0006 7860     		str	r0, [r7, #4]
 2079 0008 3960     		str	r1, [r7]
1049:../../../../dependencies/freertos/FreeRTOSv10.4.1/FreeRTOS/Source/timers.c ****         Timer_t * const pxTimer = xTimer;
 2080              		.loc 1 1049 0
 2081 000a 7B68     		ldr	r3, [r7, #4]
 2082 000c FB60     		str	r3, [r7, #12]
1050:../../../../dependencies/freertos/FreeRTOSv10.4.1/FreeRTOS/Source/timers.c **** 
1051:../../../../dependencies/freertos/FreeRTOSv10.4.1/FreeRTOS/Source/timers.c ****         configASSERT( xTimer );
 2083              		.loc 1 1051 0
 2084 000e 7B68     		ldr	r3, [r7, #4]
 2085 0010 002B     		cmp	r3, #0
 2086 0012 09D1     		bne	.L137
 2087              	.LBB64:
 2088              	.LBB65:
 2089              		.loc 2 197 0 discriminator 1
 2090              	@ 197 "../../../../dependencies/freertos/FreeRTOSv10.4.1/FreeRTOS/Source/portable/GCC/ARM_CM4F/port
 2091 0014 4FF05003 			mov r3, #80												
 2092 0018 83F31188 		msr basepri, r3											
 2093 001c BFF36F8F 		isb														
 2094 0020 BFF34F8F 		dsb														
 2095              	
 2096              	@ 0 "" 2
 2097              		.thumb
 2098 0024 BB60     		str	r3, [r7, #8]
 2099              	.L138:
 2100              	.LBE65:
 2101              	.LBE64:
ARM GAS  /var/folders/_8/_cw6l3nd335f_j6cn6z79m4m0000gn/T//ccbV1VDy.s 			page 59


 2102              		.loc 1 1051 0 discriminator 1
 2103 0026 FEE7     		b	.L138
 2104              	.L137:
1052:../../../../dependencies/freertos/FreeRTOSv10.4.1/FreeRTOS/Source/timers.c **** 
1053:../../../../dependencies/freertos/FreeRTOSv10.4.1/FreeRTOS/Source/timers.c ****         taskENTER_CRITICAL();
 2105              		.loc 1 1053 0
 2106 0028 FFF7FEFF 		bl	vPortEnterCritical
1054:../../../../dependencies/freertos/FreeRTOSv10.4.1/FreeRTOS/Source/timers.c ****         {
1055:../../../../dependencies/freertos/FreeRTOSv10.4.1/FreeRTOS/Source/timers.c ****             pxTimer->pvTimerID = pvNewID;
 2107              		.loc 1 1055 0
 2108 002c FB68     		ldr	r3, [r7, #12]
 2109 002e 3A68     		ldr	r2, [r7]
 2110 0030 DA61     		str	r2, [r3, #28]
1056:../../../../dependencies/freertos/FreeRTOSv10.4.1/FreeRTOS/Source/timers.c ****         }
1057:../../../../dependencies/freertos/FreeRTOSv10.4.1/FreeRTOS/Source/timers.c ****         taskEXIT_CRITICAL();
 2111              		.loc 1 1057 0
 2112 0032 FFF7FEFF 		bl	vPortExitCritical
1058:../../../../dependencies/freertos/FreeRTOSv10.4.1/FreeRTOS/Source/timers.c ****     }
 2113              		.loc 1 1058 0
 2114 0036 1037     		adds	r7, r7, #16
 2115              	.LCFI108:
 2116              		.cfi_def_cfa_offset 8
 2117 0038 BD46     		mov	sp, r7
 2118              	.LCFI109:
 2119              		.cfi_def_cfa_register 13
 2120              		@ sp needed
 2121 003a 80BD     		pop	{r7, pc}
 2122              		.cfi_endproc
 2123              	.LFE26:
 2125              		.section	.text.uxTimerGetTimerNumber,"ax",%progbits
 2126              		.align	2
 2127              		.global	uxTimerGetTimerNumber
 2128              		.thumb
 2129              		.thumb_func
 2131              	uxTimerGetTimerNumber:
 2132              	.LFB27:
1059:../../../../dependencies/freertos/FreeRTOSv10.4.1/FreeRTOS/Source/timers.c **** /*-----------------------------------------------------------*/
1060:../../../../dependencies/freertos/FreeRTOSv10.4.1/FreeRTOS/Source/timers.c **** 
1061:../../../../dependencies/freertos/FreeRTOSv10.4.1/FreeRTOS/Source/timers.c ****     #if ( INCLUDE_xTimerPendFunctionCall == 1 )
1062:../../../../dependencies/freertos/FreeRTOSv10.4.1/FreeRTOS/Source/timers.c **** 
1063:../../../../dependencies/freertos/FreeRTOSv10.4.1/FreeRTOS/Source/timers.c ****         BaseType_t xTimerPendFunctionCallFromISR( PendedFunction_t xFunctionToPend,
1064:../../../../dependencies/freertos/FreeRTOSv10.4.1/FreeRTOS/Source/timers.c ****                                                   void * pvParameter1,
1065:../../../../dependencies/freertos/FreeRTOSv10.4.1/FreeRTOS/Source/timers.c ****                                                   uint32_t ulParameter2,
1066:../../../../dependencies/freertos/FreeRTOSv10.4.1/FreeRTOS/Source/timers.c ****                                                   BaseType_t * pxHigherPriorityTaskWoken )
1067:../../../../dependencies/freertos/FreeRTOSv10.4.1/FreeRTOS/Source/timers.c ****         {
1068:../../../../dependencies/freertos/FreeRTOSv10.4.1/FreeRTOS/Source/timers.c ****             DaemonTaskMessage_t xMessage;
1069:../../../../dependencies/freertos/FreeRTOSv10.4.1/FreeRTOS/Source/timers.c ****             BaseType_t xReturn;
1070:../../../../dependencies/freertos/FreeRTOSv10.4.1/FreeRTOS/Source/timers.c **** 
1071:../../../../dependencies/freertos/FreeRTOSv10.4.1/FreeRTOS/Source/timers.c ****             /* Complete the message with the function parameters and post it to the
1072:../../../../dependencies/freertos/FreeRTOSv10.4.1/FreeRTOS/Source/timers.c ****              * daemon task. */
1073:../../../../dependencies/freertos/FreeRTOSv10.4.1/FreeRTOS/Source/timers.c ****             xMessage.xMessageID = tmrCOMMAND_EXECUTE_CALLBACK_FROM_ISR;
1074:../../../../dependencies/freertos/FreeRTOSv10.4.1/FreeRTOS/Source/timers.c ****             xMessage.u.xCallbackParameters.pxCallbackFunction = xFunctionToPend;
1075:../../../../dependencies/freertos/FreeRTOSv10.4.1/FreeRTOS/Source/timers.c ****             xMessage.u.xCallbackParameters.pvParameter1 = pvParameter1;
1076:../../../../dependencies/freertos/FreeRTOSv10.4.1/FreeRTOS/Source/timers.c ****             xMessage.u.xCallbackParameters.ulParameter2 = ulParameter2;
1077:../../../../dependencies/freertos/FreeRTOSv10.4.1/FreeRTOS/Source/timers.c **** 
1078:../../../../dependencies/freertos/FreeRTOSv10.4.1/FreeRTOS/Source/timers.c ****             xReturn = xQueueSendFromISR( xTimerQueue, &xMessage, pxHigherPriorityTaskWoken );
1079:../../../../dependencies/freertos/FreeRTOSv10.4.1/FreeRTOS/Source/timers.c **** 
ARM GAS  /var/folders/_8/_cw6l3nd335f_j6cn6z79m4m0000gn/T//ccbV1VDy.s 			page 60


1080:../../../../dependencies/freertos/FreeRTOSv10.4.1/FreeRTOS/Source/timers.c ****             tracePEND_FUNC_CALL_FROM_ISR( xFunctionToPend, pvParameter1, ulParameter2, xReturn );
1081:../../../../dependencies/freertos/FreeRTOSv10.4.1/FreeRTOS/Source/timers.c **** 
1082:../../../../dependencies/freertos/FreeRTOSv10.4.1/FreeRTOS/Source/timers.c ****             return xReturn;
1083:../../../../dependencies/freertos/FreeRTOSv10.4.1/FreeRTOS/Source/timers.c ****         }
1084:../../../../dependencies/freertos/FreeRTOSv10.4.1/FreeRTOS/Source/timers.c **** 
1085:../../../../dependencies/freertos/FreeRTOSv10.4.1/FreeRTOS/Source/timers.c ****     #endif /* INCLUDE_xTimerPendFunctionCall */
1086:../../../../dependencies/freertos/FreeRTOSv10.4.1/FreeRTOS/Source/timers.c **** /*-----------------------------------------------------------*/
1087:../../../../dependencies/freertos/FreeRTOSv10.4.1/FreeRTOS/Source/timers.c **** 
